 SciLexer

 Timestamp is 51180d8c (Mon Feb 11 03:13:48 2013)

 Preferred load address is 10000000

 Start         Length     Name                   Class
 0001:00000000 0009418cH .text                   CODE
 0001:00094190 00001e31H .text$x                 CODE
 0001:00095fd0 000011deH .text$yc                CODE
 0001:000971b0 0000062fH .text$yd                CODE
 0002:00000000 00000354H .idata$5                DATA
 0002:00000354 00000004H .CRT$XCA                DATA
 0002:00000358 00000180H .CRT$XCU                DATA
 0002:000004d8 00000004H .CRT$XCZ                DATA
 0002:000004dc 00000004H .CRT$XIA                DATA
 0002:000004e0 00000014H .CRT$XIC                DATA
 0002:000004f4 00000004H .CRT$XIZ                DATA
 0002:000004f8 00000004H .CRT$XPA                DATA
 0002:000004fc 00000004H .CRT$XPX                DATA
 0002:00000500 00000004H .CRT$XPXA               DATA
 0002:00000504 00000004H .CRT$XPZ                DATA
 0002:00000508 00000004H .CRT$XTA                DATA
 0002:0000050c 00000004H .CRT$XTZ                DATA
 0002:00000510 00005eb8H .rdata                  DATA
 0002:000063c8 00000c60H .rdata$r                DATA
 0002:00007030 00000278H .rdata$sxdata           DATA
 0002:000072a8 00000004H .rtc$IAA                DATA
 0002:000072ac 00000004H .rtc$IZZ                DATA
 0002:000072b0 00000004H .rtc$TAA                DATA
 0002:000072b4 00000004H .rtc$TZZ                DATA
 0002:000072b8 00002788H .xdata$x                DATA
 0002:00009a40 00000078H .idata$2                DATA
 0002:00009ab8 00000014H .idata$3                DATA
 0002:00009acc 00000354H .idata$4                DATA
 0002:00009e20 00000e32H .idata$6                DATA
 0002:0000ac60 0000005cH .edata                  DATA
 0003:00000000 0000201fH .data                   DATA
 0003:00002020 00442bfcH .bss                    DATA
 0004:00000000 000000e8H .rsrc$01                DATA
 0004:000000f0 00000488H .rsrc$02                DATA

  Address         Publics by Value              Rva+Base       Lib:Object

 0000:00000000       __except_list              00000000     <absolute>
 0000:0000009e       ___safe_se_handler_count   0000009e     <absolute>
 0000:00000000       ___ImageBase               10000000     <linker-defined>
 0001:00000000       ??0AutoComplete@@QAE@XZ    10001000 f   AutoComplete.obj
 0001:00000050       ??1AutoComplete@@QAE@XZ    10001050 f   AutoComplete.obj
 0001:00000080       ?Active@AutoComplete@@QBE_NXZ 10001080 f   AutoComplete.obj
 0001:00000090       ?SetStopChars@AutoComplete@@QAEXPBD@Z 10001090 f   AutoComplete.obj
 0001:000000c0       ?IsStopChar@AutoComplete@@QAE_ND@Z 100010c0 f   AutoComplete.obj
 0001:000000f0       ?SetFillUpChars@AutoComplete@@QAEXPBD@Z 100010f0 f   AutoComplete.obj
 0001:00000120       ?IsFillUpChar@AutoComplete@@QAE_ND@Z 10001120 f   AutoComplete.obj
 0001:00000150       ?SetSeparator@AutoComplete@@QAEXD@Z 10001150 f   AutoComplete.obj
 0001:00000160       ?GetSeparator@AutoComplete@@QBEDXZ 10001160 f   AutoComplete.obj
 0001:00000170       ?SetTypesep@AutoComplete@@QAEXD@Z 10001170 f   AutoComplete.obj
 0001:00000180       ?GetTypesep@AutoComplete@@QBEDXZ 10001180 f   AutoComplete.obj
 0001:00000190       ?SetList@AutoComplete@@QAEXPBD@Z 10001190 f   AutoComplete.obj
 0001:000001c0       ?Show@AutoComplete@@QAEX_N@Z 100011c0 f   AutoComplete.obj
 0001:000001f0       ?Cancel@AutoComplete@@QAEXXZ 100011f0 f   AutoComplete.obj
 0001:00000220       ?Move@AutoComplete@@QAEXH@Z 10001220 f   AutoComplete.obj
 0001:00000270       ?Select@AutoComplete@@QAEXPBD@Z 10001270 f   AutoComplete.obj
 0001:000004d0       ?Start@AutoComplete@@QAEXAAVWindow@@HHVPoint@@HH_N@Z 100014d0 f   AutoComplete.obj
 0001:00000550       ??_EWindow@@UAEPAXI@Z      10001550 f i CallTip.obj
 0001:00000550       ??_GWindow@@UAEPAXI@Z      10001550 f i CallTip.obj
 0001:00000580       ??1CallTip@@QAE@XZ         10001580 f   CallTip.obj
 0001:00000620       ?RefreshColourPalette@CallTip@@QAEXAAVPalette@@_N@Z 10001620 f   CallTip.obj
 0001:000006a0       ?IsTabCharacter@CallTip@@ABE_ND@Z 100016a0 f   CallTip.obj
 0001:000006c0       ?NextTabPos@CallTip@@AAEHH@Z 100016c0 f   CallTip.obj
 0001:000006f0       ?DrawChunk@CallTip@@AAEXPAVSurface@@AAHPBDHHHVPRectangle@@_N4@Z 100016f0 f   CallTip.obj
 0001:000009a0       ?PaintContents@CallTip@@AAEHPAVSurface@@_N@Z 100019a0 f   CallTip.obj
 0001:00000b80       ?PaintCT@CallTip@@QAEXPAVSurface@@@Z 10001b80 f   CallTip.obj
 0001:00000c60       ?MouseClick@CallTip@@QAEXVPoint@@@Z 10001c60 f   CallTip.obj
 0001:00000cc0       ?CallTipStart@CallTip@@QAE?AVPRectangle@@HVPoint@@PBD1HHHAAVWindow@@@Z 10001cc0 f   CallTip.obj
 0001:00000e70       ?CallTipCancel@CallTip@@QAEXXZ 10001e70 f   CallTip.obj
 0001:00000e90       ?SetHighlight@CallTip@@QAEXHH@Z 10001e90 f   CallTip.obj
 0001:00000ec0       ?SetTabSize@CallTip@@QAEXH@Z 10001ec0 f   CallTip.obj
 0001:00000ee0       ?SetForeBack@CallTip@@QAEXABUColourPair@@0@Z 10001ee0 f   CallTip.obj
 0001:00000f10       ??0CallTip@@QAE@XZ         10001f10 f   CallTip.obj
 0001:00000fb0       ?RangeAddDelta@SplitVectorWithRangeAdd@@QAEXHHH@Z 10001fb0 f i CellBuffer.obj
 0001:00001020       ?SetPerLine@LineVector@@QAEXPAVPerLine@@@Z 10002020 f   CellBuffer.obj
 0001:00001030       ??0Action@@QAE@XZ          10002030 f   CellBuffer.obj
 0001:00001050       ?Create@Action@@QAEXW4actionType@@HPADH_N@Z 10002050 f   CellBuffer.obj
 0001:00001090       ?Destroy@Action@@QAEXXZ    10002090 f   CellBuffer.obj
 0001:000010b0       ?Grab@Action@@QAEXPAV1@@Z  100020b0 f   CellBuffer.obj
 0001:00001100       ?DropUndoSequence@UndoHistory@@QAEXXZ 10002100 f   CellBuffer.obj
 0001:00001110       ?DeleteUndoHistory@UndoHistory@@QAEXXZ 10002110 f   CellBuffer.obj
 0001:00001190       ?SetSavePoint@UndoHistory@@QAEXXZ 10002190 f   CellBuffer.obj
 0001:000011a0       ?IsSavePoint@UndoHistory@@QBE_NXZ 100021a0 f   CellBuffer.obj
 0001:000011b0       ?CanUndo@UndoHistory@@QBE_NXZ 100021b0 f   CellBuffer.obj
 0001:000011d0       ?StartUndo@UndoHistory@@QAEHXZ 100021d0 f   CellBuffer.obj
 0001:00001220       ?GetUndoStep@UndoHistory@@QBEABVAction@@XZ 10002220 f   CellBuffer.obj
 0001:00001230       ?CompletedUndoStep@UndoHistory@@QAEXXZ 10002230 f   CellBuffer.obj
 0001:00001240       ?CanRedo@UndoHistory@@QBE_NXZ 10002240 f   CellBuffer.obj
 0001:00001250       ?StartRedo@UndoHistory@@QAEHXZ 10002250 f   CellBuffer.obj
 0001:000012a0       ?GetRedoStep@UndoHistory@@QBEABVAction@@XZ 100022a0 f   CellBuffer.obj
 0001:000012b0       ?CompletedRedoStep@UndoHistory@@QAEXXZ 100022b0 f   CellBuffer.obj
 0001:000012c0       ?SetPerLine@CellBuffer@@QAEXPAVPerLine@@@Z 100022c0 f   CellBuffer.obj
 0001:000012d0       ?IsReadOnly@CellBuffer@@QBE_NXZ 100022d0 f   CellBuffer.obj
 0001:000012e0       ?SetReadOnly@CellBuffer@@QAEX_N@Z 100022e0 f   CellBuffer.obj
 0001:000012f0       ?SetSavePoint@CellBuffer@@QAEXXZ 100022f0 f   CellBuffer.obj
 0001:00001300       ?IsSavePoint@CellBuffer@@QAE_NXZ 10002300 f   CellBuffer.obj
 0001:00001310       ?SetUndoCollection@CellBuffer@@QAE_N_N@Z 10002310 f   CellBuffer.obj
 0001:00001330       ?IsCollectingUndo@CellBuffer@@QBE_NXZ 10002330 f   CellBuffer.obj
 0001:00001340       ?DeleteUndoHistory@CellBuffer@@QAEXXZ 10002340 f   CellBuffer.obj
 0001:00001350       ?CanUndo@CellBuffer@@QAE_NXZ 10002350 f   CellBuffer.obj
 0001:00001370       ?StartUndo@CellBuffer@@QAEHXZ 10002370 f   CellBuffer.obj
 0001:000013c0       ?GetUndoStep@CellBuffer@@QBEABVAction@@XZ 100023c0 f   CellBuffer.obj
 0001:000013d0       ?CanRedo@CellBuffer@@QAE_NXZ 100023d0 f   CellBuffer.obj
 0001:000013e0       ?StartRedo@CellBuffer@@QAEHXZ 100023e0 f   CellBuffer.obj
 0001:00001430       ?GetRedoStep@CellBuffer@@QBEABVAction@@XZ 10002430 f   CellBuffer.obj
 0001:00001440       ?InsertText@LineVector@@QAEXHH@Z 10002440 f   CellBuffer.obj
 0001:00001450       ?SetLineStart@LineVector@@QAEXHH@Z 10002450 f   CellBuffer.obj
 0001:00001460       ?LineFromPosition@LineVector@@QBEHH@Z 10002460 f   CellBuffer.obj
 0001:00001470       ??1Action@@QAE@XZ          10002470 f   CellBuffer.obj
 0001:00001490       ??0UndoHistory@@QAE@XZ     10002490 f   CellBuffer.obj
 0001:00001560       ??1UndoHistory@@QAE@XZ     10002560 f   CellBuffer.obj
 0001:00001590       ?EnsureUndoRoom@UndoHistory@@AAEXXZ 10002590 f   CellBuffer.obj
 0001:000016e0       ?AppendAction@UndoHistory@@QAEXW4actionType@@HPADHAA_N_N@Z 100026e0 f   CellBuffer.obj
 0001:00001850       ?BeginUndoAction@UndoHistory@@QAEXXZ 10002850 f   CellBuffer.obj
 0001:000018b0       ?EndUndoAction@UndoHistory@@QAEXXZ 100028b0 f   CellBuffer.obj
 0001:00001910       ?CharAt@CellBuffer@@QBEDH@Z 10002910 f   CellBuffer.obj
 0001:00001940       ?GetCharRange@CellBuffer@@QBEXPADHH@Z 10002940 f   CellBuffer.obj
 0001:000019c0       ?StyleAt@CellBuffer@@QBEDH@Z 100029c0 f   CellBuffer.obj
 0001:00001a00       ?SetStyleAt@CellBuffer@@QAE_NHDD@Z 10002a00 f   CellBuffer.obj
 0001:00001a80       ?SetStyleFor@CellBuffer@@QAE_NHHDD@Z 10002a80 f   CellBuffer.obj
 0001:00001b10       ?Length@CellBuffer@@QBEHXZ 10002b10 f   CellBuffer.obj
 0001:00001b20       ?Lines@CellBuffer@@QBEHXZ  10002b20 f   CellBuffer.obj
 0001:00001b30       ?LineStart@CellBuffer@@QBEHH@Z 10002b30 f   CellBuffer.obj
 0001:00001b60       ?BeginUndoAction@CellBuffer@@QAEXXZ 10002b60 f   CellBuffer.obj
 0001:00001b70       ?EndUndoAction@CellBuffer@@QAEXXZ 10002b70 f   CellBuffer.obj
 0001:00001b80       ?AddUndoAction@CellBuffer@@QAEXH_N@Z 10002b80 f   CellBuffer.obj
 0001:00001bb0       ?RemoveLine@LineVector@@QAEXH@Z 10002bb0 f   CellBuffer.obj
 0001:00001be0       ?Allocate@CellBuffer@@QAEXH@Z 10002be0 f   CellBuffer.obj
 0001:00001c90       ?RemoveLine@CellBuffer@@QAEXH@Z 10002c90 f   CellBuffer.obj
 0001:00001cc0       ??1LineVector@@QAE@XZ      10002cc0 f   CellBuffer.obj
 0001:00001d60       ?Init@LineVector@@QAEXXZ   10002d60 f   CellBuffer.obj
 0001:00001db0       ?InsertLine@LineVector@@QAEXHH_N@Z 10002db0 f   CellBuffer.obj
 0001:00001df0       ??1CellBuffer@@QAE@XZ      10002df0 f   CellBuffer.obj
 0001:00001ea0       ?BufferPointer@CellBuffer@@QAEPBDXZ 10002ea0 f   CellBuffer.obj
 0001:00001f00       ?InsertLine@CellBuffer@@QAEXHH_N@Z 10002f00 f   CellBuffer.obj
 0001:00001f40       ?BasicInsertString@CellBuffer@@QAEXHPBDH@Z 10002f40 f   CellBuffer.obj
 0001:00002180       ?BasicDeleteChars@CellBuffer@@QAEXHH@Z 10003180 f   CellBuffer.obj
 0001:00002420       ?PerformUndoStep@CellBuffer@@QAEXXZ 10003420 f   CellBuffer.obj
 0001:00002470       ?PerformRedoStep@CellBuffer@@QAEXXZ 10003470 f   CellBuffer.obj
 0001:000024c0       ??0LineVector@@QAE@XZ      100034c0 f   CellBuffer.obj
 0001:00002550       ??0CellBuffer@@QAE@XZ      10003550 f   CellBuffer.obj
 0001:00002630       ?InsertString@CellBuffer@@QAEPBDHPBDHAA_N@Z 10003630 f   CellBuffer.obj
 0001:000026a0       ?DeleteChars@CellBuffer@@QAEPBDHHAA_N@Z 100036a0 f   CellBuffer.obj
 0001:00002740       ??1?$SplitVector@D@@QAE@XZ 10003740 f i CellBuffer.obj
 0001:00002740       ??1?$SplitVector@H@@QAE@XZ 10003740 f i CellBuffer.obj
 0001:00002760       ?GapTo@?$SplitVector@D@@IAEXH@Z 10003760 f i CellBuffer.obj
 0001:000027c0       ?ApplyStep@Partitioning@@AAEXH@Z 100037c0 f i CellBuffer.obj
 0001:00002800       ?SetPartitionStartPosition@Partitioning@@QAEXHH@Z 10003800 f i CellBuffer.obj
 0001:00002880       ?InsertText@Partitioning@@QAEXHH@Z 10003880 f i CellBuffer.obj
 0001:00002940       ?PartitionFromPosition@Partitioning@@QBEHH@Z 10003940 f i CellBuffer.obj
 0001:00002a10       ?PositionFromPartition@Partitioning@@QBEHH@Z 10003a10 f i CellBuffer.obj
 0001:00002a10       ?LineStart@LineVector@@QBEHH@Z 10003a10 f i CellBuffer.obj
 0001:00002a60       ?ReAllocate@?$SplitVector@H@@QAEXH@Z 10003a60 f i CellBuffer.obj
 0001:00002a60       ?ReAllocate@?$SplitVector@PAVMarkerHandleSet@@@@QAEXH@Z 10003a60 f i PerLine.obj
 0001:00002a60       ?ReAllocate@?$SplitVector@PAD@@QAEXH@Z 10003a60 f i PerLine.obj
 0001:00002ad0       ?ReAllocate@?$SplitVector@D@@QAEXH@Z 10003ad0 f i CellBuffer.obj
 0001:00002b30       ?RoomFor@?$SplitVector@H@@IAEXH@Z 10003b30 f i CellBuffer.obj
 0001:00002b30       ?RoomFor@?$SplitVector@PAVMarkerHandleSet@@@@IAEXH@Z 10003b30 f i PerLine.obj
 0001:00002b30       ?RoomFor@?$SplitVector@PAD@@IAEXH@Z 10003b30 f i PerLine.obj
 0001:00002b90       ?RoomFor@?$SplitVector@D@@IAEXH@Z 10003b90 f i CellBuffer.obj
 0001:00002bf0       ??1Partitioning@@QAE@XZ    10003bf0 f i CellBuffer.obj
 0001:00002c20       ?RemovePartition@Partitioning@@QAEXH@Z 10003c20 f i CellBuffer.obj
 0001:00002cc0       ?Allocate@Partitioning@@AAEXH@Z 10003cc0 f i CellBuffer.obj
 0001:00002db0       ?InsertPartition@Partitioning@@QAEXHH@Z 10003db0 f i CellBuffer.obj
 0001:00002e40       ?SetDefaultCharClasses@CharClassify@@QAEX_N@Z 10003e40 f   CharClassify.obj
 0001:00002eb0       ?SetCharClasses@CharClassify@@QAEXPBEW4cc@1@@Z 10003eb0 f   CharClassify.obj
 0001:00002ee0       ?CompareCaseInsensitive@@YAHPBD0@Z 10003ee0 f   CharClassify.obj
 0001:00002f40       ?CompareNCaseInsensitive@@YAHPBD0I@Z 10003f40 f   CharClassify.obj
 0001:00002fb0       ??0CharClassify@@QAE@XZ    10003fb0 f   CharClassify.obj
 0001:00002fc0       ??0ContractionState@@QAE@XZ 10003fc0 f   ContractionState.obj
 0001:00002fe0       ?GetVisible@ContractionState@@QBE_NH@Z 10003fe0 f   ContractionState.obj
 0001:00003020       ?GetHeight@ContractionState@@QBEHH@Z 10004020 f   ContractionState.obj
 0001:00003040       ?Check@ContractionState@@QBEXXZ 10004040 f   ContractionState.obj
 0001:00003050       ?LinesInDoc@ContractionState@@QBEHXZ 10004050 f   ContractionState.obj
 0001:00003070       ?LinesDisplayed@ContractionState@@QBEHXZ 10004070 f   ContractionState.obj
 0001:000030c0       ?DisplayFromDoc@ContractionState@@QBEHH@Z 100040c0 f   ContractionState.obj
 0001:00003130       ?DocFromDisplay@ContractionState@@QBEHH@Z 10004130 f   ContractionState.obj
 0001:00003190       ?GetExpanded@ContractionState@@QBE_NH@Z 10004190 f   ContractionState.obj
 0001:000031c0       ?DeleteLine@ContractionState@@QAEXH@Z 100041c0 f   ContractionState.obj
 0001:00003240       ?DeleteLines@ContractionState@@QAEXHH@Z 10004240 f   ContractionState.obj
 0001:000032d0       ?Clear@ContractionState@@QAEXXZ 100042d0 f   ContractionState.obj
 0001:00003380       ?InsertLine@ContractionState@@QAEXH@Z 10004380 f   ContractionState.obj
 0001:00003400       ?InsertLines@ContractionState@@QAEXHH@Z 10004400 f   ContractionState.obj
 0001:000034f0       ?ShowAll@ContractionState@@QAEXXZ 100044f0 f   ContractionState.obj
 0001:00003530       ??1ContractionState@@UAE@XZ 10004530 f   ContractionState.obj
 0001:00003540       ?EnsureData@ContractionState@@AAEXXZ 10004540 f   ContractionState.obj
 0001:00003640       ?SetVisible@ContractionState@@QAE_NHH_N@Z 10004640 f   ContractionState.obj
 0001:00003730       ?SetExpanded@ContractionState@@QAE_NH_N@Z 10004730 f   ContractionState.obj
 0001:00003790       ?SetHeight@ContractionState@@QAE_NHH@Z 10004790 f   ContractionState.obj
 0001:00003840       ??_GContractionState@@UAEPAXI@Z 10004840 f i ContractionState.obj
 0001:00003840       ??_EContractionState@@UAEPAXI@Z 10004840 f i ContractionState.obj
 0001:00003870       ??0Decoration@@QAE@H@Z     10004870 f   Decoration.obj
 0001:000038a0       ??1Decoration@@QAE@XZ      100048a0 f   Decoration.obj
 0001:000038b0       ??0DecorationList@@QAE@XZ  100048b0 f   Decoration.obj
 0001:000038d0       ?DecorationFromIndicator@DecorationList@@AAEPAVDecoration@@H@Z 100048d0 f   Decoration.obj
 0001:00003900       ?Create@DecorationList@@AAEPAVDecoration@@HH@Z 10004900 f   Decoration.obj
 0001:000039c0       ?Delete@DecorationList@@AAEXH@Z 100049c0 f   Decoration.obj
 0001:00003a30       ?SetCurrentIndicator@DecorationList@@QAEXH@Z 10004a30 f   Decoration.obj
 0001:00003a60       ?SetCurrentValue@DecorationList@@QAEXH@Z 10004a60 f   Decoration.obj
 0001:00003a80       ?InsertSpace@DecorationList@@QAEXHH@Z 10004a80 f   Decoration.obj
 0001:00003ab0       ?AllOnFor@DecorationList@@QAEHH@Z 10004ab0 f   Decoration.obj
 0001:00003af0       ?ValueAt@DecorationList@@QAEHHH@Z 10004af0 f   Decoration.obj
 0001:00003b30       ?Start@DecorationList@@QAEHHH@Z 10004b30 f   Decoration.obj
 0001:00003b70       ?End@DecorationList@@QAEHHH@Z 10004b70 f   Decoration.obj
 0001:00003bb0       ?Empty@Decoration@@QAE_NXZ 10004bb0 f   Decoration.obj
 0001:00003bd0       ??1DecorationList@@QAE@XZ  10004bd0 f   Decoration.obj
 0001:00003c10       ?FillRange@DecorationList@@QAE_NAAHH0@Z 10004c10 f   Decoration.obj
 0001:00003c90       ?DeleteAnyEmpty@DecorationList@@AAEXXZ 10004c90 f   Decoration.obj
 0001:00003cd0       ?DeleteRange@DecorationList@@QAEXHH@Z 10004cd0 f   Decoration.obj
 0001:00003d30       ??1bad_alloc@std@@UAE@XZ   10004d30 f i Document.obj
 0001:00003d40       ??_Gbad_alloc@std@@UAEPAXI@Z 10004d40 f i Document.obj
 0001:00003d40       ??_Ebad_alloc@std@@UAEPAXI@Z 10004d40 f i Document.obj
 0001:00003d70       ??1PerLine@@UAE@XZ         10004d70 f i Document.obj
 0001:00003d80       ??_EPerLine@@UAEPAXI@Z     10004d80 f i Document.obj
 0001:00003d80       ??_GPerLine@@UAEPAXI@Z     10004d80 f i Document.obj
 0001:00003db0       ??1RegexSearchBase@@UAE@XZ 10004db0 f i Document.obj
 0001:00003dc0       ??_GRegexSearchBase@@UAEPAXI@Z 10004dc0 f i Document.obj
 0001:00003dc0       ??_ERegexSearchBase@@UAEPAXI@Z 10004dc0 f i Document.obj
 0001:00003df0       ??1UndoGroup@@QAE@XZ       10004df0 f i Document.obj
 0001:00003eb0       ??1Document@@UAE@XZ        10004eb0 f   Document.obj
 0001:00003fb0       ?Init@Document@@UAEXXZ     10004fb0 f   Document.obj
 0001:00003fe0       ?InsertLine@Document@@UAEXH@Z 10004fe0 f   Document.obj
 0001:00004010       ?RemoveLine@Document@@UAEXH@Z 10005010 f   Document.obj
 0001:00004040       ?AddRef@Document@@QAEHXZ   10005040 f   Document.obj
 0001:00004050       ?Release@Document@@QAEHXZ  10005050 f   Document.obj
 0001:00004070       ?GetMark@Document@@QAEHH@Z 10005070 f   Document.obj
 0001:00004080       ?LineFromHandle@Document@@QAEHH@Z 10005080 f   Document.obj
 0001:00004090       ?LineStart@Document@@QBEHH@Z 10005090 f   Document.obj
 0001:000040a0       ?LineFromPosition@Document@@QBEHH@Z 100050a0 f   Document.obj
 0001:000040b0       ?GetLevel@Document@@QBEHH@Z 100050b0 f   Document.obj
 0001:000040c0       ?ClearLevels@Document@@QAEXXZ 100050c0 f   Document.obj
 0001:000040f0       ?GetFoldParent@Document@@QAEHH@Z 100050f0 f   Document.obj
 0001:00004180       ?ClampPositionIntoDocument@Document@@QAEHH@Z 10005180 f   Document.obj
 0001:000041a0       ?IsCrLf@Document@@QAE_NH@Z 100051a0 f   Document.obj
 0001:00004200       ?LenChar@Document@@QAEHH@Z 10005200 f   Document.obj
 0001:000043a0       ?InGoodUTF8@Document@@QAE_NHAAH0@Z 100053a0 f   Document.obj
 0001:000044a0       ?MovePositionOutsideChar@Document@@QAEHHH_N@Z 100054a0 f   Document.obj
 0001:00004660       ?ModifiedAt@Document@@QAEXH@Z 10005660 f   Document.obj
 0001:000046f0       ?GetLineIndentPosition@Document@@QBEHH@Z 100056f0 f   Document.obj
 0001:00004740       ?TransformLineEnds@Document@@SAPADPAHPBDIH@Z 10005740 f   Document.obj
 0001:000047d0       ?WordCharClass@Document@@AAE?AW4cc@CharClassify@@E@Z 100057d0 f   Document.obj
 0001:00004800       ?ExtendWordSelect@Document@@QAEHHH_N@Z 10005800 f   Document.obj
 0001:00004930       ?NextWordStart@Document@@QAEHHH@Z 10005930 f   Document.obj
 0001:00004ad0       ?NextWordEnd@Document@@QAEHHH@Z 10005ad0 f   Document.obj
 0001:00004c80       ?IsWordStartAt@Document@@AAE_NH@Z 10005c80 f   Document.obj
 0001:00004d20       ?IsWordEndAt@Document@@AAE_NH@Z 10005d20 f   Document.obj
 0001:00004dc0       ?IsWordAt@Document@@AAE_NHH@Z 10005dc0 f   Document.obj
 0001:00004e20       ?ExtractChar@Document@@QAEIHPAD@Z 10005e20 f   Document.obj
 0001:00004ea0       ??1CaseFolderTable@@UAE@XZ 10005ea0 f   Document.obj
 0001:00004eb0       ?Fold@CaseFolderTable@@UAEIPADIPBDI@Z 10005eb0 f   Document.obj
 0001:00004ef0       ?SetTranslation@CaseFolderTable@@QAEXDD@Z 10005ef0 f   Document.obj
 0001:00004f10       ?StandardASCII@CaseFolderTable@@QAEXXZ 10005f10 f   Document.obj
 0001:00004f40       ?MatchesWordOptions@Document@@QAE_N_N0HH@Z 10005f40 f   Document.obj
 0001:00004fa0       ?SubstituteByPosition@Document@@QAEPBDPBDPAH@Z 10005fa0 f   Document.obj
 0001:00004fd0       ?LinesTotal@Document@@QBEHXZ 10005fd0 f   Document.obj
 0001:00004fe0       ?SetDefaultCharClasses@Document@@QAEX_N@Z 10005fe0 f   Document.obj
 0001:00004ff0       ?SetCharClasses@Document@@QAEXPBEW4cc@CharClassify@@@Z 10005ff0 f   Document.obj
 0001:00005000       ?SetStylingBits@Document@@QAEXH@Z 10006000 f   Document.obj
 0001:00005020       ?StartStyling@Document@@QAEXHD@Z 10006020 f   Document.obj
 0001:00005040       ?GetLineState@Document@@QBEHH@Z 10006040 f   Document.obj
 0001:00005050       ?GetMaxLineState@Document@@QAEHXZ 10006050 f   Document.obj
 0001:00005060       ?MarginStyledText@Document@@QAE?AUStyledText@@H@Z 10006060 f   Document.obj
 0001:000050d0       ?MarginSetStyle@Document@@QAEXHH@Z 100060d0 f   Document.obj
 0001:000050e0       ?MarginSetStyles@Document@@QAEXHPBE@Z 100060e0 f   Document.obj
 0001:000050f0       ?MarginLength@Document@@QBEHH@Z 100060f0 f   Document.obj
 0001:00005100       ?AnnotationAny@Document@@QBE_NXZ 10006100 f   Document.obj
 0001:00005110       ?AnnotationStyledText@Document@@QAE?AUStyledText@@H@Z 10006110 f   Document.obj
 0001:00005180       ?AnnotationSetStyle@Document@@QAEXHH@Z 10006180 f   Document.obj
 0001:00005190       ?AnnotationSetStyles@Document@@QAEXHPBE@Z 10006190 f   Document.obj
 0001:000051a0       ?AnnotationLength@Document@@QBEHH@Z 100061a0 f   Document.obj
 0001:000051b0       ?AnnotationLines@Document@@QBEHH@Z 100061b0 f   Document.obj
 0001:000051c0       ?IncrementStyleClock@Document@@QAEXXZ 100061c0 f   Document.obj
 0001:000051e0       ?RemoveWatcher@Document@@QAE_NPAVDocWatcher@@PAX@Z 100061e0 f   Document.obj
 0001:00005300       ?NotifyModifyAttempt@Document@@AAEXXZ 10006300 f   Document.obj
 0001:00005340       ?NotifySavePoint@Document@@AAEX_N@Z 10006340 f   Document.obj
 0001:00005390       ?NotifyModified@Document@@AAEXVDocModification@@@Z 10006390 f   Document.obj
 0001:00005430       ?IsWordPartSeparator@Document@@QAE_ND@Z 10006430 f   Document.obj
 0001:00005480       ?WordPartLeft@Document@@QAEHH@Z 10006480 f   Document.obj
 0001:00005740       ?WordPartRight@Document@@QAEHH@Z 10006740 f   Document.obj
 0001:00005a20       ?IsLineEndChar@@YA_ND@Z    10006a20 f   Document.obj
 0001:00005a40       ?ExtendStyleRange@Document@@QAEHHH_N@Z 10006a40 f   Document.obj
 0001:00005b90       ?BraceMatch@Document@@QAEHHH@Z 10006b90 f   Document.obj
 0001:00005d30       ?SubstituteByPosition@BuiltinRegex@@UAEPBDPAVDocument@@PBDPAH@Z 10006d30 f   Document.obj
 0001:00005f30       ?SetSavePoint@Document@@QAEXXZ 10006f30 f   Document.obj
 0001:00005f50       ?AddMark@Document@@QAEHHH@Z 10006f50 f   Document.obj
 0001:00005fe0       ?AddMarkSet@Document@@QAEXHH@Z 10006fe0 f   Document.obj
 0001:00006070       ?DeleteMark@Document@@QAEXHH@Z 10007070 f   Document.obj
 0001:000060e0       ?DeleteMarkFromHandle@Document@@QAEXH@Z 100070e0 f   Document.obj
 0001:00006150       ?DeleteAllMarks@Document@@QAEXH@Z 10007150 f   Document.obj
 0001:000061e0       ?LineEnd@Document@@QBEHH@Z 100071e0 f   Document.obj
 0001:00006240       ?LineEndPosition@Document@@QBEHH@Z 10007240 f   Document.obj
 0001:000062b0       ?IsLineEndPosition@Document@@QBE_NH@Z 100072b0 f   Document.obj
 0001:00006330       ?VCHomePosition@Document@@QBEHH@Z 10007330 f   Document.obj
 0001:000063e0       ?SetLevel@Document@@QAEHHH@Z 100073e0 f   Document.obj
 0001:00006470       ?CheckReadOnly@Document@@QAEXXZ 10007470 f   Document.obj
 0001:000064b0       ?DeleteChars@Document@@QAE_NHH@Z 100074b0 f   Document.obj
 0001:00006660       ?InsertString@Document@@QAE_NHPBDH@Z 10007660 f   Document.obj
 0001:000067f0       ?Undo@Document@@QAEHXZ     100077f0 f   Document.obj
 0001:00006a30       ?Redo@Document@@QAEHXZ     10007a30 f   Document.obj
 0001:00006c70       ?InsertChar@Document@@QAE_NHD@Z 10007c70 f   Document.obj
 0001:00006c90       ?InsertCString@Document@@QAE_NHPBD@Z 10007c90 f   Document.obj
 0001:00006cc0       ?ChangeChar@Document@@QAEXHD@Z 10007cc0 f   Document.obj
 0001:00006cf0       ?DelChar@Document@@QAEXH@Z 10007cf0 f   Document.obj
 0001:00006d10       ?DelCharBack@Document@@QAEXH@Z 10007d10 f   Document.obj
 0001:00006d80       ?GetLineIndentation@Document@@QAEHH@Z 10007d80 f   Document.obj
 0001:00006e00       ?SetLineIndentation@Document@@QAEXHH@Z 10007e00 f   Document.obj
 0001:00006f40       ?GetColumn@Document@@QAEHH@Z 10007f40 f   Document.obj
 0001:00006fe0       ?FindColumn@Document@@QAEHHH@Z 10007fe0 f   Document.obj
 0001:000071a0       ?Indent@Document@@QAEX_NHH@Z 100081a0 f   Document.obj
 0001:00007260       ?ConvertLineEnds@Document@@QAEXH@Z 10008260 f   Document.obj
 0001:00007380       ?IsWhiteLine@Document@@QBE_NH@Z 10008380 f   Document.obj
 0001:00007410       ?ParaUp@Document@@QAEHH@Z  10008410 f   Document.obj
 0001:00007500       ?ParaDown@Document@@QAEHH@Z 10008500 f   Document.obj
 0001:00007590       ??0CaseFolderTable@@QAE@XZ 10008590 f   Document.obj
 0001:000075b0       ?ChangeCase@Document@@QAEXVRange@@_N@Z 100085b0 f   Document.obj
 0001:00007660       ?SetStyleFor@Document@@QAE_NHD@Z 10008660 f   Document.obj
 0001:00007710       ?SetStyles@Document@@QAE_NHPBD@Z 10008710 f   Document.obj
 0001:000077f0       ?EnsureStyledTo@Document@@QAEXH@Z 100087f0 f   Document.obj
 0001:00007870       ?SetLineState@Document@@QAEHHH@Z 10008870 f   Document.obj
 0001:000078e0       ?MarginSetText@Document@@QAEXHPBD@Z 100088e0 f   Document.obj
 0001:00007950       ?MarginClearAll@Document@@QAEXXZ 10008950 f   Document.obj
 0001:000079e0       ?AnnotationSetText@Document@@QAEXHPBD@Z 100089e0 f   Document.obj
 0001:00007a70       ?AnnotationClearAll@Document@@QAEXXZ 10008a70 f   Document.obj
 0001:00007b20       ?DecorationFillRange@Document@@QAEXHHH@Z 10008b20 f   Document.obj
 0001:00007b90       ?AddWatcher@Document@@QAE_NPAVDocWatcher@@PAX@Z 10008b90 f   Document.obj
 0001:00007c90       ?FindText@BuiltinRegex@@UAEJPAVDocument@@HHPBD_N22HPAH@Z 10008c90 f   Document.obj
 0001:00007ee0       ?CreateRegexSearch@@YAPAVRegexSearchBase@@PAVCharClassify@@@Z 10008ee0 f   Document.obj
 0001:00007f70       ?GetLastChild@Document@@QAEHHH@Z 10008f70 f   Document.obj
 0001:00008030       ??0Document@@QAE@XZ        10009030 f   Document.obj
 0001:00008220       ?FindText@Document@@QAEJHHPBD_N111HPAHPAVCaseFolder@@@Z 10009220 f   Document.obj
 0001:00008910       ??1?$SplitVector@PAVMarkerHandleSet@@@@QAE@XZ 10009910 f i Document.obj
 0001:00008910       ??1?$SplitVector@PAD@@QAE@XZ 10009910 f i Document.obj
 0001:00008930       ??0bad_alloc@std@@QAE@ABV01@@Z 10009930 f i Document.obj
 0001:00008950       ??_EDocument@@UAEPAXI@Z    10009950 f i Document.obj
 0001:00008950       ??_GDocument@@UAEPAXI@Z    10009950 f i Document.obj
 0001:00008980       ??_ECaseFolder@@UAEPAXI@Z  10009980 f i Document.obj
 0001:00008980       ??_GCaseFolderTable@@UAEPAXI@Z 10009980 f i Document.obj
 0001:00008980       ??_GCaseFolder@@UAEPAXI@Z  10009980 f i Document.obj
 0001:00008980       ??_ECaseFolderTable@@UAEPAXI@Z 10009980 f i Document.obj
 0001:000089b0       ??_EBuiltinRegex@@UAEPAXI@Z 100099b0 f i Document.obj
 0001:000089b0       ??_GBuiltinRegex@@UAEPAXI@Z 100099b0 f i Document.obj
 0001:00008a30       ?allocate@?$allocator@D@std@@QAEPADI@Z 10009a30 f i Document.obj
 0001:00008a80       ??_ELineMarkers@@UAEPAXI@Z 10009a80 f i Document.obj
 0001:00008a80       ??_GLineMarkers@@UAEPAXI@Z 10009a80 f i Document.obj
 0001:00008ab0       ??_GLineState@@UAEPAXI@Z   10009ab0 f i Document.obj
 0001:00008ab0       ??_ELineState@@UAEPAXI@Z   10009ab0 f i Document.obj
 0001:00008ae0       ??_ELineAnnotation@@UAEPAXI@Z 10009ae0 f i Document.obj
 0001:00008ae0       ??_GLineAnnotation@@UAEPAXI@Z 10009ae0 f i Document.obj
 0001:00008b10       ??_GLineLevels@@UAEPAXI@Z  10009b10 f i Document.obj
 0001:00008b10       ??_ELineLevels@@UAEPAXI@Z  10009b10 f i Document.obj
 0001:00008b40       ?reserve@?$vector@DV?$allocator@D@std@@@std@@QAEXI@Z 10009b40 f i Document.obj
 0001:00008bb0       ?_Reserve@?$vector@DV?$allocator@D@std@@@std@@IAEXI@Z 10009bb0 f i Document.obj
 0001:00008c10       ?resize@?$vector@DV?$allocator@D@std@@@std@@QAEXI@Z 10009c10 f i Document.obj
 0001:00008c80       ??AAccessor@@QAEDH@Z       10009c80 f i DocumentAccessor.obj
 0001:00008cc0       ?SafeGetCharAt@Accessor@@QAEDHD@Z 10009cc0 f i DocumentAccessor.obj
 0001:00008d10       ??_EAccessor@@UAEPAXI@Z    10009d10 f i DocumentAccessor.obj
 0001:00008d10       ??_GAccessor@@UAEPAXI@Z    10009d10 f i DocumentAccessor.obj
 0001:00008d40       ??1DocumentAccessor@@UAE@XZ 10009d40 f   DocumentAccessor.obj
 0001:00008d50       ?InternalIsLeadByte@DocumentAccessor@@MAE_ND@Z 10009d50 f   DocumentAccessor.obj
 0001:00008d80       ?Fill@DocumentAccessor@@MAEXH@Z 10009d80 f   DocumentAccessor.obj
 0001:00008e40       ?Match@DocumentAccessor@@UAE_NHPBD@Z 10009e40 f   DocumentAccessor.obj
 0001:00008ec0       ?StyleAt@DocumentAccessor@@UAEDH@Z 10009ec0 f   DocumentAccessor.obj
 0001:00008ef0       ?GetLine@DocumentAccessor@@UAEHH@Z 10009ef0 f   DocumentAccessor.obj
 0001:00008f00       ?LineStart@DocumentAccessor@@UAEHH@Z 10009f00 f   DocumentAccessor.obj
 0001:00008f10       ?LevelAt@DocumentAccessor@@UAEHH@Z 10009f10 f   DocumentAccessor.obj
 0001:00008f20       ?Length@DocumentAccessor@@UAEHXZ 10009f20 f   DocumentAccessor.obj
 0001:00008f50       ?GetLineState@DocumentAccessor@@UAEHH@Z 10009f50 f   DocumentAccessor.obj
 0001:00008f60       ?SetLineState@DocumentAccessor@@UAEHHH@Z 10009f60 f   DocumentAccessor.obj
 0001:00008f70       ?StartAt@DocumentAccessor@@UAEXID@Z 10009f70 f   DocumentAccessor.obj
 0001:00008fa0       ?StartSegment@DocumentAccessor@@UAEXI@Z 10009fa0 f   DocumentAccessor.obj
 0001:00008fb0       ?ColourTo@DocumentAccessor@@UAEXIH@Z 10009fb0 f   DocumentAccessor.obj
 0001:00009090       ?SetLevel@DocumentAccessor@@UAEXHH@Z 1000a090 f   DocumentAccessor.obj
 0001:000090a0       ?Flush@DocumentAccessor@@UAEXXZ 1000a0a0 f   DocumentAccessor.obj
 0001:000090f0       ?IndentAmount@DocumentAccessor@@UAEHHPAHP6A_NAAVAccessor@@HH@Z@Z 1000a0f0 f   DocumentAccessor.obj
 0001:000092a0       ?IndicatorFill@DocumentAccessor@@UAEXHHHH@Z 1000a2a0 f   DocumentAccessor.obj
 0001:000092e0       ??3@YAXPAX0@Z              1000a2e0 f i Editor.obj
 0001:000092f0       ?compare@?$char_traits@D@std@@SAHPBD0I@Z 1000a2f0 f i Editor.obj
 0001:00009370       ??1DocWatcher@@UAE@XZ      1000a370 f i Editor.obj
 0001:00009380       ??_EDocWatcher@@UAEPAXI@Z  1000a380 f i Editor.obj
 0001:00009380       ??_GDocWatcher@@UAEPAXI@Z  1000a380 f i Editor.obj
 0001:000093b0       ??0SelectionPosition@@QAE@HH@Z 1000a3b0 f i Editor.obj
 0001:000093d0       ??0SelectionSegment@@QAE@VSelectionPosition@@0@Z 1000a3d0 f i Editor.obj
 0001:00009440       ?Start@SelectionRange@@QBE?AVSelectionPosition@@XZ 1000a440 f i Editor.obj
 0001:00009470       ?End@SelectionRange@@QBE?AVSelectionPosition@@XZ 1000a470 f i Editor.obj
 0001:00009520       ??0Caret@@QAE@XZ           1000a520 f   Editor.obj
 0001:00009530       ??0Timer@@QAE@XZ           1000a530 f   Editor.obj
 0001:00009540       ??0Idler@@QAE@XZ           1000a540 f   Editor.obj
 0001:00009560       ?Finalise@Editor@@MAEXXZ   1000a560 f   Editor.obj
 0001:00009580       ?DropGraphics@Editor@@IAEXXZ 1000a580 f   Editor.obj
 0001:000095d0       ?InvalidateStyleData@Editor@@IAEXXZ 1000a5d0 f   Editor.obj
 0001:00009640       ?RefreshColourPalette@Editor@@MAEXAAVPalette@@_N@Z 1000a640 f   Editor.obj
 0001:00009650       ?GetClientRectangle@Editor@@MAE?AVPRectangle@@XZ 1000a650 f   Editor.obj
 0001:00009670       ?GetTextRectangle@Editor@@IAE?AVPRectangle@@XZ 1000a670 f   Editor.obj
 0001:000096a0       ?LinesOnScreen@Editor@@IAEHXZ 1000a6a0 f   Editor.obj
 0001:000096d0       ?LinesToScroll@Editor@@IAEHXZ 1000a6d0 f   Editor.obj
 0001:00009710       ?MaxScrollPos@Editor@@IAEHXZ 1000a710 f   Editor.obj
 0001:00009770       ?ControlCharacterString@@YAPBDE@Z 1000a770 f   Editor.obj
 0001:00009880       ?ClampPositionIntoDocument@Editor@@IBE?AVSelectionPosition@@V2@@Z 1000a880 f   Editor.obj
 0001:00009910       ?XFromPosition@Editor@@IAEHVSelectionPosition@@@Z 1000a910 f   Editor.obj
 0001:00009950       ?LineFromLocation@Editor@@IAEHVPoint@@@Z 1000a950 f   Editor.obj
 0001:00009980       ?SetTopLine@Editor@@IAEXH@Z 1000a980 f   Editor.obj
 0001:000099c0       ?AbandonPaint@Editor@@IAE_NXZ 1000a9c0 f   Editor.obj
 0001:000099f0       ?RedrawRect@Editor@@IAEXVPRectangle@@@Z 1000a9f0 f   Editor.obj
 0001:00009a70       ?Redraw@Editor@@IAEXXZ     1000aa70 f   Editor.obj
 0001:00009ab0       ?RectangleFromRange@Editor@@IAE?AVPRectangle@@HH@Z 1000aab0 f   Editor.obj
 0001:00009bb0       ?InvalidateRange@Editor@@IAEXHH@Z 1000abb0 f   Editor.obj
 0001:00009c00       ?CurrentPosition@Editor@@IAEHXZ 1000ac00 f   Editor.obj
 0001:00009c10       ?SelectionEmpty@Editor@@IAE_NXZ 1000ac10 f   Editor.obj
 0001:00009c20       ?SelectionStart@Editor@@IAE?AVSelectionPosition@@XZ 1000ac20 f   Editor.obj
 0001:00009c60       ?SelectionEnd@Editor@@IAE?AVSelectionPosition@@XZ 1000ac60 f   Editor.obj
 0001:00009ca0       ?InvalidateSelection@Editor@@IAEXUSelectionRange@@_N@Z 1000aca0 f   Editor.obj
 0001:00009ea0       ?RangeContainsProtected@Editor@@IBE_NHH@Z 1000aea0 f   Editor.obj
 0001:00009f20       ?SelectionContainsProtected@Editor@@IAE_NXZ 1000af20 f   Editor.obj
 0001:00009fe0       ?MovePositionOutsideChar@Editor@@IBE?AVSelectionPosition@@V2@H_N@Z 1000afe0 f   Editor.obj
 0001:0000a150       ?MovePositionSoVisible@Editor@@IAE?AVSelectionPosition@@V2@H@Z 1000b150 f   Editor.obj
 0001:0000a250       ?MovePositionSoVisible@Editor@@IAE?AVSelectionPosition@@HH@Z 1000b250 f   Editor.obj
 0001:0000a270       ?ScrollText@Editor@@MAEXH@Z 1000b270 f   Editor.obj
 0001:0000a2c0       ?HorizontalScrollTo@Editor@@IAEXH@Z 1000b2c0 f   Editor.obj
 0001:0000a330       ?InvalidateCaret@Editor@@IAEXXZ 1000b330 f   Editor.obj
 0001:0000a420       ?UpdateSystemCaret@Editor@@MAEXXZ 1000b420 f   Editor.obj
 0001:0000a430       ?NeedWrapping@Editor@@IAEXHH@Z 1000b430 f   Editor.obj
 0001:0000a4d0       ?LinesJoin@Editor@@IAEXXZ  1000b4d0 f   Editor.obj
 0001:0000a5e0       ?StringFromEOLMode@Editor@@KAPBDH@Z 1000b5e0 f   Editor.obj
 0001:0000a610       ?SubstituteMarkerIfEmpty@Editor@@IAEHHH@Z 1000b610 f   Editor.obj
 0001:0000a640       ?ValidStyledText@@YA_NAAVViewStyle@@IABUStyledText@@@Z 1000b640 f   Editor.obj
 0001:0000a7e0       ?DrawStyledText@@YAXPAVSurface@@AAVViewStyle@@HVPRectangle@@HABUStyledText@@II@Z 1000b7e0 f   Editor.obj
 0001:0000a950       ?PaintSelMargin@Editor@@IAEXPAVSurface@@AAVPRectangle@@@Z 1000b950 f   Editor.obj
 0001:0000b150       ?DrawTabArrow@@YAXPAVSurface@@VPRectangle@@H@Z 1000c150 f   Editor.obj
 0001:0000b1f0       ?RetrieveLineLayout@Editor@@IAEPAVLineLayout@@H@Z 1000c1f0 f   Editor.obj
 0001:0000b2a0       ?BadUTF@@YA_NPBDHAAH@Z     1000c2a0 f   Editor.obj
 0001:0000b3d0       ?SelectionBackground@Editor@@IAE?AVColourAllocated@@AAVViewStyle@@_N@Z 1000c3d0 f   Editor.obj
 0001:0000b430       ?TextBackground@Editor@@IAE?AVColourAllocated@@AAVViewStyle@@_NV2@H1HHPAVLineLayout@@@Z 1000c430 f   Editor.obj
 0001:0000b550       ?DrawIndentGuide@Editor@@IAEXPAVSurface@@HHHVPRectangle@@_N@Z 1000c550 f   Editor.obj
 0001:0000b670       ?DrawTextBlob@@YAXPAVSurface@@AAVViewStyle@@VPRectangle@@PBDVColourAllocated@@4_N@Z 1000c670 f   Editor.obj
 0001:0000b7b0       ?DrawIndicators@Editor@@IAEXPAVSurface@@AAVViewStyle@@HHVPRectangle@@PAVLineLayout@@HH_N@Z 1000c7b0 f   Editor.obj
 0001:0000b9f0       ?DrawAnnotation@Editor@@IAEXPAVSurface@@AAVViewStyle@@HHVPRectangle@@PAVLineLayout@@H@Z 1000c9f0 f   Editor.obj
 0001:0000bcd0       ?ReconfigureScrollBars@Editor@@MAEXXZ 1000ccd0 f   Editor.obj
 0001:0000bce0       ?AddChar@Editor@@IAEXD@Z   1000cce0 f   Editor.obj
 0001:0000bd00       ?FilterSelections@Editor@@IAEXXZ 1000cd00 f   Editor.obj
 0001:0000bd90       ?ClearDocumentStyle@Editor@@IAEXXZ 1000cd90 f   Editor.obj
 0001:0000be30       ?CanPaste@Editor@@MAE_NXZ  1000ce30 f   Editor.obj
 0001:0000be60       ?NotifyFocus@Editor@@MAEX_N@Z 1000ce60 f   Editor.obj
 0001:0000be70       ?NotifyStyleToNeeded@Editor@@MAEXH@Z 1000ce70 f   Editor.obj
 0001:0000bec0       ?NotifyStyleNeeded@Editor@@MAEXPAVDocument@@PAXH@Z 1000cec0 f   Editor.obj
 0001:0000bee0       ?NotifyChar@Editor@@IAEXH@Z 1000cee0 f   Editor.obj
 0001:0000bf30       ?NotifySavePoint@Editor@@IAEX_N@Z 1000cf30 f   Editor.obj
 0001:0000bf90       ?NotifyModifyAttempt@Editor@@IAEXXZ 1000cf90 f   Editor.obj
 0001:0000bfe0       ?NotifyHotSpotDoubleClicked@Editor@@IAEXH_N00@Z 1000cfe0 f   Editor.obj
 0001:0000c060       ?NotifyHotSpotClicked@Editor@@IAEXH_N00@Z 1000d060 f   Editor.obj
 0001:0000c0e0       ?NotifyUpdateUI@Editor@@IAEXXZ 1000d0e0 f   Editor.obj
 0001:0000c130       ?NotifyPainted@Editor@@IAEXXZ 1000d130 f   Editor.obj
 0001:0000c180       ?NotifyIndicatorClick@Editor@@IAEX_NH000@Z 1000d180 f   Editor.obj
 0001:0000c240       ?NotifyMarginClick@Editor@@IAE_NVPoint@@_N11@Z 1000d240 f   Editor.obj
 0001:0000c390       ?NotifyNeedShown@Editor@@IAEXHH@Z 1000d390 f   Editor.obj
 0001:0000c3f0       ?NotifyZoom@Editor@@IAEXXZ 1000d3f0 f   Editor.obj
 0001:0000c440       ?NotifyModifyAttempt@Editor@@MAEXPAVDocument@@PAX@Z 1000d440 f   Editor.obj
 0001:0000c490       ?NotifySavePoint@Editor@@MAEXPAVDocument@@PAX_N@Z 1000d490 f   Editor.obj
 0001:0000c520       ?NotifyDeleted@Editor@@MAEXPAVDocument@@PAX@Z 1000d520 f   Editor.obj
 0001:0000c530       ?NotifyMacroRecord@Editor@@IAEXIKJ@Z 1000d530 f   Editor.obj
 0001:0000c750       ?CancelModes@Editor@@MAEXXZ 1000d750 f   Editor.obj
 0001:0000c760       ?KeyDefault@Editor@@MAEHHH@Z 1000d760 f   Editor.obj
 0001:0000c770       ?SetWhitespaceVisible@Editor@@IAEXH@Z 1000d770 f   Editor.obj
 0001:0000c780       ?GetWhitespaceVisible@Editor@@IAEHXZ 1000d780 f   Editor.obj
 0001:0000c790       ?Indent@Editor@@IAEX_N@Z   1000d790 f   Editor.obj
 0001:0000cd50       ?CaseFolderForEncoding@Editor@@MAEPAVCaseFolder@@XZ 1000dd50 f   Editor.obj
 0001:0000cdc0       ?SearchAnchor@Editor@@IAEXXZ 1000ddc0 f   Editor.obj
 0001:0000ce30       ?CopyRange@Editor@@IAEPADHH@Z 1000de30 f   Editor.obj
 0001:0000cea0       ?SetDragPosition@Editor@@IAEXVSelectionPosition@@@Z 1000dea0 f   Editor.obj
 0001:0000cf30       ?DisplayCursor@Editor@@MAEXW4Cursor@Window@@@Z 1000df30 f   Editor.obj
 0001:0000cf60       ?DragThreshold@Editor@@MAE_NVPoint@@0@Z 1000df60 f   Editor.obj
 0001:0000cf90       ?StartDrag@Editor@@MAEXXZ  1000df90 f   Editor.obj
 0001:0000cfa0       ?PointInSelMargin@Editor@@IAE_NVPoint@@@Z 1000dfa0 f   Editor.obj
 0001:0000d030       ?PositionIsHotspot@Editor@@IAE_NH@Z 1000e030 f   Editor.obj
 0001:0000d070       ?GetHotSpotRange@Editor@@IAEXAAH0@Z 1000e070 f   Editor.obj
 0001:0000d090       ?PositionAfterArea@Editor@@IAEHVPRectangle@@@Z 1000e090 f   Editor.obj
 0001:0000d100       ?StyleToPositionInView@Editor@@IAEXH@Z 1000e100 f   Editor.obj
 0001:0000d1e0       ?IdleStyling@Editor@@IAEXXZ 1000e1e0 f   Editor.obj
 0001:0000d270       ?QueueStyling@Editor@@MAEXH@Z 1000e270 f   Editor.obj
 0001:0000d290       ?PaintContains@Editor@@MAE_NVPRectangle@@@Z 1000e290 f   Editor.obj
 0001:0000d2f0       ?PaintContainsMargin@Editor@@IAE_NXZ 1000e2f0 f   Editor.obj
 0001:0000d340       ?CheckForChangeOutsidePaint@Editor@@IAEXVRange@@@Z 1000e340 f   Editor.obj
 0001:0000d3f0       ?SetBraceHighlight@Editor@@IAEXHHH@Z 1000e3f0 f   Editor.obj
 0001:0000d4d0       ?SetAnnotationHeights@Editor@@IAEXHH@Z 1000e4d0 f   Editor.obj
 0001:0000d520       ?SetAnnotationVisible@Editor@@IAEXH@Z 1000e520 f   Editor.obj
 0001:0000d5c0       ?Expand@Editor@@IAEXAAH_N@Z 1000e5c0 f   Editor.obj
 0001:0000d650       ?GetTag@Editor@@IAEHPADH@Z 1000e650 f   Editor.obj
 0001:0000d6d0       ?ReplaceTarget@Editor@@IAEH_NPBDH@Z 1000e6d0 f   Editor.obj
 0001:0000d7f0       ?IsUnicodeMode@Editor@@QBE_NXZ 1000e7f0 f   Editor.obj
 0001:0000d810       ?CodePage@Editor@@IBEHXZ   1000e810 f   Editor.obj
 0001:0000d850       ?StyleGetMessage@Editor@@IAEJIKJ@Z 1000e850 f   Editor.obj
 0001:0000da00       ?StringResult@Editor@@KAJJPBD@Z 1000ea00 f   Editor.obj
 0001:0000da30       ?InvalidateStyleRedraw@Editor@@IAEXXZ 1000ea30 f   Editor.obj
 0001:0000da90       ?RedrawSelMargin@Editor@@IAEXH_N@Z 1000ea90 f   Editor.obj
 0001:0000db40       ?MovePositionOutsideChar@Editor@@IBEHHH_N@Z 1000eb40 f   Editor.obj
 0001:0000db70       ?ScrollTo@Editor@@IAEXH_N@Z 1000eb70 f   Editor.obj
 0001:0000dca0       ?ShowCaretAtCurrentPosition@Editor@@IAEXXZ 1000eca0 f   Editor.obj
 0001:0000dcf0       ?DropCaret@Editor@@IAEXXZ  1000ecf0 f   Editor.obj
 0001:0000dd00       ?LayoutLine@Editor@@IAEXHPAVSurface@@AAVViewStyle@@PAVLineLayout@@H@Z 1000ed00 f   Editor.obj
 0001:0000e770       ?DrawWrapMarker@Editor@@IAEXPAVSurface@@VPRectangle@@_NVColourAllocated@@@Z 1000f770 f   Editor.obj
 0001:0000e8b0       ?DrawEOL@Editor@@IAEXPAVSurface@@AAVViewStyle@@VPRectangle@@PAVLineLayout@@HHHHH_NVColourAllocated@@45@Z 1000f8b0 f   Editor.obj
 0001:0000f1e0       ?DrawLine@Editor@@IAEXPAVSurface@@AAVViewStyle@@HHHVPRectangle@@PAVLineLayout@@H@Z 100101e0 f   Editor.obj
 0001:00010b10       ?DrawBlockCaret@Editor@@IAEXPAVSurface@@AAVViewStyle@@PAVLineLayout@@HHHHVPRectangle@@VColourAllocated@@@Z 10011b10 f   Editor.obj
 0001:00010cc0       ?RefreshPixMaps@Editor@@IAEXPAVSurface@@@Z 10011cc0 f   Editor.obj
 0001:00010f70       ?DrawCarets@Editor@@IAEXPAVSurface@@AAVViewStyle@@HHVPRectangle@@PAVLineLayout@@H@Z 10011f70 f   Editor.obj
 0001:00011270       ?InvertedLight@@YA?AVColourDesired@@V1@@Z 10012270 f   Editor.obj
 0001:00011330       ?FormatRange@Editor@@IAEJ_NPAUSci_RangeToFormat@@@Z 10012330 f   Editor.obj
 0001:00011b40       ?ClearAll@Editor@@IAEXXZ   10012b40 f   Editor.obj
 0001:00011c90       ?DelChar@Editor@@IAEXXZ    10012c90 f   Editor.obj
 0001:00011d10       ?CheckModificationForWrap@Editor@@IAEXVDocModification@@@Z 10012d10 f   Editor.obj
 0001:00011da0       ?FindText@Editor@@IAEJKJ@Z 10012da0 f   Editor.obj
 0001:00011e80       ?SearchInTarget@Editor@@IAEJPBDH@Z 10012e80 f   Editor.obj
 0001:00011f60       ?PositionInSelection@Editor@@IAE_NH@Z 10012f60 f   Editor.obj
 0001:00011fe0       ?SetFocusState@Editor@@IAEX_N@Z 10012fe0 f   Editor.obj
 0001:00012040       ?WrapCount@Editor@@IAEHH@Z 10013040 f   Editor.obj
 0001:00012130       ?StyleSetMessage@Editor@@IAEXIKJ@Z 10013130 f   Editor.obj
 0001:00012340       ??0Editor@@IAE@XZ          10013340 f   Editor.obj
 0001:00012730       ??1Editor@@MAE@XZ          10013730 f   Editor.obj
 0001:000128e0       ?SPositionFromLocation@Editor@@IAE?AVSelectionPosition@@VPoint@@_N11@Z 100138e0 f   Editor.obj
 0001:00012cf0       ?PositionFromLocation@Editor@@IAEHVPoint@@_N1@Z 10013cf0 f   Editor.obj
 0001:00012d20       ?SPositionFromLineX@Editor@@IAE?AVSelectionPosition@@HH@Z 10013d20 f   Editor.obj
 0001:00012f40       ?SetRectangularRange@Editor@@IAEXXZ 10013f40 f   Editor.obj
 0001:000130a0       ?ThinRectangularRange@Editor@@IAEXXZ 100140a0 f   Editor.obj
 0001:00013160       ?SetSelection@Editor@@IAEXVSelectionPosition@@0@Z 10014160 f   Editor.obj
 0001:00013240       ?SetSelection@Editor@@IAEXHH@Z 10014240 f   Editor.obj
 0001:00013260       ?SetSelection@Editor@@IAEXVSelectionPosition@@@Z 10014260 f   Editor.obj
 0001:00013370       ?SetSelection@Editor@@IAEXH@Z 10014370 f   Editor.obj
 0001:00013390       ?SetEmptySelection@Editor@@IAEXVSelectionPosition@@@Z 10014390 f   Editor.obj
 0001:00013460       ?SetEmptySelection@Editor@@IAEXH@Z 10014460 f   Editor.obj
 0001:00013480       ?DisplayFromPosition@Editor@@IAEHH@Z 10014480 f   Editor.obj
 0001:00013580       ?WrapOneLine@Editor@@IAE_NPAVSurface@@H@Z 10014580 f   Editor.obj
 0001:00013650       ?LinesSplit@Editor@@IAEXH@Z 10014650 f   Editor.obj
 0001:00013870       ?ClearSelection@Editor@@IAEXXZ 10014870 f   Editor.obj
 0001:00013a40       ?Cut@Editor@@IAEXXZ        10014a40 f   Editor.obj
 0001:00013a80       ?SelectAll@Editor@@IAEXXZ  10014a80 f   Editor.obj
 0001:00013af0       ?DelCharBack@Editor@@IAEX_N@Z 10014af0 f   Editor.obj
 0001:00013e30       ?NotifyDoubleClick@Editor@@MAEXVPoint@@_N11@Z 10014e30 f   Editor.obj
 0001:00013ee0       ?NotifyDwelling@Editor@@IAEXVPoint@@_N@Z 10014ee0 f   Editor.obj
 0001:00013f60       ?Duplicate@Editor@@IAEX_N@Z 10014f60 f   Editor.obj
 0001:00014290       ?SearchText@Editor@@IAEJIKJ@Z 10015290 f   Editor.obj
 0001:000143d0       ?CopyRangeToClipboard@Editor@@IAEXHH@Z 100153d0 f   Editor.obj
 0001:000144c0       ?CopyText@Editor@@IAEXHPBD@Z 100154c0 f   Editor.obj
 0001:00014590       ?PointInSelection@Editor@@IAE_NVPoint@@@Z 10015590 f   Editor.obj
 0001:000146b0       ?LineSelection@Editor@@IAEXHH@Z 100156b0 f   Editor.obj
 0001:00014730       ?DwellEnd@Editor@@IAEX_N@Z 10015730 f   Editor.obj
 0001:00014790       ?PointIsHotspot@Editor@@IAE_NVPoint@@@Z 10015790 f   Editor.obj
 0001:00014800       ?SetHotSpotRange@Editor@@IAEXPAVPoint@@@Z 10015800 f   Editor.obj
 0001:00014960       ?AddStyledText@Editor@@IAEXPADH@Z 10015960 f   Editor.obj
 0001:00014a10       ?SetScrollBars@Editor@@IAEXXZ 10015a10 f   Editor.obj
 0001:00014bf0       ?ChangeSize@Editor@@IAEXXZ 10015bf0 f   Editor.obj
 0001:00014cc0       ?NotifyModified@Editor@@MAEXPAVDocument@@VDocModification@@PAX@Z 10015cc0 f   Editor.obj
 0001:00015180       ?KeyDown@Editor@@IAEHH_N00PA_N@Z 10016180 f   Editor.obj
 0001:00015240       ?MouseLeave@Editor@@IAEXXZ 10016240 f   Editor.obj
 0001:000152b0       ?ButtonDown@Editor@@MAEXVPoint@@I_N11@Z 100162b0 f   Editor.obj
 0001:00015940       ?SetDocPointer@Editor@@IAEXPAVDocument@@@Z 10016940 f   Editor.obj
 0001:00015aa0       ?RefreshStyleData@Editor@@IAEXXZ 10016aa0 f   Editor.obj
 0001:00015bc0       ?LocationFromPosition@Editor@@IAE?AVPoint@@VSelectionPosition@@@Z 10016bc0 f   Editor.obj
 0001:00015de0       ?LocationFromPosition@Editor@@IAE?AVPoint@@H@Z 10016de0 f   Editor.obj
 0001:00015e00       ?XFromPosition@Editor@@IAEHH@Z 10016e00 f   Editor.obj
 0001:00015e40       ?PositionFromLineX@Editor@@IAEHHH@Z 10016e40 f   Editor.obj
 0001:00015fd0       ?PointMainCaret@Editor@@IAE?AVPoint@@XZ 10016fd0 f   Editor.obj
 0001:00016010       ?SetLastXChosen@Editor@@IAEXXZ 10017010 f   Editor.obj
 0001:00016060       ?XYScrollToMakeVisible@Editor@@IAE?AUXYScrollPosition@1@_N00@Z 10017060 f   Editor.obj
 0001:00016500       ?SetXYScroll@Editor@@IAEXUXYScrollPosition@1@@Z 10017500 f   Editor.obj
 0001:00016600       ?EnsureCaretVisible@Editor@@IAEX_N00@Z 10017600 f   Editor.obj
 0001:00016640       ?WrapLines@Editor@@IAE_N_NH@Z 10017640 f   Editor.obj
 0001:00016970       ?Paint@Editor@@IAEXPAVSurface@@VPRectangle@@@Z 10017970 f   Editor.obj
 0001:000171d0       ?TextWidth@Editor@@IAEHHPBD@Z 100181d0 f   Editor.obj
 0001:00017290       ?Undo@Editor@@IAEXXZ       10018290 f   Editor.obj
 0001:000172f0       ?Redo@Editor@@IAEXXZ       100182f0 f   Editor.obj
 0001:00017350       ?NewLine@Editor@@IAEXXZ    10018350 f   Editor.obj
 0001:00017530       ?StartEndDisplayLine@Editor@@IAEHH_N@Z 10018530 f   Editor.obj
 0001:000176d0       ?GoToLine@Editor@@IAEXH@Z  100186d0 f   Editor.obj
 0001:00017770       ?ButtonUp@Editor@@IAEXVPoint@@I_N@Z 10018770 f   Editor.obj
 0001:00017be0       ?Idle@Editor@@IAE_NXZ      10018be0 f   Editor.obj
 0001:00017c20       ?EnsureLineVisible@Editor@@IAEXH_N@Z 10018c20 f   Editor.obj
 0001:00017ef0       ?MovePositionTo@Editor@@IAEHVSelectionPosition@@W4selTypes@Selection@@_N@Z 10018ef0 f   Editor.obj
 0001:00018150       ?MovePositionTo@Editor@@IAEHHW4selTypes@Selection@@_N@Z 10019150 f   Editor.obj
 0001:00018170       ?MoveCaretInsideView@Editor@@IAEX_N@Z 10019170 f   Editor.obj
 0001:00018260       ?PageMove@Editor@@IAEXHW4selTypes@Selection@@_N@Z 10019260 f   Editor.obj
 0001:000184f0       ?LineTranspose@Editor@@IAEXXZ 100194f0 f   Editor.obj
 0001:00018650       ?CursorUpOrDown@Editor@@IAEXHW4selTypes@Selection@@@Z 10019650 f   Editor.obj
 0001:00018840       ?ParaUpOrDown@Editor@@IAEXHW4selTypes@Selection@@@Z 10019840 f   Editor.obj
 0001:00018930       ?ToggleContraction@Editor@@IAEXH@Z 10019930 f   Editor.obj
 0001:00018ab0       ?InsertSpace@Editor@@IAEHHI@Z 10019ab0 f   Editor.obj
 0001:00018b60       ?AddCharUTF@Editor@@MAEXPADI_N@Z 10019b60 f   Editor.obj
 0001:00019120       ?InsertPaste@Editor@@IAEXVSelectionPosition@@PBDH@Z 1001a120 f   Editor.obj
 0001:00019320       ?PasteRectangular@Editor@@IAEXVSelectionPosition@@PBDH@Z 1001a320 f   Editor.obj
 0001:00019630       ?Clear@Editor@@IAEXXZ      1001a630 f   Editor.obj
 0001:000198b0       ?ChangeCaseOfSelection@Editor@@IAEXH@Z 1001a8b0 f   Editor.obj
 0001:00019c40       ?KeyCommand@Editor@@MAEHI@Z 1001ac40 f   Editor.obj
 0001:0001afd0       ?DropAt@Editor@@IAEXVSelectionPosition@@PBD_N2@Z 1001bfd0 f   Editor.obj
 0001:0001b380       ?CaseMapString@Editor@@MAE?AV?$basic_string@DU?$char_traits@D@std@@V?$allocator@D@2@@std@@ABV23@H@Z 1001c380 f   Editor.obj
 0001:0001b470       ?CopySelectionRange@Editor@@IAEXPAVSelectionText@@_N@Z 1001c470 f   Editor.obj
 0001:0001b7e0       ?ButtonMove@Editor@@IAEXVPoint@@@Z 1001c7e0 f   Editor.obj
 0001:0001bce0       ?Tick@Editor@@IAEXXZ       1001cce0 f   Editor.obj
 0001:0001bdd0       ?WndProc@Editor@@UAEJIKJ@Z 1001cdd0 f   Editor.obj
 0001:00020a20       ?CopyAllowLine@Editor@@MAEXXZ 10021a20 f   Editor.obj
 0001:00020aa0       ??1?$auto_ptr@VCaseFolder@@@std@@QAE@XZ 10021aa0 f i Editor.obj
 0001:00020aa0       ??1AutoSurface@@QAE@XZ     10021aa0 f i Editor.obj
 0001:00020ab0       ??1AutoLineLayout@@QAE@XZ  10021ab0 f i Editor.obj
 0001:00020ad0       ?Fold@CaseFolderASCII@@UAEIPADIPBDI@Z 10021ad0 f i Editor.obj
 0001:00020b10       ??_GCaseFolderASCII@@UAEPAXI@Z 10021b10 f i Editor.obj
 0001:00020b10       ??_ECaseFolderASCII@@UAEPAXI@Z 10021b10 f i Editor.obj
 0001:00020b40       ?_Chassign@?$basic_string@DU?$char_traits@D@std@@V?$allocator@D@2@@std@@QAEXIID@Z 10021b40 f i Editor.obj
 0001:00020b80       ??$_Push_heap@PAUSelectionRange@@HU1@@std@@YAXPAUSelectionRange@@HH$$QAU1@@Z 10021b80 f i Editor.obj
 0001:00020c30       ?Free@SelectionText@@QAEXXZ 10021c30 f i Editor.obj
 0001:00020c30       ??1SelectionText@@QAE@XZ   10021c30 f i Editor.obj
 0001:00020c60       ??0AutoSurface@@QAE@PAVEditor@@@Z 10021c60 f i Editor.obj
 0001:00020cf0       ??0AutoSurface@@QAE@PAXPAVEditor@@@Z 10021cf0 f i Editor.obj
 0001:00020d80       ?c_str@?$basic_string@DU?$char_traits@D@std@@V?$allocator@D@2@@std@@QBEPBDXZ 10021d80 f i Editor.obj
 0001:00020d90       ?compare@?$basic_string@DU?$char_traits@D@std@@V?$allocator@D@2@@std@@QBEHIIPBDI@Z 10021d90 f i Editor.obj
 0001:00020e00       ?erase@?$basic_string@DU?$char_traits@D@std@@V?$allocator@D@2@@std@@QAEAAV12@II@Z 10021e00 f i Editor.obj
 0001:00020e90       ?allocate@?$allocator@USelectionRange@@@std@@QAEPAUSelectionRange@@I@Z 10021e90 f i Editor.obj
 0001:00020ef0       ??$_Adjust_heap@PAUSelectionRange@@HU1@@std@@YAXPAUSelectionRange@@HH$$QAU1@@Z 10021ef0 f i Editor.obj
 0001:00020fd0       ?GetCtrlID@Editor@@MAEHXZ  10021fd0 f i Editor.obj
 0001:00020fe0       ?SetIdle@Editor@@MAE_N_N@Z 10021fe0 f i Editor.obj
 0001:00020ff0       ?ValidCodePage@Editor@@MBE_NH@Z 10021ff0 f i Editor.obj
 0001:00021000       ??1?$basic_string@DU?$char_traits@D@std@@V?$allocator@D@2@@std@@QAE@XZ 10022000 f i Editor.obj
 0001:00021030       ?_Buy@?$vector@USelectionRange@@V?$allocator@USelectionRange@@@std@@@std@@IAE_NI@Z 10022030 f i Editor.obj
 0001:00021080       ?_Copy@?$basic_string@DU?$char_traits@D@std@@V?$allocator@D@2@@std@@QAEXII@Z 10022080 f i Editor.obj
 0001:000211f0       ??$_Make_heap@PAUSelectionRange@@HU1@@std@@YAXPAUSelectionRange@@0PAH0@Z 100221f0 f i Editor.obj
 0001:00021330       ??$_Med3@PAUSelectionRange@@@std@@YAXPAUSelectionRange@@00@Z 10022330 f i Editor.obj
 0001:00021470       ??_GEditor@@MAEPAXI@Z      10022470 f i Editor.obj
 0001:00021470       ??_EEditor@@MAEPAXI@Z      10022470 f i Editor.obj
 0001:000214a0       ??$_Uninit_copy@V?$_Vector_const_iterator@V?$_Vector_val@USelectionRange@@V?$allocator@USelectionRange@@@std@@@std@@@std@@PAUSelectionRange@@V?$allocator@USelectionRange@@@2@@std@@YAPAUSelectionRange@@V?$_Vector_const_iterator@V?$_Vector_val@USelectionRange@@V?$allocator@USelectionRange@@@std@@@std@@@0@0PAU1@AAV?$allocator@USelectionRange@@@0@U_Nonscalar_ptr_iterator_tag@0@@Z 100224a0 f i Editor.obj
 0001:000214e0       ??$_Median@PAUSelectionRange@@@std@@YAXPAUSelectionRange@@00@Z 100224e0 f i Editor.obj
 0001:00021570       ??$_Insertion_sort1@PAUSelectionRange@@U1@@std@@YAXPAUSelectionRange@@00@Z 10022570 f i Editor.obj
 0001:000216a0       ?assign@?$basic_string@DU?$char_traits@D@std@@V?$allocator@D@2@@std@@QAEAAV12@ABV12@II@Z 100226a0 f i Editor.obj
 0001:00021790       ?assign@?$basic_string@DU?$char_traits@D@std@@V?$allocator@D@2@@std@@QAEAAV12@PBDI@Z 10022790 f i Editor.obj
 0001:00021890       ?assign@?$basic_string@DU?$char_traits@D@std@@V?$allocator@D@2@@std@@QAEAAV12@ID@Z 10022890 f i Editor.obj
 0001:00021950       ??$_Unguarded_partition@PAUSelectionRange@@@std@@YA?AU?$pair@PAUSelectionRange@@PAU1@@0@PAUSelectionRange@@0@Z 10022950 f i Editor.obj
 0001:00021d90       ??$_Sort_heap@PAUSelectionRange@@@std@@YAXPAUSelectionRange@@0@Z 10022d90 f i Editor.obj
 0001:00021e10       ?assign@?$basic_string@DU?$char_traits@D@std@@V?$allocator@D@2@@std@@QAEAAV12@$$QAV12@@Z 10022e10 f i Editor.obj
 0001:00021e90       ??1?$vector@DV?$allocator@D@std@@@std@@QAE@XZ 10022e90 f i Document.obj
 0001:00021e90       ?_Tidy@?$vector@USelectionRange@@V?$allocator@USelectionRange@@@std@@@std@@IAEXXZ 10022e90 f i Editor.obj
 0001:00021e90       ??1?$vector@_WV?$allocator@_W@std@@@std@@QAE@XZ 10022e90 f i ScintillaWin.obj
 0001:00021e90       ??1?$vector@USelectionRange@@V?$allocator@USelectionRange@@@std@@@std@@QAE@XZ 10022e90 f i Editor.obj
 0001:00021ec0       ??$_Sort@PAUSelectionRange@@H@std@@YAXPAUSelectionRange@@0H@Z 10022ec0 f i Editor.obj
 0001:00021f90       ??0?$vector@USelectionRange@@V?$allocator@USelectionRange@@@std@@@std@@QAE@ABV01@@Z 10022f90 f i Editor.obj
 0001:00022060       ?RangesCopy@Selection@@QBE?AV?$vector@USelectionRange@@V?$allocator@USelectionRange@@@std@@@std@@XZ 10023060 f i Editor.obj
 0001:00022080       ?DeleteWLStrings@@YAXQAPAD@Z 10023080 f   ExternalLexer.obj
 0001:000220b0       ?SetExternal@ExternalLexerModule@@UAEXP6GXIIHHQAPADPAXPAD@Z3H@Z 100230b0 f   ExternalLexer.obj
 0001:000220d0       ?Release@LexerLibrary@@QAEXXZ 100230d0 f   ExternalLexer.obj
 0001:00022110       ??0LexerManager@@AAE@XZ    10023110 f   ExternalLexer.obj
 0001:00022120       ?GetInstance@LexerManager@@SAPAV1@XZ 10023120 f   ExternalLexer.obj
 0001:00022160       ??1LexerLibrary@@QAE@XZ    10023160 f   ExternalLexer.obj
 0001:000221e0       ?Clear@LexerManager@@QAEXXZ 100231e0 f   ExternalLexer.obj
 0001:000222c0       ??1LexerManager@@QAE@XZ    100232c0 f   ExternalLexer.obj
 0001:000222d0       ?WordListsToStrings@@YAPAPADQAPAVWordList@@@Z 100232d0 f   ExternalLexer.obj
 0001:00022450       ?Lex@ExternalLexerModule@@UBEXIHHQAPAVWordList@@AAVAccessor@@@Z 10023450 f   ExternalLexer.obj
 0001:000224e0       ?Fold@ExternalLexerModule@@UBEXIHHQAPAVWordList@@AAVAccessor@@@Z 100234e0 f   ExternalLexer.obj
 0001:00022570       ??0LexerLibrary@@QAE@PBD@Z 10023570 f   ExternalLexer.obj
 0001:00022740       ?DeleteInstance@LexerManager@@SAXXZ 10023740 f   ExternalLexer.obj
 0001:00022770       ?LoadLexerLibrary@LexerManager@@AAEXPBD@Z 10023770 f   ExternalLexer.obj
 0001:00022830       ??1LMMinder@@QAE@XZ        10023830 f   ExternalLexer.obj
 0001:00022860       ?Load@LexerManager@@QAEXPBD@Z 10023860 f   ExternalLexer.obj
 0001:00022870       ??_GExternalLexerModule@@UAEPAXI@Z 10023870 f i ExternalLexer.obj
 0001:00022870       ??_EExternalLexerModule@@UAEPAXI@Z 10023870 f i ExternalLexer.obj
 0001:00022870       ??_GLexerModule@@UAEPAXI@Z 10023870 f i ExternalLexer.obj
 0001:00022870       ??_ELexerModule@@UAEPAXI@Z 10023870 f i ExternalLexer.obj
 0001:000228a0       ?append@?$basic_string@DU?$char_traits@D@std@@V?$allocator@D@2@@std@@QAEAAV12@ABV12@II@Z 100238a0 f i ExternalLexer.obj
 0001:00022990       ?append@?$basic_string@DU?$char_traits@D@std@@V?$allocator@D@2@@std@@QAEAAV12@PBDI@Z 10023990 f i ExternalLexer.obj
 0001:00022ab0       ?Draw@Indicator@@QAEXPAVSurface@@ABVPRectangle@@1@Z 10023ab0 f   Indicator.obj
 0001:00022d90       ?Clear@KeyMap@@QAEXXZ      10023d90 f   KeyMap.obj
 0001:00022db0       ?AssignCmdKey@KeyMap@@QAEXHHI@Z 10023db0 f   KeyMap.obj
 0001:00022ea0       ?Find@KeyMap@@QAEIHH@Z     10023ea0 f   KeyMap.obj
 0001:00022ef0       ??0KeyMap@@QAE@XZ          10023ef0 f   KeyMap.obj
 0001:00023020       ??1KeyMap@@QAE@XZ          10024020 f   KeyMap.obj
 0001:00023190       ?Clear@WordList@@QAEXXZ    10024190 f   KeyWords.obj
 0001:000231d0       ?Set@WordList@@QAEXPBD@Z   100241d0 f   KeyWords.obj
 0001:00023230       _cmpString                 10024230 f   KeyWords.obj
 0001:00023290       ?InList@WordList@@QAE_NPBD@Z 10024290 f   KeyWords.obj
 0001:000233b0       ?InListAbbreviated@WordList@@QAE_NPBDD@Z 100243b0 f   KeyWords.obj
 0001:00023500       ??0LexerModule@@QAE@HP6AXIHHQAPAVWordList@@AAVAccessor@@@ZPBD2QBQBDH@Z 10024500 f   KeyWords.obj
 0001:00023560       ?GetNumWordLists@LexerModule@@QBEHXZ 10024560 f   KeyWords.obj
 0001:00023580       ?GetWordListDescription@LexerModule@@QBEPBDH@Z 10024580 f   KeyWords.obj
 0001:000235c0       ?GetStyleBitsNeeded@LexerModule@@QBEHXZ 100245c0 f   KeyWords.obj
 0001:000235d0       ?Find@LexerModule@@SAPBV1@H@Z 100245d0 f   KeyWords.obj
 0001:000235f0       ?Find@LexerModule@@SAPBV1@PBD@Z 100245f0 f   KeyWords.obj
 0001:00023650       ?Lex@LexerModule@@UBEXIHHQAPAVWordList@@AAVAccessor@@@Z 10024650 f   KeyWords.obj
 0001:00023680       ?Fold@LexerModule@@UBEXIHHQAPAVWordList@@AAVAccessor@@@Z 10024680 f   KeyWords.obj
 0001:000236f0       _Scintilla_LinkLexers      100246f0 f   KeyWords.obj
 0001:00023940       ?wxForceScintillaLexers@@YAHXZ 10024940 f   KeyWords.obj
 0001:00024760       ?GetNextChar@StyleContext@@AAEXI@Z 10025760 f i LexAbaqus.obj
 0001:00024850       ??0StyleContext@@QAE@IIHAAVAccessor@@D@Z 10025850 f i LexAbaqus.obj
 0001:00024970       ?Complete@StyleContext@@QAEXXZ 10025970 f i LexAbaqus.obj
 0001:00024990       ?Forward@StyleContext@@QAEXXZ 10025990 f i LexAbaqus.obj
 0001:000249f0       ?SetState@StyleContext@@QAEXH@Z 100259f0 f i LexAbaqus.obj
 0001:00024a20       ?IsADigit@@YA_NI@Z         10025a20 f i LexAbaqus.obj
 0001:00025e50       ?ForwardSetState@StyleContext@@QAEXH@Z 10026e50 f i LexAda.obj
 0001:00025ed0       ?Match@StyleContext@@QBE_NDD@Z 10026ed0 f i LexAda.obj
 0001:00025f00       ?find@?$basic_string@DU?$char_traits@D@std@@V?$allocator@D@2@@std@@QBEIPBDII@Z 10026f00 f i LexAda.obj
 0001:00025fb0       ?append@?$basic_string@DU?$char_traits@D@std@@V?$allocator@D@2@@std@@QAEAAV12@ID@Z 10026fb0 f i LexAda.obj
 0001:000280e0       ?isoperator@@YA_ND@Z       100290e0 f i LexASY.obj
 0001:00028180       ??1CharacterSet@@QAE@XZ    10029180 f i LexASY.obj
 0001:000281a0       ?Contains@CharacterSet@@QBE_NH@Z 100291a0 f i LexASY.obj
 0001:000281d0       ??0CharacterSet@@QAE@W4setBase@0@PBDH_N@Z 100291d0 f i LexASY.obj
 0001:0002a250       ?isspacechar@@YA_NE@Z      1002b250 f i LexAU3.obj
 0001:0002abc0       ?iswordchar@@YA_ND@Z       1002bbc0 f i LexAVE.obj
 0001:0002ac00       ?isAveOperator@@YA_ND@Z    1002bc00 f i LexAVE.obj
 0001:0002b490       ?MatchIgnoreCase@StyleContext@@QAE_NPBD@Z 1002c490 f i LexBaan.obj
 0001:0002cb60       ?GetRelative@StyleContext@@QAEHH@Z 1002db60 f i LexBash.obj
 0001:0002cbc0       ?IsADigit@@YA_NII@Z        1002dbc0 f i LexBash.obj
 0001:0002e400       ?ColouriseCamlDoc@@YAXIHHQAPAVWordList@@AAVAccessor@@@Z 1002f400 f   LexCaml.obj
 0001:0002ec00       ?FoldCamlDoc@@YAXIHHQAPAVWordList@@AAVAccessor@@@Z 1002fc00 f   LexCaml.obj
 0001:0002ec10       ?issmlf@@YAHH@Z            1002fc10 f i LexSML.obj
 0001:0002ec10       ?iscamlf@@YAHH@Z           1002fc10 f i LexCaml.obj
 0001:000301d0       ??1WordList@@QAE@XZ        100311d0 f i LexCLW.obj
 0001:000301e0       ?IsAHexCharacter@@YA_NH_N@Z 100311e0 f i LexCLW.obj
 0001:00030220       ?IsANumericBaseCharacter@@YA_NH_N@Z 10031220 f i LexCLW.obj
 0001:00030260       ?SetNumericConstantState@@YA_NAAVStyleContext@@@Z 10031260 f i LexCLW.obj
 0001:000302e0       ?GetNextWordUpper@@YA_NAAVAccessor@@IHPAD@Z 100312e0 f i LexCLW.obj
 0001:00033840       ?Match@StyleContext@@QAE_NPBD@Z 10034840 f i LexCPP.obj
 0001:000338f0       ?IsASpaceOrTab@@YA_NI@Z    100348f0 f i LexCPP.obj
 0001:000356a0       ?IsCssOperator@@YA_NH@Z    100366a0 f i LexCSS.obj
 0001:00039ec0       ?Forward@StyleContext@@QAEXH@Z 1003aec0 f i LexFlagship.obj
 0001:0003a740       ?GetContinuedPos@@YAIIAAVAccessor@@@Z 1003b740 f   LexFortran.obj
 0001:00043760       ?IsOperator@@YA_NH@Z       10044760 f i LexHTML.obj
 0001:0004a720       ?isMMIXALOperator@@YA_ND@Z 1004b720 f i LexMMIXAL.obj
 0001:0004c2a0       ?MatchIgnoreCase@@YA_NAAVAccessor@@HPBD@Z 1004d2a0 f   LexMySQL.obj
 0001:0004ef70       ?HandleString@@YA_NAAIIAAVAccessor@@@Z 1004ff70 f i LexOpal.obj
 0001:0004f060       ?HandleCommentBlock@@YA_NAAIIAAVAccessor@@_N@Z 10050060 f i LexOpal.obj
 0001:0004f1a0       ?HandleCommentLine@@YA_NAAIIAAVAccessor@@_N@Z 100501a0 f i LexOpal.obj
 0001:0004f320       ?HandleSpace@@YA_NAAIIAAVAccessor@@@Z 10050320 f i LexOpal.obj
 0001:0004f3f0       ?HandleInteger@@YA_NAAIIAAVAccessor@@@Z 100503f0 f i LexOpal.obj
 0001:0004f4a0       ?HandleWord@@YA_NAAIIAAVAccessor@@QAPAVWordList@@@Z 100504a0 f i LexOpal.obj
 0001:00053e10       ?MatchUpperCase@@YA_NAAVAccessor@@HPBD@Z 10054e10 f   LexPB.obj
 0001:00062770       ?Open@QuoteCls@@QAEXD@Z    10063770 f i LexRuby.obj
 0001:00064220       ?ColouriseSMLDoc@@YAXIHHQAPAVWordList@@AAVAccessor@@@Z 10065220 f   LexSML.obj
 0001:000648a0       ?FoldSMLDoc@@YAXIHHQAPAVWordList@@AAVAccessor@@@Z 100658a0 f   LexSML.obj
 0001:000648b0       ?issmld@@YAHH@Z            100658b0 f i LexSML.obj
 0001:000670f0       ?isTACLoperator@@YA_ND@Z   100680f0 f i LexTACL.obj
 0001:00069e40       ?isTALoperator@@YA_ND@Z    1006ae40 f i LexTAL.obj
 0001:00070dd0       ?RefreshColourPalette@LineMarker@@QAEXAAVPalette@@_N@Z 10071dd0 f   LineMarker.obj
 0001:00070e10       ?SetXPM@LineMarker@@QAEXPBD@Z 10071e10 f   LineMarker.obj
 0001:00070ea0       ?SetXPM@LineMarker@@QAEXPBQBD@Z 10071ea0 f   LineMarker.obj
 0001:00071080       ?Draw@LineMarker@@QAEXPAVSurface@@AAVPRectangle@@AAVFont@@@Z 10072080 f   LineMarker.obj
 0001:00071be0       ??0MarkerHandleSet@@QAE@XZ 10072be0 f   PerLine.obj
 0001:00071bf0       ??1MarkerHandleSet@@QAE@XZ 10072bf0 f   PerLine.obj
 0001:00071c20       ?Length@MarkerHandleSet@@QBEHXZ 10072c20 f   PerLine.obj
 0001:00071c40       ?NumberFromHandle@MarkerHandleSet@@QBEHH@Z 10072c40 f   PerLine.obj
 0001:00071c70       ?MarkValue@MarkerHandleSet@@QBEHXZ 10072c70 f   PerLine.obj
 0001:00071ca0       ?Contains@MarkerHandleSet@@QBE_NH@Z 10072ca0 f   PerLine.obj
 0001:00071cd0       ?InsertHandle@MarkerHandleSet@@QAE_NHH@Z 10072cd0 f   PerLine.obj
 0001:00071d10       ?RemoveHandle@MarkerHandleSet@@QAEXH@Z 10072d10 f   PerLine.obj
 0001:00071d50       ?RemoveNumber@MarkerHandleSet@@QAE_NH@Z 10072d50 f   PerLine.obj
 0001:00071d90       ?CombineWith@MarkerHandleSet@@QAEXPAV1@@Z 10072d90 f   PerLine.obj
 0001:00071e30       ?LineFromHandle@LineMarkers@@QAEHH@Z 10072e30 f   PerLine.obj
 0001:00071ea0       ?MergeMarkers@LineMarkers@@QAEXH@Z 10072ea0 f   PerLine.obj
 0001:00071fe0       ?MarkValue@LineMarkers@@QAEHH@Z 10072fe0 f   PerLine.obj
 0001:00072050       ?DeleteMark@LineMarkers@@QAEXHH_N@Z 10073050 f   PerLine.obj
 0001:00072180       ?DeleteMarkFromHandle@LineMarkers@@QAEXH@Z 10073180 f   PerLine.obj
 0001:00072290       ??1LineLevels@@UAE@XZ      10073290 f   PerLine.obj
 0001:000722f0       ?GetLevel@LineLevels@@QAEHH@Z 100732f0 f   PerLine.obj
 0001:00072330       ??1LineState@@UAE@XZ       10073330 f   PerLine.obj
 0001:00072390       ?GetMaxLineState@LineState@@QAEHXZ 10073390 f   PerLine.obj
 0001:000723a0       ?AnySet@LineAnnotation@@QBE_NXZ 100733a0 f   PerLine.obj
 0001:000723b0       ?MultipleStyles@LineAnnotation@@QBE_NH@Z 100733b0 f   PerLine.obj
 0001:00072420       ?Style@LineAnnotation@@QAEHH@Z 10073420 f   PerLine.obj
 0001:00072480       ?Text@LineAnnotation@@QBEPBDH@Z 10073480 f   PerLine.obj
 0001:000724e0       ?Length@LineAnnotation@@QBEHH@Z 100734e0 f   PerLine.obj
 0001:00072540       ?Lines@LineAnnotation@@QBEHH@Z 10073540 f   PerLine.obj
 0001:000725a0       ?Init@LineMarkers@@UAEXXZ  100735a0 f   PerLine.obj
 0001:00072650       ?RemoveLine@LineMarkers@@UAEXH@Z 10073650 f   PerLine.obj
 0001:00072680       ?Init@LineLevels@@UAEXXZ   10073680 f   PerLine.obj
 0001:000726b0       ?RemoveLine@LineLevels@@UAEXH@Z 100736b0 f   PerLine.obj
 0001:00072770       ?ClearLevels@LineLevels@@QAEXXZ 10073770 f   PerLine.obj
 0001:000727a0       ?Init@LineState@@UAEXXZ    100737a0 f   PerLine.obj
 0001:000727d0       ?RemoveLine@LineState@@UAEXH@Z 100737d0 f   PerLine.obj
 0001:000727f0       ?RemoveLine@LineAnnotation@@UAEXH@Z 100737f0 f   PerLine.obj
 0001:00072840       ?Styles@LineAnnotation@@QBEPBEH@Z 10073840 f   PerLine.obj
 0001:000728c0       ?ClearAll@LineAnnotation@@QAEXXZ 100738c0 f   PerLine.obj
 0001:00072940       ??1LineMarkers@@UAE@XZ     10073940 f   PerLine.obj
 0001:000729b0       ?InsertLine@LineMarkers@@UAEXH@Z 100739b0 f   PerLine.obj
 0001:00072a00       ?AddMark@LineMarkers@@QAEHHHH@Z 10073a00 f   PerLine.obj
 0001:00072b10       ?InsertLine@LineLevels@@UAEXH@Z 10073b10 f   PerLine.obj
 0001:00072b90       ?ExpandLevels@LineLevels@@QAEXH@Z 10073b90 f   PerLine.obj
 0001:00072bf0       ?SetLevel@LineLevels@@QAEHHHH@Z 10073bf0 f   PerLine.obj
 0001:00072c60       ?InsertLine@LineState@@UAEXH@Z 10073c60 f   PerLine.obj
 0001:00072cb0       ?SetLineState@LineState@@QAEHHH@Z 10073cb0 f   PerLine.obj
 0001:00072d10       ?GetLineState@LineState@@QAEHH@Z 10073d10 f   PerLine.obj
 0001:00072d50       ??1LineAnnotation@@UAE@XZ  10073d50 f   PerLine.obj
 0001:00072dc0       ?Init@LineAnnotation@@UAEXXZ 10073dc0 f   PerLine.obj
 0001:00072dd0       ?InsertLine@LineAnnotation@@UAEXH@Z 10073dd0 f   PerLine.obj
 0001:00072e20       ?SetText@LineAnnotation@@QAEXHPBD@Z 10073e20 f   PerLine.obj
 0001:00072ff0       ?SetStyle@LineAnnotation@@QAEXHH@Z 10073ff0 f   PerLine.obj
 0001:00073080       ?SetStyles@LineAnnotation@@QAEXHPBE@Z 10074080 f   PerLine.obj
 0001:00073200       ??A?$SplitVector@PAVMarkerHandleSet@@@@QBEAAPAVMarkerHandleSet@@H@Z 10074200 f i PerLine.obj
 0001:00073230       ?GapTo@?$SplitVector@PAD@@IAEXH@Z 10074230 f i PerLine.obj
 0001:00073230       ?GapTo@?$SplitVector@H@@IAEXH@Z 10074230 f i CellBuffer.obj
 0001:00073230       ?GapTo@?$SplitVector@PAVMarkerHandleSet@@@@IAEXH@Z 10074230 f i PerLine.obj
 0001:000732a0       ?Delete@?$SplitVector@PAD@@QAEXH@Z 100742a0 f i PerLine.obj
 0001:000732a0       ?Delete@?$SplitVector@H@@QAEXH@Z 100742a0 f i CellBuffer.obj
 0001:000732a0       ?Delete@?$SplitVector@PAVMarkerHandleSet@@@@QAEXH@Z 100742a0 f i PerLine.obj
 0001:00073310       ?EnsureLength@?$SplitVector@PAD@@QAEXH@Z 10074310 f i PerLine.obj
 0001:00073310       ?EnsureLength@?$SplitVector@H@@QAEXH@Z 10074310 f i PerLine.obj
 0001:00073370       ??_ESurface@@UAEPAXI@Z     10074370 f i PlatWin.obj
 0001:00073370       ??_GSurface@@UAEPAXI@Z     10074370 f i PlatWin.obj
 0001:000733a0       ??_GDynamicLibrary@@UAEPAXI@Z 100743a0 f i PlatWin.obj
 0001:000733a0       ??_EDynamicLibrary@@UAEPAXI@Z 100743a0 f i PlatWin.obj
 0001:000733f0       ?IsNT@@YA_NXZ              100743f0 f   PlatWin.obj
 0001:00073400       ?FromLong@Point@@SA?AV1@J@Z 10074400 f   PlatWin.obj
 0001:00073440       ?Allocate@Palette@@QAEXAAVWindow@@@Z 10074440 f   PlatWin.obj
 0001:000735e0       ?SameAs@FontCached@@AAE_NPBDHH_N1H@Z 100745e0 f   PlatWin.obj
 0001:00073690       ?Release@FontCached@@EAEXXZ 10074690 f   PlatWin.obj
 0001:000736b0       ?ReleaseId@FontCached@@SAXPAX@Z 100746b0 f   PlatWin.obj
 0001:00073720       ??0Font@@QAE@XZ            10074720 f   PlatWin.obj
 0001:00073730       ??1Font@@UAE@XZ            10074730 f   PlatWin.obj
 0001:00073740       ?Release@Font@@UAEXXZ      10074740 f   PlatWin.obj
 0001:00073760       ??0SurfaceImpl@@QAE@XZ     10074760 f   PlatWin.obj
 0001:000737d0       ?Release@SurfaceImpl@@UAEXXZ 100747d0 f   PlatWin.obj
 0001:00073880       ?Initialised@SurfaceImpl@@UAE_NXZ 10074880 f   PlatWin.obj
 0001:00073890       ?Init@SurfaceImpl@@UAEXPAX@Z 10074890 f   PlatWin.obj
 0001:000738c0       ?Init@SurfaceImpl@@UAEXPAX0@Z 100748c0 f   PlatWin.obj
 0001:000738f0       ?InitPixMap@SurfaceImpl@@UAEXHHPAVSurface@@PAX@Z 100748f0 f   PlatWin.obj
 0001:00073950       ?PenColour@SurfaceImpl@@UAEXVColourAllocated@@@Z 10074950 f   PlatWin.obj
 0001:000739b0       ?BrushColor@SurfaceImpl@@AAEXVColourAllocated@@@Z 100749b0 f   PlatWin.obj
 0001:00073a10       ?SetFont@SurfaceImpl@@AAEXAAVFont@@@Z 10074a10 f   PlatWin.obj
 0001:00073a60       ?LogPixelsY@SurfaceImpl@@UAEHXZ 10074a60 f   PlatWin.obj
 0001:00073a70       ?DeviceHeightFont@SurfaceImpl@@UAEHH@Z 10074a70 f   PlatWin.obj
 0001:00073a90       ?MoveTo@SurfaceImpl@@UAEXHH@Z 10074a90 f   PlatWin.obj
 0001:00073ab0       ?LineTo@SurfaceImpl@@UAEXHH@Z 10074ab0 f   PlatWin.obj
 0001:00073ad0       ?Polygon@SurfaceImpl@@UAEXPAVPoint@@HVColourAllocated@@1@Z 10074ad0 f   PlatWin.obj
 0001:00073b50       ?RectangleDraw@SurfaceImpl@@UAEXVPRectangle@@VColourAllocated@@1@Z 10074b50 f   PlatWin.obj
 0001:00073bd0       ?FillRectangle@SurfaceImpl@@UAEXVPRectangle@@VColourAllocated@@@Z 10074bd0 f   PlatWin.obj
 0001:00073c40       ?FillRectangle@SurfaceImpl@@UAEXVPRectangle@@AAVSurface@@@Z 10074c40 f   PlatWin.obj
 0001:00073cc0       ?RoundedRectangle@SurfaceImpl@@UAEXVPRectangle@@VColourAllocated@@1@Z 10074cc0 f   PlatWin.obj
 0001:00073dd0       ?Ellipse@SurfaceImpl@@UAEXVPRectangle@@VColourAllocated@@1@Z 10074dd0 f   PlatWin.obj
 0001:00073e50       ?Copy@SurfaceImpl@@UAEXVPRectangle@@VPoint@@AAVSurface@@@Z 10074e50 f   PlatWin.obj
 0001:00073e90       ?WidthChar@SurfaceImpl@@UAEHAAVFont@@D@Z 10074e90 f   PlatWin.obj
 0001:00073ef0       ?Ascent@SurfaceImpl@@UAEHAAVFont@@@Z 10074ef0 f   PlatWin.obj
 0001:00073f60       ?Descent@SurfaceImpl@@UAEHAAVFont@@@Z 10074f60 f   PlatWin.obj
 0001:00073fd0       ?InternalLeading@SurfaceImpl@@UAEHAAVFont@@@Z 10074fd0 f   PlatWin.obj
 0001:00074040       ?ExternalLeading@SurfaceImpl@@UAEHAAVFont@@@Z 10075040 f   PlatWin.obj
 0001:000740b0       ?Height@SurfaceImpl@@UAEHAAVFont@@@Z 100750b0 f   PlatWin.obj
 0001:00074120       ?AverageCharWidth@SurfaceImpl@@UAEHAAVFont@@@Z 10075120 f   PlatWin.obj
 0001:00074190       ?SetPalette@SurfaceImpl@@UAEHPAVPalette@@_N@Z 10075190 f   PlatWin.obj
 0001:000741e0       ?SetClip@SurfaceImpl@@UAEXVPRectangle@@@Z 100751e0 f   PlatWin.obj
 0001:00074210       ?FlushCachedState@SurfaceImpl@@UAEXXZ 10075210 f   PlatWin.obj
 0001:00074220       ?SetUnicodeMode@SurfaceImpl@@UAEX_N@Z 10075220 f   PlatWin.obj
 0001:00074230       ?SetDBCSMode@SurfaceImpl@@UAEXH@Z 10075230 f   PlatWin.obj
 0001:00074270       ?Allocate@Surface@@SAPAV1@XZ 10075270 f   PlatWin.obj
 0001:00074290       ??1Window@@UAE@XZ          10075290 f   PlatWin.obj
 0001:000742a0       ?Destroy@Window@@QAEXXZ    100752a0 f   PlatWin.obj
 0001:000742c0       ?HasFocus@Window@@QAE_NXZ  100752c0 f   PlatWin.obj
 0001:000742e0       ?GetPosition@Window@@QAE?AVPRectangle@@XZ 100752e0 f   PlatWin.obj
 0001:00074330       ?SetPosition@Window@@QAEXVPRectangle@@@Z 10075330 f   PlatWin.obj
 0001:00074360       ?SetPositionRelative@Window@@QAEXVPRectangle@@V1@@Z 10075360 f   PlatWin.obj
 0001:00074420       ?GetClientPosition@Window@@QAE?AVPRectangle@@XZ 10075420 f   PlatWin.obj
 0001:00074480       ?Show@Window@@QAEX_N@Z     10075480 f   PlatWin.obj
 0001:000744b0       ?InvalidateAll@Window@@QAEXXZ 100754b0 f   PlatWin.obj
 0001:000744c0       ?InvalidateRectangle@Window@@QAEXVPRectangle@@@Z 100754c0 f   PlatWin.obj
 0001:00074530       ?SetFont@Window@@UAEXAAVFont@@@Z 10075530 f   PlatWin.obj
 0001:00074550       ?SetCursor@Window@@QAEXW4Cursor@1@@Z 10075550 f   PlatWin.obj
 0001:00074690       ?SetTitle@Window@@QAEXPBD@Z 10075690 f   PlatWin.obj
 0001:000746b0       ?GetMonitorRect@Window@@QAE?AVPRectangle@@VPoint@@@Z 100756b0 f   PlatWin.obj
 0001:000746d0       ?AllocWord@LineToItem@@AAEPADPBD@Z 100756d0 f   PlatWin.obj
 0001:00074770       ?AllocItem@LineToItem@@QAEPAUListItemData@@XZ 10075770 f   PlatWin.obj
 0001:000747e0       ?Append@LineToItem@@QAEPAUListItemData@@PBDH@Z 100757e0 f   PlatWin.obj
 0001:00074810       ??0ListBox@@QAE@XZ         10075810 f   PlatWin.obj
 0001:00074830       ??1ListBox@@UAE@XZ         10075830 f   PlatWin.obj
 0001:00074840       ?Create@ListBoxX@@UAEXAAVWindow@@HVPoint@@H_N@Z 10075840 f   PlatWin.obj
 0001:000748c0       ?SetFont@ListBoxX@@UAEXAAVFont@@@Z 100758c0 f   PlatWin.obj
 0001:00074930       ?SetAverageCharWidth@ListBoxX@@UAEXH@Z 10075930 f   PlatWin.obj
 0001:00074940       ?SetVisibleRows@ListBoxX@@UAEXH@Z 10075940 f   PlatWin.obj
 0001:00074950       ?GetVisibleRows@ListBoxX@@UBEHXZ 10075950 f   PlatWin.obj
 0001:00074960       ?GetHWND@ListBoxX@@ABEPAUHWND__@@XZ 10075960 f   PlatWin.obj
 0001:00074970       ?TextOffset@ListBoxX@@ABEHXZ 10075970 f   PlatWin.obj
 0001:00074990       ?Clear@ListBoxX@@UAEXXZ    10075990 f   PlatWin.obj
 0001:000749e0       ?Append@ListBoxX@@UAEXPADH@Z 100759e0 f   PlatWin.obj
 0001:00074a50       ?Length@ListBoxX@@UAEHXZ   10075a50 f   PlatWin.obj
 0001:00074a60       ?GetSelection@ListBoxX@@UAEHXZ 10075a60 f   PlatWin.obj
 0001:00074a80       ?Find@ListBoxX@@UAEHPBD@Z  10075a80 f   PlatWin.obj
 0001:00074a90       ?GetValue@ListBoxX@@UAEXHPADH@Z 10075a90 f   PlatWin.obj
 0001:00074ae0       ?RegisterImage@ListBoxX@@UAEXHPBD@Z 10075ae0 f   PlatWin.obj
 0001:00074af0       ?ClearRegisteredImages@ListBoxX@@UAEXXZ 10075af0 f   PlatWin.obj
 0001:00074b00       ?AppendListItem@ListBoxX@@AAEXPBD0@Z 10075b00 f   PlatWin.obj
 0001:00074b70       ?AdjustWindowRect@ListBoxX@@ABEXPAVPRectangle@@@Z 10075b70 f   PlatWin.obj
 0001:00074b90       ?ItemHeight@ListBoxX@@ABEHXZ 10075b90 f   PlatWin.obj
 0001:00074bc0       ?MinClientWidth@ListBoxX@@ABEHXZ 10075bc0 f   PlatWin.obj
 0001:00074be0       ?MinTrackSize@ListBoxX@@ABE?AUtagPOINT@@XZ 10075be0 f   PlatWin.obj
 0001:00074c70       ?MaxTrackSize@ListBoxX@@ABE?AUtagPOINT@@XZ 10075c70 f   PlatWin.obj
 0001:00074d30       ?SetRedraw@ListBoxX@@AAEX_N@Z 10075d30 f   PlatWin.obj
 0001:00074d70       ?StartResize@ListBoxX@@AAEXI@Z 10075d70 f   PlatWin.obj
 0001:00074e60       ?NcHitTest@ListBoxX@@ABEHIJ@Z 10075e60 f   PlatWin.obj
 0001:00074f50       ?OnDoubleClick@ListBoxX@@AAEXXZ 10075f50 f   PlatWin.obj
 0001:00074f60       ?GetClientExtent@ListBoxX@@ABE?AVPoint@@XZ 10075f60 f   PlatWin.obj
 0001:00074fc0       ?CentreItem@ListBoxX@@AAEXH@Z 10075fc0 f   PlatWin.obj
 0001:00075090       ?Paint@ListBoxX@@AAEXPAUHDC__@@@Z 10076090 f   PlatWin.obj
 0001:00075190       ?ControlWndProc@ListBoxX@@CGJPAUHWND__@@IIJ@Z 10076190 f   PlatWin.obj
 0001:00075310       ?ListBoxX_Unregister@@YA_NXZ 10076310 f   PlatWin.obj
 0001:00075330       ??0Menu@@QAE@XZ            10076330 f   PlatWin.obj
 0001:00075340       ?Destroy@Menu@@QAEXXZ      10076340 f   PlatWin.obj
 0001:00075360       ?Show@Menu@@QAEXVPoint@@AAVWindow@@@Z 10076360 f   PlatWin.obj
 0001:000753a0       ??0ElapsedTime@@QAE@XZ     100763a0 f   PlatWin.obj
 0001:00075400       ?Duration@ElapsedTime@@QAEN_N@Z 10076400 f   PlatWin.obj
 0001:00075470       ?Chrome@Platform@@SA?AVColourDesired@@XZ 10076470 f   PlatWin.obj
 0001:00075490       ?ChromeHighlight@Platform@@SA?AVColourDesired@@XZ 10076490 f   PlatWin.obj
 0001:000754b0       ?DefaultFont@Platform@@SAPBDXZ 100764b0 f   PlatWin.obj
 0001:000754c0       ?DefaultFontSize@Platform@@SAHXZ 100764c0 f   PlatWin.obj
 0001:000754d0       ?DoubleClickTime@Platform@@SAIXZ 100764d0 f   PlatWin.obj
 0001:000754e0       ?MouseButtonBounce@Platform@@SA_NXZ 100764e0 f   PlatWin.obj
 0001:000754f0       ?DebugDisplay@Platform@@SAXPBD@Z 100764f0 f   PlatWin.obj
 0001:00075500       ?IsKeyDown@Platform@@SA_NH@Z 10076500 f   PlatWin.obj
 0001:00075520       ?SendScintilla@Platform@@SAJPAXIKJ@Z 10076520 f   PlatWin.obj
 0001:00075540       ?SendScintillaPointer@Platform@@SAJPAXIK0@Z 10076540 f   PlatWin.obj
 0001:00075560       ?IsDBCSLeadByte@Platform@@SA_NHD@Z 10076560 f   PlatWin.obj
 0001:00075580       ?DBCSCharLength@Platform@@SAHHPBD@Z 10076580 f   PlatWin.obj
 0001:000755a0       ?DBCSCharMaxLength@Platform@@SAHXZ 100765a0 f   PlatWin.obj
 0001:000755b0       ?Minimum@Platform@@SAHHH@Z 100765b0 f   PlatWin.obj
 0001:000755d0       ?Maximum@Platform@@SAHHH@Z 100765d0 f   PlatWin.obj
 0001:000755f0       ?DebugPrintf@Platform@@SAXPBDZZ 100765f0 f   PlatWin.obj
 0001:00075600       ?ShowAssertionPopUps@Platform@@SA_N_N@Z 10076600 f   PlatWin.obj
 0001:00075620       ?Assert@Platform@@SAXPBD0H@Z 10076620 f   PlatWin.obj
 0001:00075700       ?Clamp@Platform@@SAHHHH@Z  10076700 f   PlatWin.obj
 0001:00075720       ?Platform_Finalise@@YAXXZ  10076720 f   PlatWin.obj
 0001:00075740       ?Release@Palette@@QAEXXZ   10076740 f   PlatWin.obj
 0001:000757d0       ?WantFind@Palette@@QAEXAAUColourPair@@_N@Z 100767d0 f   PlatWin.obj
 0001:000758f0       ??0FontCached@@AAE@PBDHH_N1H@Z 100768f0 f   PlatWin.obj
 0001:00075990       ?FindOrCreate@FontCached@@SAPAXPBDHH_N1H@Z 10076990 f   PlatWin.obj
 0001:00075a90       ?Create@Font@@UAEXPBDHH_N1H@Z 10076a90 f   PlatWin.obj
 0001:00075ad0       ??1SurfaceImpl@@UAE@XZ     10076ad0 f   PlatWin.obj
 0001:00075af0       ?AlphaRectangle@SurfaceImpl@@UAEXVPRectangle@@HVColourAllocated@@H1HH@Z 10076af0 f   PlatWin.obj
 0001:00075ea0       ?WidthText@SurfaceImpl@@UAEHAAVFont@@PBDH@Z 10076ea0 f   PlatWin.obj
 0001:00075fa0       ?MeasureWidths@SurfaceImpl@@UAEXAAVFont@@PBDHPAH@Z 10076fa0 f   PlatWin.obj
 0001:00076420       ?Allocate@ListBox@@SAPAV1@XZ 10077420 f   PlatWin.obj
 0001:00076490       ?GetDesiredRect@ListBoxX@@UAE?AVPRectangle@@XZ 10077490 f   PlatWin.obj
 0001:000766c0       ?CaretFromEdge@ListBoxX@@UAEHXZ 100776c0 f   PlatWin.obj
 0001:00076720       ?Select@ListBoxX@@UAEXH@Z  10077720 f   PlatWin.obj
 0001:00076780       ?Draw@ListBoxX@@QAEXPAUtagDRAWITEMSTRUCT@@@Z 10077780 f   PlatWin.obj
 0001:00076a50       ?SetList@ListBoxX@@UAEXPBDDD@Z 10077a50 f   PlatWin.obj
 0001:00076b60       ?ResizeToCursor@ListBoxX@@AAEXXZ 10077b60 f   PlatWin.obj
 0001:00076cc0       ?WndProc@ListBoxX@@QAEJPAUHWND__@@IIJ@Z 10077cc0 f   PlatWin.obj
 0001:00077070       ?StaticWndProc@ListBoxX@@SGJPAUHWND__@@IIJ@Z 10078070 f   PlatWin.obj
 0001:00077140       ?CreatePopUp@Menu@@QAEXXZ  10078140 f   PlatWin.obj
 0001:00077160       ?Load@DynamicLibrary@@SAPAV1@PBD@Z 10078160 f   PlatWin.obj
 0001:000771a0       ?Platform_Initialise@@YAXPAX@Z 100781a0 f   PlatWin.obj
 0001:00077270       ??0Palette@@QAE@XZ         10078270 f   PlatWin.obj
 0001:000772d0       ??1Palette@@QAE@XZ         100782d0 f   PlatWin.obj
 0001:000772f0       ?DrawTextCommon@SurfaceImpl@@QAEXVPRectangle@@AAVFont@@HPBDHI@Z 100782f0 f   PlatWin.obj
 0001:000775a0       ?DrawTextNoClip@SurfaceImpl@@UAEXVPRectangle@@AAVFont@@HPBDHVColourAllocated@@3@Z 100785a0 f   PlatWin.obj
 0001:00077600       ?DrawTextClipped@SurfaceImpl@@UAEXVPRectangle@@AAVFont@@HPBDHVColourAllocated@@3@Z 10078600 f   PlatWin.obj
 0001:00077660       ?DrawTextTransparent@SurfaceImpl@@UAEXVPRectangle@@AAVFont@@HPBDHVColourAllocated@@@Z 10078660 f   PlatWin.obj
 0001:000776f0       ??1?$VarBuffer@_W$0CHBA@@@QAE@XZ 100786f0 f i PlatWin.obj
 0001:000776f0       ??1TextWide@@QAE@XZ        100786f0 f i PlatWin.obj
 0001:00077720       ??0?$VarBuffer@H$0CHBA@@@QAE@I@Z 10078720 f i PlatWin.obj
 0001:00077770       ??_EFont@@UAEPAXI@Z        10078770 f i PlatWin.obj
 0001:00077770       ??_GFontCached@@EAEPAXI@Z  10078770 f i PlatWin.obj
 0001:00077770       ??_EFontCached@@EAEPAXI@Z  10078770 f i PlatWin.obj
 0001:00077770       ??_GFont@@UAEPAXI@Z        10078770 f i PlatWin.obj
 0001:000777a0       ??0TextWide@@QAE@PBDH_NH@Z 100787a0 f i PlatWin.obj
 0001:00077860       ??_EListBox@@UAEPAXI@Z     10078860 f i PlatWin.obj
 0001:00077860       ??_GListBox@@UAEPAXI@Z     10078860 f i PlatWin.obj
 0001:00077890       ??0ListBoxX@@QAE@XZ        10078890 f i PlatWin.obj
 0001:00077960       ?SetDoubleClickAction@ListBoxX@@UAEXP6AXPAX@Z0@Z 10078960 f i PlatWin.obj
 0001:00077980       ??1ListBoxX@@UAE@XZ        10078980 f i PlatWin.obj
 0001:00077a20       ??_GListBoxX@@UAEPAXI@Z    10078a20 f i PlatWin.obj
 0001:00077a20       ??_EListBoxX@@UAEPAXI@Z    10078a20 f i PlatWin.obj
 0001:00077a50       ?FindFunction@DynamicLibraryImpl@@UAEPAXPBD@Z 10078a50 f i PlatWin.obj
 0001:00077a70       ?IsValid@DynamicLibraryImpl@@UAE_NXZ 10078a70 f i PlatWin.obj
 0001:00077a80       ??_EDynamicLibraryImpl@@UAEPAXI@Z 10078a80 f i PlatWin.obj
 0001:00077a80       ??_GDynamicLibraryImpl@@UAEPAXI@Z 10078a80 f i PlatWin.obj
 0001:00077ac0       ??_GSurfaceImpl@@UAEPAXI@Z 10078ac0 f i PlatWin.obj
 0001:00077ac0       ??_ESurfaceImpl@@UAEPAXI@Z 10078ac0 f i PlatWin.obj
 0001:00077b00       ?Free@LineLayout@@QAEXXZ   10078b00 f   PositionCache.obj
 0001:00077b50       ?Invalidate@LineLayout@@QAEXW4validLevel@1@@Z 10078b50 f   PositionCache.obj
 0001:00077b70       ?LineStart@LineLayout@@QBEHH@Z 10078b70 f   PositionCache.obj
 0001:00077ba0       ?LineLastVisible@LineLayout@@QBEHH@Z 10078ba0 f   PositionCache.obj
 0001:00077bd0       ?InLine@LineLayout@@QBE_NHH@Z 10078bd0 f   PositionCache.obj
 0001:00077c40       ?SetLineStart@LineLayout@@QAEXHH@Z 10078c40 f   PositionCache.obj
 0001:00077ce0       ?SetBracesHighlight@LineLayout@@QAEXVRange@@QAHDH@Z 10078ce0 f   PositionCache.obj
 0001:00077d80       ?RestoreBracesHighlight@LineLayout@@QAEXVRange@@QAH@Z 10078d80 f   PositionCache.obj
 0001:00077e00       ?FindBefore@LineLayout@@QBEHHHH@Z 10078e00 f   PositionCache.obj
 0001:00077e40       ?EndLineStyle@LineLayout@@QBEHXZ 10078e40 f   PositionCache.obj
 0001:00077e60       ?Allocate@LineLayoutCache@@AAEXH@Z 10078e60 f   PositionCache.obj
 0001:00077ed0       ?Deallocate@LineLayoutCache@@QAEXXZ 10078ed0 f   PositionCache.obj
 0001:00077f20       ?Invalidate@LineLayoutCache@@QAEXW4validLevel@LineLayout@@@Z 10078f20 f   PositionCache.obj
 0001:00077f70       ?SetLevel@LineLayoutCache@@QAEXH@Z 10078f70 f   PositionCache.obj
 0001:00077f90       ?Dispose@LineLayoutCache@@QAEXPAVLineLayout@@@Z 10078f90 f   PositionCache.obj
 0001:00077fc0       ?Insert@BreakFinder@@AAEXH@Z 10078fc0 f   PositionCache.obj
 0001:000780c0       ??0BreakFinder@@QAE@PAVLineLayout@@HHH_NH1@Z 100790c0 f   PositionCache.obj
 0001:00078300       ??1BreakFinder@@QAE@XZ     10079300 f   PositionCache.obj
 0001:00078310       ?First@BreakFinder@@QBEHXZ 10079310 f   PositionCache.obj
 0001:00078330       ?Next@BreakFinder@@QAEHXZ  10079330 f   PositionCache.obj
 0001:000784b0       ??0PositionCacheEntry@@QAE@XZ 100794b0 f   PositionCache.obj
 0001:000784c0       ?Clear@PositionCacheEntry@@QAEXXZ 100794c0 f   PositionCache.obj
 0001:000784e0       ?Retrieve@PositionCacheEntry@@QBE_NIPBDIPAH@Z 100794e0 f   PositionCache.obj
 0001:00078580       ?Hash@PositionCacheEntry@@SAHIPBDI@Z 10079580 f   PositionCache.obj
 0001:000785d0       ?NewerThan@PositionCacheEntry@@QBE_NABV1@@Z 100795d0 f   PositionCache.obj
 0001:000785f0       ?ResetClock@PositionCacheEntry@@QAEXXZ 100795f0 f   PositionCache.obj
 0001:00078610       ?Clear@PositionCache@@QAEXXZ 10079610 f   PositionCache.obj
 0001:00078680       ??1LineLayout@@UAE@XZ      10079680 f   PositionCache.obj
 0001:000786d0       ?Resize@LineLayout@@QAEXH@Z 100796d0 f   PositionCache.obj
 0001:00078770       ??0LineLayoutCache@@QAE@XZ 10079770 f   PositionCache.obj
 0001:000787a0       ??1LineLayoutCache@@UAE@XZ 100797a0 f   PositionCache.obj
 0001:000787b0       ?AllocateForLevel@LineLayoutCache@@AAEXHH@Z 100797b0 f   PositionCache.obj
 0001:00078830       ?Set@PositionCacheEntry@@QAEXIPBDIPAHI@Z 10079830 f   PositionCache.obj
 0001:000788d0       ??1PositionCacheEntry@@QAE@XZ 100798d0 f   PositionCache.obj
 0001:000788f0       ??0PositionCache@@QAE@XZ   100798f0 f   PositionCache.obj
 0001:00078990       ??1PositionCache@@QAE@XZ   10079990 f   PositionCache.obj
 0001:000789c0       ?SetSize@PositionCache@@QAEXI@Z 100799c0 f   PositionCache.obj
 0001:00078a90       ?MeasureWidths@PositionCache@@QAEXPAVSurface@@AAVViewStyle@@IPBDIPAH@Z 10079a90 f   PositionCache.obj
 0001:00078be0       ??0LineLayout@@QAE@H@Z     10079be0 f   PositionCache.obj
 0001:00078c50       ?Retrieve@LineLayoutCache@@QAEPAVLineLayout@@HHHHHH@Z 10079c50 f   PositionCache.obj
 0001:00078e00       ??_ELineLayout@@UAEPAXI@Z  10079e00 f i PositionCache.obj
 0001:00078e00       ??_GLineLayout@@UAEPAXI@Z  10079e00 f i PositionCache.obj
 0001:00078e70       ??_ELineLayoutCache@@UAEPAXI@Z 10079e70 f i PositionCache.obj
 0001:00078e70       ??_GLineLayoutCache@@UAEPAXI@Z 10079e70 f i PositionCache.obj
 0001:00078ea0       ??1PropertyGet@@UAE@XZ     10079ea0 f i PropSet.obj
 0001:00078eb0       ??_GPropertyGet@@UAEPAXI@Z 10079eb0 f i PropSet.obj
 0001:00078eb0       ??_EPropertyGet@@UAEPAXI@Z 10079eb0 f i PropSet.obj
 0001:00078f00       ?Get@PropSetSimple@@QBEPBDPBD@Z 10079f00 f   PropSet.obj
 0001:00079320       ?Expanded@PropSetSimple@@QBEPADPBD@Z 1007a320 f   PropSet.obj
 0001:00079400       ?ToString@PropSetSimple@@UBEPADXZ 1007a400 f   PropSet.obj
 0001:00079540       ?GetInt@PropSetSimple@@UBEHPBDH@Z 1007a540 f   PropSet.obj
 0001:000795a0       ??0PropSetSimple@@QAE@XZ   1007a5a0 f   PropSet.obj
 0001:00079670       ?Set@PropSetSimple@@QAEXPBD0HH@Z 1007a670 f   PropSet.obj
 0001:00079790       ?Set@PropSetSimple@@AAEXPBD@Z 1007a790 f   PropSet.obj
 0001:00079820       ?SetMultiple@PropSetSimple@@QAEXPBD@Z 1007a820 f   PropSet.obj
 0001:000798d0       ??1PropSetSimple@@UAE@XZ   1007a8d0 f   PropSet.obj
 0001:00079960       ?contains@VarChain@@QBE_NPBD@Z 1007a960 f i PropSet.obj
 0001:000799c0       ?_Min@?$_Tree_val@V?$_Tmap_traits@V?$basic_string@DU?$char_traits@D@std@@V?$allocator@D@2@@std@@V12@U?$less@V?$basic_string@DU?$char_traits@D@std@@V?$allocator@D@2@@std@@@2@V?$allocator@U?$pair@$$CBV?$basic_string@DU?$char_traits@D@std@@V?$allocator@D@2@@std@@V12@@std@@@2@$0A@@std@@@std@@SAPAU_Node@?$_Tree_nod@V?$_Tmap_traits@V?$basic_string@DU?$char_traits@D@std@@V?$allocator@D@2@@std@@V12@U?$less@V?$basic_string@DU?$char_traits@D@std@@V?$allocator@D@2@@std@@@2@V?$allocator@U?$pair@$$CBV?$basic_string@DU?$char_traits@D@std@@V?$allocator@D@2@@std@@V12@@std@@@2@$0A@@std@@@2@PAU342@@Z 1007a9c0 f i PropSet.obj
 0001:000799e0       ?_Max@?$_Tree_val@V?$_Tmap_traits@V?$basic_string@DU?$char_traits@D@std@@V?$allocator@D@2@@std@@V12@U?$less@V?$basic_string@DU?$char_traits@D@std@@V?$allocator@D@2@@std@@@2@V?$allocator@U?$pair@$$CBV?$basic_string@DU?$char_traits@D@std@@V?$allocator@D@2@@std@@V12@@std@@@2@$0A@@std@@@std@@SAPAU_Node@?$_Tree_nod@V?$_Tmap_traits@V?$basic_string@DU?$char_traits@D@std@@V?$allocator@D@2@@std@@V12@U?$less@V?$basic_string@DU?$char_traits@D@std@@V?$allocator@D@2@@std@@@2@V?$allocator@U?$pair@$$CBV?$basic_string@DU?$char_traits@D@std@@V?$allocator@D@2@@std@@V12@@std@@@2@$0A@@std@@@2@PAU342@@Z 1007a9e0 f i PropSet.obj
 0001:00079a00       ??F?$_Tree_unchecked_const_iterator@V?$_Tree_val@V?$_Tmap_traits@V?$basic_string@DU?$char_traits@D@std@@V?$allocator@D@2@@std@@V12@U?$less@V?$basic_string@DU?$char_traits@D@std@@V?$allocator@D@2@@std@@@2@V?$allocator@U?$pair@$$CBV?$basic_string@DU?$char_traits@D@std@@V?$allocator@D@2@@std@@V12@@std@@@2@$0A@@std@@@std@@U_Iterator_base0@2@@std@@QAEAAV01@XZ 1007aa00 f i PropSet.obj
 0001:00079a60       ??1?$_Tree_val@V?$_Tmap_traits@V?$basic_string@DU?$char_traits@D@std@@V?$allocator@D@2@@std@@V12@U?$less@V?$basic_string@DU?$char_traits@D@std@@V?$allocator@D@2@@std@@@2@V?$allocator@U?$pair@$$CBV?$basic_string@DU?$char_traits@D@std@@V?$allocator@D@2@@std@@V12@@std@@@2@$0A@@std@@@std@@QAE@XZ 1007aa60 f i PropSet.obj
 0001:00079a70       ??E?$_Tree_unchecked_const_iterator@V?$_Tree_val@V?$_Tmap_traits@V?$basic_string@DU?$char_traits@D@std@@V?$allocator@D@2@@std@@V12@U?$less@V?$basic_string@DU?$char_traits@D@std@@V?$allocator@D@2@@std@@@2@V?$allocator@U?$pair@$$CBV?$basic_string@DU?$char_traits@D@std@@V?$allocator@D@2@@std@@V12@@std@@@2@$0A@@std@@@std@@U_Iterator_base0@2@@std@@QAEAAV01@XZ 1007aa70 f i PropSet.obj
 0001:00079ac0       ?_Lrotate@?$_Tree@V?$_Tmap_traits@V?$basic_string@DU?$char_traits@D@std@@V?$allocator@D@2@@std@@V12@U?$less@V?$basic_string@DU?$char_traits@D@std@@V?$allocator@D@2@@std@@@2@V?$allocator@U?$pair@$$CBV?$basic_string@DU?$char_traits@D@std@@V?$allocator@D@2@@std@@V12@@std@@@2@$0A@@std@@@std@@IAEXPAU_Node@?$_Tree_nod@V?$_Tmap_traits@V?$basic_string@DU?$char_traits@D@std@@V?$allocator@D@2@@std@@V12@U?$less@V?$basic_string@DU?$char_traits@D@std@@V?$allocator@D@2@@std@@@2@V?$allocator@U?$pair@$$CBV?$basic_string@DU?$char_traits@D@std@@V?$allocator@D@2@@std@@V12@@std@@@2@$0A@@std@@@2@@Z 1007aac0 f i PropSet.obj
 0001:00079b20       ?_Rrotate@?$_Tree@V?$_Tmap_traits@V?$basic_string@DU?$char_traits@D@std@@V?$allocator@D@2@@std@@V12@U?$less@V?$basic_string@DU?$char_traits@D@std@@V?$allocator@D@2@@std@@@2@V?$allocator@U?$pair@$$CBV?$basic_string@DU?$char_traits@D@std@@V?$allocator@D@2@@std@@V12@@std@@@2@$0A@@std@@@std@@IAEXPAU_Node@?$_Tree_nod@V?$_Tmap_traits@V?$basic_string@DU?$char_traits@D@std@@V?$allocator@D@2@@std@@V12@U?$less@V?$basic_string@DU?$char_traits@D@std@@V?$allocator@D@2@@std@@@2@V?$allocator@U?$pair@$$CBV?$basic_string@DU?$char_traits@D@std@@V?$allocator@D@2@@std@@V12@@std@@@2@$0A@@std@@@2@@Z 1007ab20 f i PropSet.obj
 0001:00079b80       ??1?$pair@V?$basic_string@DU?$char_traits@D@std@@V?$allocator@D@2@@std@@V12@@std@@QAE@XZ 1007ab80 f i PropSet.obj
 0001:00079bd0       ??R?$less@V?$basic_string@DU?$char_traits@D@std@@V?$allocator@D@2@@std@@@std@@QBE_NABV?$basic_string@DU?$char_traits@D@std@@V?$allocator@D@2@@1@0@Z 1007abd0 f i PropSet.obj
 0001:00079c00       ?_Lbound@?$_Tree@V?$_Tmap_traits@V?$basic_string@DU?$char_traits@D@std@@V?$allocator@D@2@@std@@V12@U?$less@V?$basic_string@DU?$char_traits@D@std@@V?$allocator@D@2@@std@@@2@V?$allocator@U?$pair@$$CBV?$basic_string@DU?$char_traits@D@std@@V?$allocator@D@2@@std@@V12@@std@@@2@$0A@@std@@@std@@IAEPAU_Node@?$_Tree_nod@V?$_Tmap_traits@V?$basic_string@DU?$char_traits@D@std@@V?$allocator@D@2@@std@@V12@U?$less@V?$basic_string@DU?$char_traits@D@std@@V?$allocator@D@2@@std@@@2@V?$allocator@U?$pair@$$CBV?$basic_string@DU?$char_traits@D@std@@V?$allocator@D@2@@std@@V12@@std@@@2@$0A@@std@@@2@ABV?$basic_string@DU?$char_traits@D@std@@V?$allocator@D@2@@2@@Z 1007ac00 f i PropSet.obj
 0001:00079c90       ?insert@?$basic_string@DU?$char_traits@D@std@@V?$allocator@D@2@@std@@QAEAAV12@IABV12@II@Z 1007ac90 f i PropSet.obj
 0001:00079e10       ?insert@?$basic_string@DU?$char_traits@D@std@@V?$allocator@D@2@@std@@QAEAAV12@IPBDI@Z 1007ae10 f i PropSet.obj
 0001:00079f60       ??$_Dest_val@V?$allocator@U?$pair@$$CBV?$basic_string@DU?$char_traits@D@std@@V?$allocator@D@2@@std@@V12@@std@@@std@@U?$pair@$$CBV?$basic_string@DU?$char_traits@D@std@@V?$allocator@D@2@@std@@V12@@2@@std@@YAXAAV?$allocator@U?$pair@$$CBV?$basic_string@DU?$char_traits@D@std@@V?$allocator@D@2@@std@@V12@@std@@@0@PAU?$pair@$$CBV?$basic_string@DU?$char_traits@D@std@@V?$allocator@D@2@@std@@V12@@0@@Z 1007af60 f i PropSet.obj
 0001:00079fb0       ?_Insert@?$_Tree@V?$_Tmap_traits@V?$basic_string@DU?$char_traits@D@std@@V?$allocator@D@2@@std@@V12@U?$less@V?$basic_string@DU?$char_traits@D@std@@V?$allocator@D@2@@std@@@2@V?$allocator@U?$pair@$$CBV?$basic_string@DU?$char_traits@D@std@@V?$allocator@D@2@@std@@V12@@std@@@2@$0A@@std@@@std@@IAE?AV?$_Tree_iterator@V?$_Tree_val@V?$_Tmap_traits@V?$basic_string@DU?$char_traits@D@std@@V?$allocator@D@2@@std@@V12@U?$less@V?$basic_string@DU?$char_traits@D@std@@V?$allocator@D@2@@std@@@2@V?$allocator@U?$pair@$$CBV?$basic_string@DU?$char_traits@D@std@@V?$allocator@D@2@@std@@V12@@std@@@2@$0A@@std@@@std@@@2@_NPAU_Node@?$_Tree_nod@V?$_Tmap_traits@V?$basic_string@DU?$char_traits@D@std@@V?$allocator@D@2@@std@@V12@U?$less@V?$basic_string@DU?$char_traits@D@std@@V?$allocator@D@2@@std@@@2@V?$allocator@U?$pair@$$CBV?$basic_string@DU?$char_traits@D@std@@V?$allocator@D@2@@std@@V12@@std@@@2@$0A@@std@@@2@1@Z 1007afb0 f i PropSet.obj
 0001:0007a210       ?erase@?$_Tree@V?$_Tmap_traits@V?$basic_string@DU?$char_traits@D@std@@V?$allocator@D@2@@std@@V12@U?$less@V?$basic_string@DU?$char_traits@D@std@@V?$allocator@D@2@@std@@@2@V?$allocator@U?$pair@$$CBV?$basic_string@DU?$char_traits@D@std@@V?$allocator@D@2@@std@@V12@@std@@@2@$0A@@std@@@std@@QAE?AV?$_Tree_iterator@V?$_Tree_val@V?$_Tmap_traits@V?$basic_string@DU?$char_traits@D@std@@V?$allocator@D@2@@std@@V12@U?$less@V?$basic_string@DU?$char_traits@D@std@@V?$allocator@D@2@@std@@@2@V?$allocator@U?$pair@$$CBV?$basic_string@DU?$char_traits@D@std@@V?$allocator@D@2@@std@@V12@@std@@@2@$0A@@std@@@std@@@2@V?$_Tree_const_iterator@V?$_Tree_val@V?$_Tmap_traits@V?$basic_string@DU?$char_traits@D@std@@V?$allocator@D@2@@std@@V12@U?$less@V?$basic_string@DU?$char_traits@D@std@@V?$allocator@D@2@@std@@@2@V?$allocator@U?$pair@$$CBV?$basic_string@DU?$char_traits@D@std@@V?$allocator@D@2@@std@@V12@@std@@@2@$0A@@std@@@std@@@2@@Z 1007b210 f i PropSet.obj
 0001:0007a4b0       ?_Erase@?$_Tree@V?$_Tmap_traits@V?$basic_string@DU?$char_traits@D@std@@V?$allocator@D@2@@std@@V12@U?$less@V?$basic_string@DU?$char_traits@D@std@@V?$allocator@D@2@@std@@@2@V?$allocator@U?$pair@$$CBV?$basic_string@DU?$char_traits@D@std@@V?$allocator@D@2@@std@@V12@@std@@@2@$0A@@std@@@std@@IAEXPAU_Node@?$_Tree_nod@V?$_Tmap_traits@V?$basic_string@DU?$char_traits@D@std@@V?$allocator@D@2@@std@@V12@U?$less@V?$basic_string@DU?$char_traits@D@std@@V?$allocator@D@2@@std@@@2@V?$allocator@U?$pair@$$CBV?$basic_string@DU?$char_traits@D@std@@V?$allocator@D@2@@std@@V12@@std@@@2@$0A@@std@@@2@@Z 1007b4b0 f i PropSet.obj
 0001:0007a530       ?_Linsert@?$_Tree@V?$_Tmap_traits@V?$basic_string@DU?$char_traits@D@std@@V?$allocator@D@2@@std@@V12@U?$less@V?$basic_string@DU?$char_traits@D@std@@V?$allocator@D@2@@std@@@2@V?$allocator@U?$pair@$$CBV?$basic_string@DU?$char_traits@D@std@@V?$allocator@D@2@@std@@V12@@std@@@2@$0A@@std@@@std@@QAE?AU?$pair@V?$_Tree_iterator@V?$_Tree_val@V?$_Tmap_traits@V?$basic_string@DU?$char_traits@D@std@@V?$allocator@D@2@@std@@V12@U?$less@V?$basic_string@DU?$char_traits@D@std@@V?$allocator@D@2@@std@@@2@V?$allocator@U?$pair@$$CBV?$basic_string@DU?$char_traits@D@std@@V?$allocator@D@2@@std@@V12@@std@@@2@$0A@@std@@@std@@@std@@_N@2@PAU_Node@?$_Tree_nod@V?$_Tmap_traits@V?$basic_string@DU?$char_traits@D@std@@V?$allocator@D@2@@std@@V12@U?$less@V?$basic_string@DU?$char_traits@D@std@@V?$allocator@D@2@@std@@@2@V?$allocator@U?$pair@$$CBV?$basic_string@DU?$char_traits@D@std@@V?$allocator@D@2@@std@@V12@@std@@@2@$0A@@std@@@2@_N@Z 1007b530 f i PropSet.obj
 0001:0007a6e0       ?_Insert@?$_Tree@V?$_Tmap_traits@V?$basic_string@DU?$char_traits@D@std@@V?$allocator@D@2@@std@@V12@U?$less@V?$basic_string@DU?$char_traits@D@std@@V?$allocator@D@2@@std@@@2@V?$allocator@U?$pair@$$CBV?$basic_string@DU?$char_traits@D@std@@V?$allocator@D@2@@std@@V12@@std@@@2@$0A@@std@@@std@@QAE?AV?$_Tree_iterator@V?$_Tree_val@V?$_Tmap_traits@V?$basic_string@DU?$char_traits@D@std@@V?$allocator@D@2@@std@@V12@U?$less@V?$basic_string@DU?$char_traits@D@std@@V?$allocator@D@2@@std@@@2@V?$allocator@U?$pair@$$CBV?$basic_string@DU?$char_traits@D@std@@V?$allocator@D@2@@std@@V12@@std@@@2@$0A@@std@@@std@@@2@V?$_Tree_const_iterator@V?$_Tree_val@V?$_Tmap_traits@V?$basic_string@DU?$char_traits@D@std@@V?$allocator@D@2@@std@@V12@U?$less@V?$basic_string@DU?$char_traits@D@std@@V?$allocator@D@2@@std@@@2@V?$allocator@U?$pair@$$CBV?$basic_string@DU?$char_traits@D@std@@V?$allocator@D@2@@std@@V12@@std@@@2@$0A@@std@@@std@@@2@PAU_Node@?$_Tree_nod@V?$_Tmap_traits@V?$basic_string@DU?$char_traits@D@std@@V?$allocator@D@2@@std@@V12@U?$less@V?$basic_string@DU?$char_traits@D@std@@V?$allocator@D@2@@std@@@2@V?$allocator@U?$pair@$$CBV?$basic_string@DU?$char_traits@D@std@@V?$allocator@D@2@@std@@V12@@std@@@2@$0A@@std@@@2@@Z 1007b6e0 f i PropSet.obj
 0001:0007a8a0       ?erase@?$_Tree@V?$_Tmap_traits@V?$basic_string@DU?$char_traits@D@std@@V?$allocator@D@2@@std@@V12@U?$less@V?$basic_string@DU?$char_traits@D@std@@V?$allocator@D@2@@std@@@2@V?$allocator@U?$pair@$$CBV?$basic_string@DU?$char_traits@D@std@@V?$allocator@D@2@@std@@V12@@std@@@2@$0A@@std@@@std@@QAE?AV?$_Tree_iterator@V?$_Tree_val@V?$_Tmap_traits@V?$basic_string@DU?$char_traits@D@std@@V?$allocator@D@2@@std@@V12@U?$less@V?$basic_string@DU?$char_traits@D@std@@V?$allocator@D@2@@std@@@2@V?$allocator@U?$pair@$$CBV?$basic_string@DU?$char_traits@D@std@@V?$allocator@D@2@@std@@V12@@std@@@2@$0A@@std@@@std@@@2@V?$_Tree_const_iterator@V?$_Tree_val@V?$_Tmap_traits@V?$basic_string@DU?$char_traits@D@std@@V?$allocator@D@2@@std@@V12@U?$less@V?$basic_string@DU?$char_traits@D@std@@V?$allocator@D@2@@std@@@2@V?$allocator@U?$pair@$$CBV?$basic_string@DU?$char_traits@D@std@@V?$allocator@D@2@@std@@V12@@std@@@2@$0A@@std@@@std@@@2@0@Z 1007b8a0 f i PropSet.obj
 0001:0007a960       ??$_Buynode@U?$pair@V?$basic_string@DU?$char_traits@D@std@@V?$allocator@D@2@@std@@V12@@std@@@?$_Tree_val@V?$_Tmap_traits@V?$basic_string@DU?$char_traits@D@std@@V?$allocator@D@2@@std@@V12@U?$less@V?$basic_string@DU?$char_traits@D@std@@V?$allocator@D@2@@std@@@2@V?$allocator@U?$pair@$$CBV?$basic_string@DU?$char_traits@D@std@@V?$allocator@D@2@@std@@V12@@std@@@2@$0A@@std@@@std@@QAEPAU_Node@?$_Tree_nod@V?$_Tmap_traits@V?$basic_string@DU?$char_traits@D@std@@V?$allocator@D@2@@std@@V12@U?$less@V?$basic_string@DU?$char_traits@D@std@@V?$allocator@D@2@@std@@@2@V?$allocator@U?$pair@$$CBV?$basic_string@DU?$char_traits@D@std@@V?$allocator@D@2@@std@@V12@@std@@@2@$0A@@std@@@1@$$QAU?$pair@V?$basic_string@DU?$char_traits@D@std@@V?$allocator@D@2@@std@@V12@@1@@Z 1007b960 f i PropSet.obj
 0001:0007aa60       ??A?$map@V?$basic_string@DU?$char_traits@D@std@@V?$allocator@D@2@@std@@V12@U?$less@V?$basic_string@DU?$char_traits@D@std@@V?$allocator@D@2@@std@@@2@V?$allocator@U?$pair@$$CBV?$basic_string@DU?$char_traits@D@std@@V?$allocator@D@2@@std@@V12@@std@@@2@@std@@QAEAAV?$basic_string@DU?$char_traits@D@std@@V?$allocator@D@2@@1@$$QAV21@@Z 1007ba60 f i PropSet.obj
 0001:0007aba0       ??_EPropSetSimple@@UAEPAXI@Z 1007bba0 f i PropSet.obj
 0001:0007aba0       ??_GPropSetSimple@@UAEPAXI@Z 1007bba0 f i PropSet.obj
 0001:0007ac40       ?Init@RESearch@@AAEXXZ     1007bc40 f   RESearch.obj
 0001:0007aca0       ?Clear@RESearch@@AAEXXZ    1007bca0 f   RESearch.obj
 0001:0007ace0       ?Compile@RESearch@@QAEPBDPBDH_N1@Z 1007bce0 f   RESearch.obj
 0001:0007ad30       ?Execute@RESearch@@QAEHPBDHH@Z 1007bd30 f   RESearch.obj
 0001:0007adf0       ?GrabMatches@RESearch@@QAE_NPBD@Z 1007bdf0 f   RESearch.obj
 0001:0007ae90       ?Substitute@RESearch@@QAEHAAVCharacterIndexer@@PAD1@Z 1007be90 f   RESearch.obj
 0001:0007af70       ??0RESearch@@QAE@PAVCharClassify@@@Z 1007bf70 f   RESearch.obj
 0001:0007aff0       ??1RESearch@@QAE@XZ        1007bff0 f   RESearch.obj
 0001:0007b030       ?RunFromPosition@RunStyles@@QAEHH@Z 1007c030 f   RunStyles.obj
 0001:0007b0a0       ?Length@RunStyles@@QBEHXZ  1007c0a0 f   RunStyles.obj
 0001:0007b0e0       ?ValueAt@RunStyles@@QBEHH@Z 1007c0e0 f   RunStyles.obj
 0001:0007b120       ?FindNextChange@RunStyles@@QAEHHH@Z 1007c120 f   RunStyles.obj
 0001:0007b1b0       ?StartRun@RunStyles@@QAEHH@Z 1007c1b0 f   RunStyles.obj
 0001:0007b210       ?EndRun@RunStyles@@QAEHH@Z 1007c210 f   RunStyles.obj
 0001:0007b260       ?SplitRun@RunStyles@@QAEHH@Z 1007c260 f   RunStyles.obj
 0001:0007b340       ?RemoveRun@RunStyles@@QAEXH@Z 1007c340 f   RunStyles.obj
 0001:0007b3b0       ?RemoveRunIfEmpty@RunStyles@@QAEXH@Z 1007c3b0 f   RunStyles.obj
 0001:0007b400       ?RemoveRunIfSameAsPrevious@RunStyles@@QAEXH@Z 1007c400 f   RunStyles.obj
 0001:0007b480       ??0RunStyles@@QAE@XZ       1007c480 f   RunStyles.obj
 0001:0007b550       ??1RunStyles@@QAE@XZ       1007c550 f   RunStyles.obj
 0001:0007b5c0       ?FillRange@RunStyles@@QAE_NAAHH0@Z 1007c5c0 f   RunStyles.obj
 0001:0007b830       ?SetValueAt@RunStyles@@QAEXHH@Z 1007c830 f   RunStyles.obj
 0001:0007b860       ?InsertSpace@RunStyles@@QAEXHH@Z 1007c860 f   RunStyles.obj
 0001:0007b9d0       ?DeleteAll@RunStyles@@QAEXXZ 1007c9d0 f   RunStyles.obj
 0001:0007baf0       ?DeleteRange@RunStyles@@QAEXHH@Z 1007caf0 f   RunStyles.obj
 0001:0007bc70       ??0DocumentAccessor@@QAE@PAVDocument@@AAVPropertyGet@@PAX@Z 1007cc70 f i ScintillaBase.obj
 0001:0007bce0       ?GetPropertyInt@DocumentAccessor@@UAEHPBDH@Z 1007cce0 f i ScintillaBase.obj
 0001:0007bd00       ?GetProperties@DocumentAccessor@@UAEPADXZ 1007cd00 f i ScintillaBase.obj
 0001:0007bd10       ?SetFlags@DocumentAccessor@@UAEXDD@Z 1007cd10 f i ScintillaBase.obj
 0001:0007bd30       ?GetStartSegment@DocumentAccessor@@UAEIXZ 1007cd30 f i ScintillaBase.obj
 0001:0007bd40       ??_GDocumentAccessor@@UAEPAXI@Z 1007cd40 f i ScintillaBase.obj
 0001:0007bd40       ??_EDocumentAccessor@@UAEPAXI@Z 1007cd40 f i ScintillaBase.obj
 0001:0007bd70       ??0ScintillaBase@@IAE@XZ   1007cd70 f   ScintillaBase.obj
 0001:0007be70       ?Finalise@ScintillaBase@@MAEXXZ 1007ce70 f   ScintillaBase.obj
 0001:0007be90       ?RefreshColourPalette@ScintillaBase@@MAEXAAVPalette@@_N@Z 1007ce90 f   ScintillaBase.obj
 0001:0007bec0       ?Command@ScintillaBase@@IAEXH@Z 1007cec0 f   ScintillaBase.obj
 0001:0007bfa0       ?AutoCompleteCancel@ScintillaBase@@IAEXXZ 1007cfa0 f   ScintillaBase.obj
 0001:0007c010       ?AutoCompleteMove@ScintillaBase@@IAEXH@Z 1007d010 f   ScintillaBase.obj
 0001:0007c020       ?AutoCompleteMoveToCurrentWord@ScintillaBase@@IAEXXZ 1007d020 f   ScintillaBase.obj
 0001:0007c0d0       ?AutoCompleteCharacterDeleted@ScintillaBase@@IAEXXZ 1007d0d0 f   ScintillaBase.obj
 0001:0007c160       ?AutoCompleteCompleted@ScintillaBase@@IAEXXZ 1007d160 f   ScintillaBase.obj
 0001:0007c370       ?AutoCompleteGetCurrent@ScintillaBase@@IAEHXZ 1007d370 f   ScintillaBase.obj
 0001:0007c3a0       ?AutoCompleteGetCurrentText@ScintillaBase@@IAEHPAD@Z 1007d3a0 f   ScintillaBase.obj
 0001:0007c460       ?CallTipShow@ScintillaBase@@IAEXVPoint@@PBD@Z 1007d460 f   ScintillaBase.obj
 0001:0007c5b0       ?CallTipClick@ScintillaBase@@IAEXXZ 1007d5b0 f   ScintillaBase.obj
 0001:0007c600       ?ContextMenu@ScintillaBase@@IAEXVPoint@@@Z 1007d600 f   ScintillaBase.obj
 0001:0007c7b0       ?CancelModes@ScintillaBase@@MAEXXZ 1007d7b0 f   ScintillaBase.obj
 0001:0007c7d0       ?ButtonDown@ScintillaBase@@MAEXVPoint@@I_N11@Z 1007d7d0 f   ScintillaBase.obj
 0001:0007c810       ?SetLexer@ScintillaBase@@IAEXK@Z 1007d810 f   ScintillaBase.obj
 0001:0007c870       ?SetLexerLanguage@ScintillaBase@@IAEXPBD@Z 1007d870 f   ScintillaBase.obj
 0001:0007c8e0       ?Colourise@ScintillaBase@@IAEXHH@Z 1007d8e0 f   ScintillaBase.obj
 0001:0007ca60       ?NotifyStyleToNeeded@ScintillaBase@@MAEXH@Z 1007da60 f   ScintillaBase.obj
 0001:0007cad0       ??1ScintillaBase@@MAE@XZ   1007dad0 f   ScintillaBase.obj
 0001:0007cb90       ?KeyCommand@ScintillaBase@@MAEHI@Z 1007db90 f   ScintillaBase.obj
 0001:0007cda0       ?AutoCompleteDoubleClick@ScintillaBase@@KAXPAX@Z 1007dda0 f   ScintillaBase.obj
 0001:0007cdb0       ?AutoCompleteStart@ScintillaBase@@IAEXHPBD@Z 1007ddb0 f   ScintillaBase.obj
 0001:0007d1b0       ?AutoCompleteCharacterAdded@ScintillaBase@@IAEXD@Z 1007e1b0 f   ScintillaBase.obj
 0001:0007d210       ?WndProc@ScintillaBase@@UAEJIKJ@Z 1007e210 f   ScintillaBase.obj
 0001:0007dac0       ?AddCharUTF@ScintillaBase@@MAEXPADI_N@Z 1007eac0 f   ScintillaBase.obj
 0001:0007db80       ??_GScintillaBase@@MAEPAXI@Z 1007eb80 f i ScintillaBase.obj
 0001:0007db80       ??_EScintillaBase@@MAEPAXI@Z 1007eb80 f i ScintillaBase.obj
 0001:0007dbb0       _IsEqualGUID               1007ebb0 f i ScintillaWin.obj
 0001:0007dc20       ??1ScintillaWin@@EAE@XZ    1007ec20 f   ScintillaWin.obj
 0001:0007dc30       ?Initialise@ScintillaWin@@EAEXXZ 1007ec30 f   ScintillaWin.obj
 0001:0007dc90       ?MainHWND@ScintillaWin@@AAEPAUHWND__@@XZ 1007ec90 f   ScintillaWin.obj
 0001:0007dca0       ?DragThreshold@ScintillaWin@@EAE_NVPoint@@0@Z 1007eca0 f   ScintillaWin.obj
 0001:0007dcf0       ?StartDrag@ScintillaWin@@EAEXXZ 1007ecf0 f   ScintillaWin.obj
 0001:0007dff0       ?HandleComposition@ScintillaWin@@AAEJKJ@Z 1007eff0 f   ScintillaWin.obj
 0001:0007e420       ?CodePageOfDocument@ScintillaWin@@AAEIXZ 1007f420 f   ScintillaWin.obj
 0001:0007e440       ?ValidCodePage@ScintillaWin@@EBE_NH@Z 1007f440 f   ScintillaWin.obj
 0001:0007e490       ?DefWndProc@ScintillaWin@@EAEJIKJ@Z 1007f490 f   ScintillaWin.obj
 0001:0007e4b0       ?SetTicking@ScintillaWin@@EAEX_N@Z 1007f4b0 f   ScintillaWin.obj
 0001:0007e540       ?SetIdle@ScintillaWin@@EAE_N_N@Z 1007f540 f   ScintillaWin.obj
 0001:0007e5c0       ?SetMouseCapture@ScintillaWin@@EAEX_N@Z 1007f5c0 f   ScintillaWin.obj
 0001:0007e610       ?HaveMouseCapture@ScintillaWin@@EAE_NXZ 1007f610 f   ScintillaWin.obj
 0001:0007e620       ?SetTrackMouseLeaveEvent@ScintillaWin@@EAEX_N@Z 1007f620 f   ScintillaWin.obj
 0001:0007e670       ?PaintContains@ScintillaWin@@EAE_NVPRectangle@@@Z 1007f670 f   ScintillaWin.obj
 0001:0007e730       ?ScrollText@ScintillaWin@@EAEXH@Z 1007f730 f   ScintillaWin.obj
 0001:0007e760       ?SetScrollInfo@ScintillaWin@@EAEHHPBUtagSCROLLINFO@@H@Z 1007f760 f   ScintillaWin.obj
 0001:0007e780       ?GetScrollInfo@ScintillaWin@@EAE_NHPAUtagSCROLLINFO@@@Z 1007f780 f   ScintillaWin.obj
 0001:0007e7a0       ?ChangeScrollPos@ScintillaWin@@AAEXHH@Z 1007f7a0 f   ScintillaWin.obj
 0001:0007e830       ?SetVerticalScrollPos@ScintillaWin@@EAEXXZ 1007f830 f   ScintillaWin.obj
 0001:0007e8b0       ?SetHorizontalScrollPos@ScintillaWin@@EAEXXZ 1007f8b0 f   ScintillaWin.obj
 0001:0007e930       ?ModifyScrollBars@ScintillaWin@@EAE_NHH@Z 1007f930 f   ScintillaWin.obj
 0001:0007eaa0       ?NotifyChange@ScintillaWin@@EAEXXZ 1007faa0 f   ScintillaWin.obj
 0001:0007ead0       ?NotifyFocus@ScintillaWin@@EAEX_N@Z 1007fad0 f   ScintillaWin.obj
 0001:0007eb20       ?GetCtrlID@ScintillaWin@@EAEHXZ 1007fb20 f   ScintillaWin.obj
 0001:0007eb30       ?NotifyParent@ScintillaWin@@EAEXUSCNotification@@@Z 1007fb30 f   ScintillaWin.obj
 0001:0007eb70       ?NotifyDoubleClick@ScintillaWin@@EAEXVPoint@@_N11@Z 1007fb70 f   ScintillaWin.obj
 0001:0007ebc0       ?CanPaste@ScintillaWin@@EAE_NXZ 1007fbc0 f   ScintillaWin.obj
 0001:0007ec00       ?InsertPasteText@ScintillaWin@@AAEXPBDHVSelectionPosition@@_N2@Z 1007fc00 f   ScintillaWin.obj
 0001:0007ed60       ?Paste@ScintillaWin@@EAEXXZ 1007fd60 f   ScintillaWin.obj
 0001:0007f080       ?AddToPopUp@ScintillaWin@@EAEXPBDH_N@Z 10080080 f   ScintillaWin.obj
 0001:0007f0e0       ?ClaimSelection@ScintillaWin@@EAEXXZ 100800e0 f   ScintillaWin.obj
 0001:0007f0f0       ?FormatEnumerator_AddRef@@YGKPAVFormatEnumerator@@@Z 100800f0 f   ScintillaWin.obj
 0001:0007f110       ?FormatEnumerator_Release@@YGKPAVFormatEnumerator@@@Z 10080110 f   ScintillaWin.obj
 0001:0007f130       ?FormatEnumerator_Next@@YGJPAVFormatEnumerator@@KPAUtagFORMATETC@@PAK@Z 10080130 f   ScintillaWin.obj
 0001:0007f1a0       ?FormatEnumerator_Skip@@YGJPAVFormatEnumerator@@K@Z 100801a0 f   ScintillaWin.obj
 0001:0007f1c0       ?FormatEnumerator_Reset@@YGJPAVFormatEnumerator@@@Z 100801c0 f   ScintillaWin.obj
 0001:0007f1e0       ??0FormatEnumerator@@QAE@HQAGH@Z 100801e0 f   ScintillaWin.obj
 0001:0007f220       ?DropSource_QueryContinueDrag@@YGJPAVDropSource@@HK@Z 10080220 f   ScintillaWin.obj
 0001:0007f250       ?DropSource_GiveFeedback@@YGJPAVDropSource@@K@Z 10080250 f   ScintillaWin.obj
 0001:0007f260       ??0DropSource@@QAE@XZ      10080260 f   ScintillaWin.obj
 0001:0007f270       ?DataObject_GetDataHere@@YGJPAVDataObject@@PAUtagFORMATETC@@PAUtagSTGMEDIUM@@@Z 10080270 f   ScintillaWin.obj
 0001:0007f280       ?DataObject_QueryGetData@@YGJPAVDataObject@@PAUtagFORMATETC@@@Z 10080280 f   ScintillaWin.obj
 0001:0007f300       ?DataObject_GetCanonicalFormatEtc@@YGJPAVDataObject@@PAUtagFORMATETC@@1@Z 10080300 f   ScintillaWin.obj
 0001:0007f340       ?DataObject_SetData@@YGJPAVDataObject@@PAUtagFORMATETC@@PAUtagSTGMEDIUM@@H@Z 10080340 f   ScintillaWin.obj
 0001:0007f350       ?DataObject_DAdvise@@YGJPAVDataObject@@PAUtagFORMATETC@@KPAUIAdviseSink@@PAK@Z 10080350 f   ScintillaWin.obj
 0001:0007f360       ?DataObject_DUnadvise@@YGJPAVDataObject@@K@Z 10080360 f   ScintillaWin.obj
 0001:0007f370       ?DataObject_EnumDAdvise@@YGJPAVDataObject@@PAPAUIEnumSTATDATA@@@Z 10080370 f   ScintillaWin.obj
 0001:0007f380       ??0DataObject@@QAE@XZ      10080380 f   ScintillaWin.obj
 0001:0007f390       ??0DropTarget@@QAE@XZ      10080390 f   ScintillaWin.obj
 0001:0007f3a0       ?ImeStartComposition@ScintillaWin@@AAEXXZ 100803a0 f   ScintillaWin.obj
 0001:0007f560       ?ImeEndComposition@ScintillaWin@@AAEXXZ 10080560 f   ScintillaWin.obj
 0001:0007f570       ?AddCharBytes@ScintillaWin@@AAEXDD@Z 10080570 f   ScintillaWin.obj
 0001:0007f6b0       ?GetIntelliMouseParameters@ScintillaWin@@AAEXXZ 100806b0 f   ScintillaWin.obj
 0001:0007f6d0       ?CopyToClipboard@ScintillaWin@@EAEXABVSelectionText@@@Z 100806d0 f   ScintillaWin.obj
 0001:0007f890       ?ScrollMessage@ScintillaWin@@AAEXI@Z 10080890 f   ScintillaWin.obj
 0001:0007f960       ?HorizontalScrollMessage@ScintillaWin@@AAEXI@Z 10080960 f   ScintillaWin.obj
 0001:0007fa40       ?RealizeWindowPalette@ScintillaWin@@AAEX_N@Z 10080a40 f   ScintillaWin.obj
 0001:0007fb00       ?FullPaintDC@ScintillaWin@@AAEXPAUHDC__@@@Z 10080b00 f   ScintillaWin.obj
 0001:0007fc20       ?IsCompatibleDC@ScintillaWin@@AAE_NPAUHDC__@@@Z 10080c20 f   ScintillaWin.obj
 0001:0007fcc0       ?EffectFromState@ScintillaWin@@AAEKK@Z 10080cc0 f   ScintillaWin.obj
 0001:0007fcf0       ?QueryInterface@ScintillaWin@@QAGJABU_GUID@@PAPAX@Z 10080cf0 f   ScintillaWin.obj
 0001:0007fd90       ?AddRef@ScintillaWin@@QAGKXZ 10080d90 f   ScintillaWin.obj
 0001:0007fda0       ?Release@ScintillaWin@@QAGKXZ 10080da0 f   ScintillaWin.obj
 0001:0007fdb0       ?DragEnter@ScintillaWin@@QAGJPAUIDataObject@@KU_POINTL@@PAK@Z 10080db0 f   ScintillaWin.obj
 0001:0007fe90       ?DragOver@ScintillaWin@@QAGJKU_POINTL@@PAK@Z 10080e90 f   ScintillaWin.obj
 0001:0007ffb0       ?DragLeave@ScintillaWin@@QAGJXZ 10080fb0 f   ScintillaWin.obj
 0001:00080030       ?Drop@ScintillaWin@@QAGJPAUIDataObject@@KU_POINTL@@PAK@Z 10081030 f   ScintillaWin.obj
 0001:00080380       ?GetData@ScintillaWin@@QAGJPAUtagFORMATETC@@PAUtagSTGMEDIUM@@@Z 10081380 f   ScintillaWin.obj
 0001:000804c0       ?Unregister@ScintillaWin@@SA_NXZ 100814c0 f   ScintillaWin.obj
 0001:00080500       ?HasCaretSizeChanged@ScintillaWin@@AAE_NXZ 10081500 f   ScintillaWin.obj
 0001:00080530       ?CreateSystemCaret@ScintillaWin@@AAEHXZ 10081530 f   ScintillaWin.obj
 0001:000805e0       ?DestroySystemCaret@ScintillaWin@@AAEHXZ 100815e0 f   ScintillaWin.obj
 0001:00080640       ?CTWndProc@ScintillaWin@@CGJPAUHWND__@@IIJ@Z 10081640 f   ScintillaWin.obj
 0001:00080850       ?DirectFunction@ScintillaWin@@CAJPAV1@IKJ@Z 10081850 f   ScintillaWin.obj
 0001:00080870       _Scintilla_DirectFunction@16 10081870 f   ScintillaWin.obj
 0001:00080890       _Scintilla_ReleaseResources 10081890 f   ScintillaWin.obj
 0001:000808d0       ??0ScintillaWin@@AAE@PAUHWND__@@@Z 100818d0 f   ScintillaWin.obj
 0001:00080a00       ?Finalise@ScintillaWin@@EAEXXZ 10081a00 f   ScintillaWin.obj
 0001:00080a40       ?UpdateSystemCaret@ScintillaWin@@EAEXXZ 10081a40 f   ScintillaWin.obj
 0001:00080ad0       ?CreateCallTipWindow@ScintillaWin@@EAEXVPRectangle@@@Z 10081ad0 f   ScintillaWin.obj
 0001:00080b30       ?FormatEnumerator_QueryInterface@@YGJPAVFormatEnumerator@@ABU_GUID@@PAPAX@Z 10081b30 f   ScintillaWin.obj
 0001:00080b90       ?FormatEnumerator_Clone@@YGJPAVFormatEnumerator@@PAPAUIEnumFORMATETC@@@Z 10081b90 f   ScintillaWin.obj
 0001:00080c90       ?DropSource_QueryInterface@@YGJPAVDropSource@@ABU_GUID@@PAPAX@Z 10081c90 f   ScintillaWin.obj
 0001:00080cb0       ?DropSource_AddRef@@YGKPAVDropSource@@@Z 10081cb0 f   ScintillaWin.obj
 0001:00080cc0       ?DropSource_Release@@YGKPAVDropSource@@@Z 10081cc0 f   ScintillaWin.obj
 0001:00080cd0       ?DataObject_QueryInterface@@YGJPAVDataObject@@ABU_GUID@@PAPAX@Z 10081cd0 f   ScintillaWin.obj
 0001:00080cf0       ?DataObject_AddRef@@YGKPAVDataObject@@@Z 10081cf0 f   ScintillaWin.obj
 0001:00080d00       ?DataObject_Release@@YGKPAVDataObject@@@Z 10081d00 f   ScintillaWin.obj
 0001:00080d10       ?DataObject_GetData@@YGJPAVDataObject@@PAUtagFORMATETC@@PAUtagSTGMEDIUM@@@Z 10081d10 f   ScintillaWin.obj
 0001:00080d30       ?DataObject_EnumFormatEtc@@YGJPAVDataObject@@KPAPAUIEnumFORMATETC@@@Z 10081d30 f   ScintillaWin.obj
 0001:00080ed0       ?DropTarget_QueryInterface@@YGJPAVDropTarget@@ABU_GUID@@PAPAX@Z 10081ed0 f   ScintillaWin.obj
 0001:00080ef0       ?DropTarget_AddRef@@YGKPAVDropTarget@@@Z 10081ef0 f   ScintillaWin.obj
 0001:00080f00       ?DropTarget_Release@@YGKPAVDropTarget@@@Z 10081f00 f   ScintillaWin.obj
 0001:00080f10       ?DropTarget_DragEnter@@YGJPAVDropTarget@@PAUIDataObject@@KU_POINTL@@PAK@Z 10081f10 f   ScintillaWin.obj
 0001:00080fb0       ?DropTarget_DragOver@@YGJPAVDropTarget@@KU_POINTL@@PAK@Z 10081fb0 f   ScintillaWin.obj
 0001:00081040       ?DropTarget_DragLeave@@YGJPAVDropTarget@@@Z 10082040 f   ScintillaWin.obj
 0001:000810c0       ?DropTarget_Drop@@YGJPAVDropTarget@@PAUIDataObject@@KU_POINTL@@PAK@Z 100820c0 f   ScintillaWin.obj
 0001:00081160       ?FullPaint@ScintillaWin@@AAEXXZ 10082160 f   ScintillaWin.obj
 0001:00081190       ?SWndProc@ScintillaWin@@CGJPAUHWND__@@IIJ@Z 10082190 f   ScintillaWin.obj
 0001:000812f0       ?WndPaint@ScintillaWin@@AAEJK@Z 100822f0 f   ScintillaWin.obj
 0001:000814e0       ?WndProc@ScintillaWin@@UAEJIKJ@Z 100824e0 f   ScintillaWin.obj
 0001:00082230       ?Copy@ScintillaWin@@EAEXXZ 10083230 f   ScintillaWin.obj
 0001:000822c0       ?CopyAllowLine@ScintillaWin@@EAEXXZ 100832c0 f   ScintillaWin.obj
 0001:00082340       ?Register@ScintillaWin@@SA_NPAUHINSTANCE__@@@Z 10083340 f   ScintillaWin.obj
 0001:00082420       _Scintilla_RegisterClasses 10083420 f   ScintillaWin.obj
 0001:00082450       _DllMain@12                10083450 f   ScintillaWin.obj
 0001:000824c0       ?CaseFolderForEncoding@ScintillaWin@@EAEPAVCaseFolder@@XZ 100834c0 f   ScintillaWin.obj
 0001:00082660       ?CaseMapString@ScintillaWin@@EAE?AV?$basic_string@DU?$char_traits@D@std@@V?$allocator@D@2@@std@@ABV23@H@Z 10083660 f   ScintillaWin.obj
 0001:000829c0       ?Allocate@GlobalMemory@@QAEXI@Z 100839c0 f i ScintillaWin.obj
 0001:000829f0       ?Unlock@GlobalMemory@@QAEPAXXZ 100839f0 f i ScintillaWin.obj
 0001:00082a10       ??_GScintillaWin@@EAEPAXI@Z 10083a10 f i ScintillaWin.obj
 0001:00082a10       ??_EScintillaWin@@EAEPAXI@Z 10083a10 f i ScintillaWin.obj
 0001:00082a40       ?allocate@?$allocator@_W@std@@QAEPA_WI@Z 10083a40 f i ScintillaWin.obj
 0001:00082aa0       ?reserve@?$vector@_WV?$allocator@_W@std@@@std@@QAEXI@Z 10083aa0 f i ScintillaWin.obj
 0001:00082b20       ?_Reserve@?$vector@_WV?$allocator@_W@std@@@std@@IAEXI@Z 10083b20 f i ScintillaWin.obj
 0001:00082b80       ??0CaseFolderUTF8@@QAE@XZ  10083b80 f i ScintillaWin.obj
 0001:00082c00       ??1CaseFolderUTF8@@UAE@XZ  10083c00 f i ScintillaWin.obj
 0001:00082c60       ?resize@?$vector@_WV?$allocator@_W@std@@@std@@QAEXI@Z 10083c60 f i ScintillaWin.obj
 0001:00082cf0       ?Fold@CaseFolderUTF8@@UAEIPADIPBDI@Z 10083cf0 f i ScintillaWin.obj
 0001:00082e00       ??_GCaseFolderUTF8@@UAEPAXI@Z 10083e00 f i ScintillaWin.obj
 0001:00082e00       ??_ECaseFolderUTF8@@UAEPAXI@Z 10083e00 f i ScintillaWin.obj
 0001:00082e30       ?MoveForInsertDelete@SelectionPosition@@QAEX_NHH@Z 10083e30 f   Selection.obj
 0001:00082e70       ??MSelectionPosition@@QBE_NABV0@@Z 10083e70 f   Selection.obj
 0001:00082ea0       ??OSelectionPosition@@QBE_NABV0@@Z 10083ea0 f   Selection.obj
 0001:00082ed0       ??NSelectionPosition@@QBE_NABV0@@Z 10083ed0 f   Selection.obj
 0001:00082f10       ??PSelectionPosition@@QBE_NABV0@@Z 10083f10 f   Selection.obj
 0001:00082f50       ?Length@SelectionRange@@QBEHXZ 10083f50 f   Selection.obj
 0001:00082f80       ?Contains@SelectionRange@@QBE_NH@Z 10083f80 f   Selection.obj
 0001:00082fc0       ?Contains@SelectionRange@@QBE_NVSelectionPosition@@@Z 10083fc0 f   Selection.obj
 0001:00083070       ?ContainsCharacter@SelectionRange@@QBE_NH@Z 10084070 f   Selection.obj
 0001:000830b0       ?MinimizeVirtualSpace@SelectionRange@@QAEXXZ 100840b0 f   Selection.obj
 0001:000830d0       ?IsRectangular@Selection@@QBE_NXZ 100840d0 f   Selection.obj
 0001:000830f0       ?Rectangular@Selection@@QAEAAUSelectionRange@@XZ 100840f0 f   Selection.obj
 0001:00083100       ?Main@Selection@@QBEIXZ    10084100 f   Selection.obj
 0001:00083110       ?SetMain@Selection@@QAEXI@Z 10084110 f   Selection.obj
 0001:00083120       ?MoveExtends@Selection@@QBE_NXZ 10084120 f   Selection.obj
 0001:00083130       ?SetMoveExtends@Selection@@QAEX_N@Z 10084130 f   Selection.obj
 0001:00083140       ?Intersect@SelectionRange@@QBE?AUSelectionSegment@@U2@@Z 10084140 f   Selection.obj
 0001:00083230       ?Trim@SelectionRange@@QAE_NU1@@Z 10084230 f   Selection.obj
 0001:00083410       ?MainCaret@Selection@@QBEHXZ 10084410 f   Selection.obj
 0001:00083420       ?MainAnchor@Selection@@QBEHXZ 10084420 f   Selection.obj
 0001:00083430       ?Limits@Selection@@QBE?AUSelectionSegment@@XZ 10084430 f   Selection.obj
 0001:00083550       ?LimitsForRectangularElseMain@Selection@@QBE?AUSelectionSegment@@XZ 10084550 f   Selection.obj
 0001:000835a0       ?Count@Selection@@QBEIXZ   100845a0 f   Selection.obj
 0001:000835b0       ?Range@Selection@@QAEAAUSelectionRange@@I@Z 100845b0 f   Selection.obj
 0001:000835c0       ?RangeMain@Selection@@QAEAAUSelectionRange@@XZ 100845c0 f   Selection.obj
 0001:000835d0       ?Empty@Selection@@QBE_NXZ  100845d0 f   Selection.obj
 0001:00083610       ?Last@Selection@@QBE?AVSelectionPosition@@XZ 10084610 f   Selection.obj
 0001:00083690       ?Length@Selection@@QBEHXZ  10084690 f   Selection.obj
 0001:000836d0       ?MovePositions@Selection@@QAEX_NHH@Z 100846d0 f   Selection.obj
 0001:00083770       ?CharacterInSelection@Selection@@QBEHH@Z 10084770 f   Selection.obj
 0001:000837f0       ?InSelectionForEOL@Selection@@QBEHH@Z 100847f0 f   Selection.obj
 0001:000838b0       ?VirtualSpaceFor@Selection@@QBEHH@Z 100848b0 f   Selection.obj
 0001:000838f0       ?RotateMain@Selection@@QAEXXZ 100848f0 f   Selection.obj
 0001:00083910       ?TrimSelection@Selection@@QAEXUSelectionRange@@@Z 10084910 f   Selection.obj
 0001:000839e0       ??1Selection@@QAE@XZ       100849e0 f   Selection.obj
 0001:00083a20       ?RemoveDuplicates@Selection@@QAEXXZ 10084a20 f   Selection.obj
 0001:00083b30       ?CommitTentative@Selection@@QAEXXZ 10084b30 f   Selection.obj
 0001:00083b70       ?SetSelection@Selection@@QAEXUSelectionRange@@@Z 10084b70 f   Selection.obj
 0001:00083c40       ?AddSelection@Selection@@QAEXUSelectionRange@@@Z 10084c40 f   Selection.obj
 0001:00083d00       ?TentativeSelection@Selection@@QAEXUSelectionRange@@@Z 10084d00 f   Selection.obj
 0001:00083d80       ?Clear@Selection@@QAEXXZ   10084d80 f   Selection.obj
 0001:00083e90       ??0Selection@@QAE@XZ       10084e90 f   Selection.obj
 0001:00083f20       ??$_Copy_impl@PAUSelectionRange@@PAU1@@std@@YAPAUSelectionRange@@PAU1@00@Z 10084f20 f i Selection.obj
 0001:00083f60       ??$_Uninit_move@PAUSelectionRange@@PAU1@V?$allocator@USelectionRange@@@std@@U1@@std@@YAPAUSelectionRange@@PAU1@00AAV?$allocator@USelectionRange@@@0@0U_Nonscalar_ptr_iterator_tag@0@@Z 10084f60 f i Selection.obj
 0001:00083f60       ??$_Uninit_copy@PAUSelectionRange@@PAU1@V?$allocator@USelectionRange@@@std@@@std@@YAPAUSelectionRange@@PAU1@00AAV?$allocator@USelectionRange@@@0@U_Nonscalar_ptr_iterator_tag@0@@Z 10084f60 f i Selection.obj
 0001:00083fa0       ??$_Ucopy@PAUSelectionRange@@@?$vector@USelectionRange@@V?$allocator@USelectionRange@@@std@@@std@@IAEPAUSelectionRange@@PAU2@00@Z 10084fa0 f i Selection.obj
 0001:00083fd0       ?reserve@?$vector@USelectionRange@@V?$allocator@USelectionRange@@@std@@@std@@QAEXI@Z 10084fd0 f i Selection.obj
 0001:000840a0       ?clear@?$vector@USelectionRange@@V?$allocator@USelectionRange@@@std@@@std@@QAEXXZ 100850a0 f i Selection.obj
 0001:000840e0       ?_Reserve@?$vector@USelectionRange@@V?$allocator@USelectionRange@@@std@@@std@@IAEXI@Z 100850e0 f i Selection.obj
 0001:00084140       ??4?$vector@USelectionRange@@V?$allocator@USelectionRange@@@std@@@std@@QAEAAV01@ABV01@@Z 10085140 f i Selection.obj
 0001:00084220       ??1Style@@QAE@XZ           10085220 f   Style.obj
 0001:00084290       ?Clear@Style@@QAEXVColourDesired@@0HPBDH_N222W4ecaseForced@1@222@Z 10085290 f   Style.obj
 0001:00084330       ?ClearTo@Style@@QAEXABV1@@Z 10085330 f   Style.obj
 0001:00084380       ?EquivalentFontTo@Style@@QBE_NPBV1@@Z 10085380 f   Style.obj
 0001:00084400       ?Realise@Style@@QAEXAAVSurface@@HPAV1@H@Z 10085400 f   Style.obj
 0001:00084510       ??0Style@@QAE@XZ           10085510 f   Style.obj
 0001:000845e0       ??0Style@@QAE@ABV0@@Z      100855e0 f   Style.obj
 0001:000846f0       ??4Style@@QAEAAV0@ABV0@@Z  100856f0 f   Style.obj
 0001:000847f0       ?GetCurrent@StyleContext@@QAEXPADI@Z 100857f0 f   StyleContext.obj
 0001:000848b0       ?GetCurrentLowered@StyleContext@@QAEXPADI@Z 100858b0 f   StyleContext.obj
 0001:000848e0       ?UTF8Length@@YAIPB_WI@Z    100858e0 f   UniConversion.obj
 0001:00084940       ?UTF8FromUTF16@@YAXPB_WIPADI@Z 10085940 f   UniConversion.obj
 0001:00084a60       ?UTF8CharLength@@YAIE@Z    10085a60 f   UniConversion.obj
 0001:00084a90       ?UTF16Length@@YAIPBDI@Z    10085a90 f   UniConversion.obj
 0001:00084ae0       ?UTF16FromUTF8@@YAIPBDIPA_WI@Z 10085ae0 f   UniConversion.obj
 0001:00084be0       ??0MarginStyle@@QAE@XZ     10085be0 f   ViewStyle.obj
 0001:00084bf0       ??0FontNames@@QAE@XZ       10085bf0 f   ViewStyle.obj
 0001:00084c30       ?Clear@FontNames@@QAEXXZ   10085c30 f   ViewStyle.obj
 0001:00084c70       ?Save@FontNames@@QAEPBDPBD@Z 10085c70 f   ViewStyle.obj
 0001:00084d80       ?RefreshColourPalette@ViewStyle@@QAEXAAVPalette@@_N@Z 10085d80 f   ViewStyle.obj
 0001:00084f20       ?Refresh@ViewStyle@@QAEXAAVSurface@@@Z 10085f20 f   ViewStyle.obj
 0001:000851b0       ?AllocStyles@ViewStyle@@QAEXI@Z 100861b0 f   ViewStyle.obj
 0001:000852f0       ?EnsureStyle@ViewStyle@@QAEXI@Z 100862f0 f   ViewStyle.obj
 0001:00085320       ?SetStyleFontName@ViewStyle@@QAEXHPBD@Z 10086320 f   ViewStyle.obj
 0001:00085350       ?ProtectionActive@ViewStyle@@QBE_NXZ 10086350 f   ViewStyle.obj
 0001:00085360       ?ValidStyle@ViewStyle@@QBE_NI@Z 10086360 f   ViewStyle.obj
 0001:00085380       ??1FontNames@@QAE@XZ       10086380 f   ViewStyle.obj
 0001:000853c0       ??1ViewStyle@@QAE@XZ       100863c0 f   ViewStyle.obj
 0001:00085480       ?ResetDefaultStyle@ViewStyle@@QAEXXZ 10086480 f   ViewStyle.obj
 0001:000854c0       ?ClearStyles@ViewStyle@@QAEXXZ 100864c0 f   ViewStyle.obj
 0001:00085530       ?Init@ViewStyle@@QAEXI@Z   10086530 f   ViewStyle.obj
 0001:00085930       ??0ViewStyle@@QAE@XZ       10086930 f   ViewStyle.obj
 0001:00085b60       ??0ViewStyle@@QAE@ABV0@@Z  10086b60 f   ViewStyle.obj
 0001:000861f0       ??0LineMarker@@QAE@XZ      100871f0 f i ViewStyle.obj
 0001:00086220       ??1LineMarker@@QAE@XZ      10087220 f i ViewStyle.obj
 0001:00086240       ??1WindowAccessor@@UAE@XZ  10087240 f   WindowAccessor.obj
 0001:00086250       ?InternalIsLeadByte@WindowAccessor@@MAE_ND@Z 10087250 f   WindowAccessor.obj
 0001:00086280       ?Fill@WindowAccessor@@MAEXH@Z 10087280 f   WindowAccessor.obj
 0001:00086340       ?Match@WindowAccessor@@UAE_NHPBD@Z 10087340 f   WindowAccessor.obj
 0001:000863c0       ?StyleAt@WindowAccessor@@UAEDH@Z 100873c0 f   WindowAccessor.obj
 0001:000863f0       ?GetLine@WindowAccessor@@UAEHH@Z 100873f0 f   WindowAccessor.obj
 0001:00086420       ?LineStart@WindowAccessor@@UAEHH@Z 10087420 f   WindowAccessor.obj
 0001:00086450       ?LevelAt@WindowAccessor@@UAEHH@Z 10087450 f   WindowAccessor.obj
 0001:00086480       ?Length@WindowAccessor@@UAEHXZ 10087480 f   WindowAccessor.obj
 0001:000864c0       ?GetLineState@WindowAccessor@@UAEHH@Z 100874c0 f   WindowAccessor.obj
 0001:000864f0       ?SetLineState@WindowAccessor@@UAEHHH@Z 100874f0 f   WindowAccessor.obj
 0001:00086520       ?StartAt@WindowAccessor@@UAEXID@Z 10087520 f   WindowAccessor.obj
 0001:00086550       ?StartSegment@WindowAccessor@@UAEXI@Z 10087550 f   WindowAccessor.obj
 0001:00086560       ?ColourTo@WindowAccessor@@UAEXIH@Z 10087560 f   WindowAccessor.obj
 0001:00086650       ?SetLevel@WindowAccessor@@UAEXHH@Z 10087650 f   WindowAccessor.obj
 0001:00086680       ?Flush@WindowAccessor@@UAEXXZ 10087680 f   WindowAccessor.obj
 0001:000866d0       ?IndentAmount@WindowAccessor@@UAEHHPAHP6A_NAAVAccessor@@HH@Z@Z 100876d0 f   WindowAccessor.obj
 0001:00086870       ?IndicatorFill@WindowAccessor@@UAEXHHHH@Z 10087870 f   WindowAccessor.obj
 0001:000868f0       ?Set@ColourDesired@@QAEXPBD@Z 100878f0 f i XPM.obj
 0001:00086ae0       ?ColourFromCode@XPM@@ABE?AVColourAllocated@@H@Z 10087ae0 f   XPM.obj
 0001:00086b00       ?FillRun@XPM@@AAEXPAVSurface@@HHHH@Z 10087b00 f   XPM.obj
 0001:00086b50       ?Clear@XPM@@QAEXXZ         10087b50 f   XPM.obj
 0001:00086b90       ?RefreshColourPalette@XPM@@QAEXAAVPalette@@_N@Z 10087b90 f   XPM.obj
 0001:00086be0       ?CopyDesiredColours@XPM@@QAEXXZ 10087be0 f   XPM.obj
 0001:00086c20       ?Draw@XPM@@QAEXPAVSurface@@AAVPRectangle@@@Z 10087c20 f   XPM.obj
 0001:00086d70       ?LinesFormFromTextForm@XPM@@SAPAPBDPBD@Z 10087d70 f   XPM.obj
 0001:00086e30       ??0XPMSet@@QAE@XZ          10087e30 f   XPM.obj
 0001:00086e50       ?Get@XPMSet@@QAEPAVXPM@@H@Z 10087e50 f   XPM.obj
 0001:00086e90       ?GetHeight@XPMSet@@QAEHXZ  10087e90 f   XPM.obj
 0001:00086ed0       ?GetWidth@XPMSet@@QAEHXZ   10087ed0 f   XPM.obj
 0001:00086f10       ??1XPM@@QAE@XZ             10087f10 f   XPM.obj
 0001:00086f50       ?Init@XPM@@QAEXPBQBD@Z     10087f50 f   XPM.obj
 0001:00087190       ?Clear@XPMSet@@QAEXXZ      10088190 f   XPM.obj
 0001:00087220       ??0XPM@@QAE@PBQBD@Z        10088220 f   XPM.obj
 0001:00087250       ?Init@XPM@@QAEXPBD@Z       10088250 f   XPM.obj
 0001:00087360       ??1XPMSet@@QAE@XZ          10088360 f   XPM.obj
 0001:00087370       ??0XPM@@QAE@PBD@Z          10088370 f   XPM.obj
 0001:000873a0       ?Add@XPMSet@@QAEXHPBD@Z    100883a0 f   XPM.obj
 0001:00087542       _ImmReleaseContext@8       10088542 f   imm32:IMM32.dll
 0001:00087548       _ImmSetCompositionWindow@8 10088548 f   imm32:IMM32.dll
 0001:0008754e       _ImmGetCompositionStringW@16 1008854e f   imm32:IMM32.dll
 0001:00087554       _ImmGetContext@4           10088554 f   imm32:IMM32.dll
 0001:0008755a       _ImmSetCompositionFontA@8  1008855a f   imm32:IMM32.dll
 0001:00087560       _ImmNotifyIME@16           10088560 f   imm32:IMM32.dll
 0001:00087580       _strchr                    10088580 f   LIBCMT:strchr.obj
 0001:00087586       ___from_strstr_to_strchr   10088586     LIBCMT:strchr.obj
 0001:00087640       _strncpy                   10088640 f   LIBCMT:strncpy.obj
 0001:00087764       _strncmp                   10088764 f   LIBCMT:strncmp.obj
 0001:00087824       @__security_check_cookie@4 10088824 f   LIBCMT:secchk.obj
 0001:00087833       ??1type_info@@UAE@XZ       10088833 f   LIBCMT:typinfo.obj
 0001:00087843       ??_Etype_info@@UAEPAXI@Z   10088843 f i LIBCMT:typinfo.obj
 0001:00087843       ??_Gtype_info@@UAEPAXI@Z   10088843 f i LIBCMT:typinfo.obj
 0001:00087864       ??8type_info@@QBE_NABV0@@Z 10088864 f   LIBCMT:typinfo.obj
 0001:00087884       ??3@YAXPAX@Z               10088884 f   LIBCMT:delete.obj
 0001:0008788f       ?_JumpToContinuation@@YGXPAXPAUEHRegistrationNode@@@Z 1008888f f   LIBCMT:_trnsctrl_.obj
 0001:000878c1       ?_CallMemberFunction2@@YGXPAX00H@Z 100888c1 f   LIBCMT:_trnsctrl_.obj
 0001:000878c1       ?_CallMemberFunction0@@YGXPAX0@Z 100888c1 f   LIBCMT:_trnsctrl_.obj
 0001:000878c1       ?_CallMemberFunction1@@YGXPAX00@Z 100888c1 f   LIBCMT:_trnsctrl_.obj
 0001:000878c8       ?_UnwindNestedFrames@@YGXPAUEHRegistrationNode@@PAUEHExceptionRecord@@@Z 100888c8 f   LIBCMT:_trnsctrl_.obj
 0001:0008791c       ___CxxFrameHandler3        1008891c f   LIBCMT:_trnsctrl_.obj
 0001:00087985       ?_CallSETranslator@@YAHPAUEHExceptionRecord@@PAUEHRegistrationNode@@PAX2PBU_s_FuncInfo@@H1@Z 10088985 f   LIBCMT:_trnsctrl_.obj
 0001:00087afb       ?_GetRangeOfTrysToCheck@@YAPBU_s_TryBlockMapEntry@@PBU_s_FuncInfo@@HHPAI1@Z 10088afb f   LIBCMT:_trnsctrl_.obj
 0001:00087b6e       __CreateFrameInfo          10088b6e f   LIBCMT:_trnsctrl_.obj
 0001:00087b9a       __IsExceptionObjectToBeDestroyed 10088b9a f   LIBCMT:_trnsctrl_.obj
 0001:00087bc1       __FindAndUnlinkFrame       10088bc1 f   LIBCMT:_trnsctrl_.obj
 0001:00087c13       ?_CallCatchBlock2@@YAPAXPAUEHRegistrationNode@@PBU_s_FuncInfo@@PAXHK@Z 10088c13 f   LIBCMT:_trnsctrl_.obj
 0001:00087c73       ??2@YAPAXI@Z               10088c73 f   LIBCMT:new.obj
 0001:00087d00       _memmove                   10088d00 f   LIBCMT:memmove.obj
 0001:00088061       ??_L@YGXPAXIHP6EX0@Z1@Z    10089061 f   LIBCMT:ehvecctr.obj
 0001:000880c6       ?__ArrayUnwind@@YGXPAXIHP6EX0@Z@Z 100890c6 f   LIBCMT:ehvecdtr.obj
 0001:00088124       ??_M@YGXPAXIHP6EX0@Z@Z     10089124 f   LIBCMT:ehvecdtr.obj
 0001:00088187       ??0_LocaleUpdate@@QAE@PAUlocaleinfo_struct@@@Z 10089187 f i LIBCMT:_ctype.obj
 0001:0008820e       __isalpha_l                1008920e f i LIBCMT:_ctype.obj
 0001:00088264       _isalpha                   10089264 f i LIBCMT:_ctype.obj
 0001:00088294       __isupper_l                10089294 f i LIBCMT:_ctype.obj
 0001:000882e5       _isupper                   100892e5 f i LIBCMT:_ctype.obj
 0001:00088313       __islower_l                10089313 f i LIBCMT:_ctype.obj
 0001:00088364       _islower                   10089364 f i LIBCMT:_ctype.obj
 0001:00088392       __isdigit_l                10089392 f i LIBCMT:_ctype.obj
 0001:000883e3       _isdigit                   100893e3 f i LIBCMT:_ctype.obj
 0001:00088411       __isxdigit_l               10089411 f i LIBCMT:_ctype.obj
 0001:00088467       _isxdigit                  10089467 f i LIBCMT:_ctype.obj
 0001:00088497       __isspace_l                10089497 f i LIBCMT:_ctype.obj
 0001:000884e8       _isspace                   100894e8 f i LIBCMT:_ctype.obj
 0001:00088516       __ispunct_l                10089516 f i LIBCMT:_ctype.obj
 0001:00088567       _ispunct                   10089567 f i LIBCMT:_ctype.obj
 0001:00088595       __isalnum_l                10089595 f i LIBCMT:_ctype.obj
 0001:000885eb       _isalnum                   100895eb f i LIBCMT:_ctype.obj
 0001:0008861b       __isgraph_l                1008961b f i LIBCMT:_ctype.obj
 0001:00088671       _isgraph                   10089671 f i LIBCMT:_ctype.obj
 0001:000886a1       __iscntrl_l                100896a1 f i LIBCMT:_ctype.obj
 0001:000886f2       _iscntrl                   100896f2 f i LIBCMT:_ctype.obj
 0001:00088720       ??0exception@std@@QAE@ABQBDH@Z 10089720 f   LIBCMT:stdexcpt.obj
 0001:0008873d       ?what@exception@std@@UBEPBDXZ 1008973d f   LIBCMT:stdexcpt.obj
 0001:0008874a       ?_Copy_str@exception@std@@AAEXPBD@Z 1008974a f   LIBCMT:stdexcpt.obj
 0001:0008878a       ?_Tidy@exception@std@@AAEXXZ 1008978a f   LIBCMT:stdexcpt.obj
 0001:000887a8       ??0exception@std@@QAE@ABQBD@Z 100897a8 f   LIBCMT:stdexcpt.obj
 0001:000887cf       ??4exception@std@@QAEAAV01@ABV01@@Z 100897cf f   LIBCMT:stdexcpt.obj
 0001:00088804       ??1exception@std@@UAE@XZ   10089804 f   LIBCMT:stdexcpt.obj
 0001:0008880f       ??_Eexception@std@@UAEPAXI@Z 1008980f f i LIBCMT:stdexcpt.obj
 0001:0008880f       ??_Gexception@std@@UAEPAXI@Z 1008980f f i LIBCMT:stdexcpt.obj
 0001:00088836       ??0exception@std@@QAE@ABV01@@Z 10089836 f   LIBCMT:stdexcpt.obj
 0001:0008885b       __purecall                 1008985b f   LIBCMT:purevirt.obj
 0001:00088885       ??_V@YAXPAX@Z              10089885 f   LIBCMT:delete2.obj
 0001:00088890       ??_U@YAPAXI@Z              10089890 f   LIBCMT:new2.obj
 0001:000888a0       _memcpy                    100898a0 f   LIBCMT:memcpy.obj
 0001:00088c01       __CxxThrowException@8      10089c01 f   LIBCMT:throw.obj
 0001:00088c50       _memset                    10089c50 f   LIBCMT:memset.obj
 0001:00088cca       _sprintf                   10089cca f   LIBCMT:sprintf.obj
 0001:00088d4e       __toupper_l                10089d4e f   LIBCMT:toupper.obj
 0001:00088e64       _toupper                   10089e64 f   LIBCMT:toupper.obj
 0001:00088e90       __tolower_l                10089e90 f   LIBCMT:tolower.obj
 0001:00088fa5       _tolower                   10089fa5 f   LIBCMT:tolower.obj
 0001:00088fe0       _strncat                   10089fe0 f   LIBCMT:strncat.obj
 0001:000891cb       ___onexitinit              1008a1cb f   LIBCMT:onexit.obj
 0001:000891fc       __onexit                   1008a1fc f   LIBCMT:onexit.obj
 0001:00089238       _atexit                    1008a238 f   LIBCMT:onexit.obj
 0001:000892e0       _qsort                     1008a2e0 f   LIBCMT:qsort.obj
 0001:0008956b       __isleadbyte_l             1008a56b f i LIBCMT:_wctype.obj
 0001:000895a3       _isleadbyte                1008a5a3 f i LIBCMT:_wctype.obj
 0001:000895b6       _iswdigit                  1008a5b6 f i LIBCMT:_wctype.obj
 0001:000895c9       _iswspace                  1008a5c9 f i LIBCMT:_wctype.obj
 0001:000895e0       _memchr                    1008a5e0 f   LIBCMT:memchr.obj
 0001:00089690       __chkstk                   1008a690 f   LIBCMT:chkstk.obj
 0001:00089690       __alloca_probe             1008a690     LIBCMT:chkstk.obj
 0001:000896bb       _atol                      1008a6bb f   LIBCMT:atox.obj
 0001:000896d1       _atoi                      1008a6d1 f   LIBCMT:atox.obj
 0001:000896e0       _strstr                    1008a6e0 f   LIBCMT:strstr.obj
 0001:00089766       _clock                     1008a766 f   LIBCMT:clock.obj
 0001:000897a0       ___inittime                1008a7a0 f   LIBCMT:clock.obj
 0001:000897ce       __cfltcvt_init             1008a7ce f   LIBCMT:_fpinit_.obj
 0001:0008982e       __fpmath                   1008a82e f   LIBCMT:_fpinit_.obj
 0001:00089847       _abort                     1008a847 f   LIBCMT:abort.obj
 0001:0008987a       __set_abort_behavior       1008a87a f   LIBCMT:abort.obj
 0001:0008989b       __CRT_INIT@12              1008a89b f   LIBCMT:dllcrt0.obj
 0001:00089af5       __DllMainCRTStartup@12     1008aaf5 f   LIBCMT:dllcrt0.obj
 0001:00089b18       ___report_gsfailure        1008ab18 f   LIBCMT:gs_report.obj
 0001:00089c1e       ?_Type_info_dtor@type_info@@CAXPAV1@@Z 1008ac1e f   LIBCMT:typname.obj
 0001:00089c90       _strcmp                    1008ac90 f   LIBCMT:strcmp.obj
 0001:00089d18       _free                      1008ad18 f   LIBCMT:free.obj
 0001:00089d52       ??1bad_exception@std@@UAE@XZ 1008ad52 f i LIBCMT:frame.obj
 0001:00089d5d       ??_Ebad_exception@std@@UAEPAXI@Z 1008ad5d f i LIBCMT:frame.obj
 0001:00089d5d       ??_Gbad_exception@std@@UAEPAXI@Z 1008ad5d f i LIBCMT:frame.obj
 0001:00089d84       ___TypeMatch               1008ad84 f   LIBCMT:frame.obj
 0001:00089de3       ___FrameUnwindFilter       1008ade3 f   LIBCMT:frame.obj
 0001:00089e32       ___FrameUnwindToState      1008ae32 f   LIBCMT:frame.obj
 0001:00089f53       ___DestructExceptionObject 1008af53 f   LIBCMT:frame.obj
 0001:00089fa8       ___AdjustPointer           1008afa8 f   LIBCMT:frame.obj
 0001:0008a231       ___BuildCatchObjectHelper  1008b231 f   LIBCMT:frame.obj
 0001:0008a3b0       ___BuildCatchObject        1008b3b0 f   LIBCMT:frame.obj
 0001:0008a92c       ??0bad_exception@std@@QAE@ABV01@@Z 1008b92c f i LIBCMT:frame.obj
 0001:0008a949       ___InternalCxxFrameHandler 1008b949 f   LIBCMT:frame.obj
 0001:0008aa2f       __encoded_null             1008ba2f f   LIBCMT:tidtable.obj
 0001:0008aa38       ___crtTlsAlloc@4           1008ba38 f   LIBCMT:tidtable.obj
 0001:0008aa41       ___set_flsgetvalue         1008ba41 f   LIBCMT:tidtable.obj
 0001:0008aa75       __mtterm                   1008ba75 f   LIBCMT:tidtable.obj
 0001:0008aab2       __initptd                  1008bab2 f   LIBCMT:tidtable.obj
 0001:0008ab66       __getptd_noexit            1008bb66 f   LIBCMT:tidtable.obj
 0001:0008abdf       __getptd                   1008bbdf f   LIBCMT:tidtable.obj
 0001:0008abf9       __freefls@4                1008bbf9 f   LIBCMT:tidtable.obj
 0001:0008ad28       __freeptd                  1008bd28 f   LIBCMT:tidtable.obj
 0001:0008ad96       __mtinit                   1008bd96 f   LIBCMT:tidtable.obj
 0001:0008af11       ?terminate@@YAXXZ          1008bf11 f   LIBCMT:hooks.obj
 0001:0008af4a       ?unexpected@@YAXXZ         1008bf4a f   LIBCMT:hooks.obj
 0001:0008af5d       ?_inconsistency@@YAXXZ     1008bf5d f   LIBCMT:hooks.obj
 0001:0008af95       __initp_eh_hooks           1008bf95 f   LIBCMT:hooks.obj
 0001:0008afb0       __CallSettingFrame@12      1008bfb0 f   LIBCMT:lowhelpr.obj
 0001:0008afd7       __NLG_Return               1008bfd7     LIBCMT:lowhelpr.obj
 0001:0008affc       _malloc                    1008bffc f   LIBCMT:malloc.obj
 0001:0008b090       __initp_heap_handler       1008c090 f   LIBCMT:handler.obj
 0001:0008b09f       __callnewh                 1008c09f f   LIBCMT:handler.obj
 0001:0008b0c7       __VEC_memcpy               1008c0c7 f   LIBCMT:p4_memcpy.obj
 0001:0008b1ca       ___sse2_available_init     1008c1ca f   LIBCMT:cpu_disp.obj
 0001:0008b1e0       __SEH_prolog4              1008c1e0 f   LIBCMT:sehprolg4.obj
 0001:0008b225       __SEH_epilog4              1008c225 f   LIBCMT:sehprolg4.obj
 0001:0008b240       __except_handler4          1008c240 f   LIBCMT:chandler4.obj
 0001:0008b5f2       ___updatetmbcinfo          1008c5f2 f   LIBCMT:mbctype.obj
 0001:0008b712       __setmbcp_nolock           1008c712 f   LIBCMT:mbctype.obj
 0001:0008b8fb       __setmbcp                  1008c8fb f   LIBCMT:mbctype.obj
 0001:0008ba95       ___initmbctable            1008ca95 f   LIBCMT:mbctype.obj
 0001:0008bab3       ___addlocaleref            1008cab3 f   LIBCMT:localref.obj
 0001:0008bb42       ___removelocaleref         1008cb42 f   LIBCMT:localref.obj
 0001:0008bbdb       ___freetlocinfo            1008cbdb f   LIBCMT:localref.obj
 0001:0008bd26       __updatetlocinfoEx_nolock  1008cd26 f   LIBCMT:localref.obj
 0001:0008bd73       ___updatetlocinfo          1008cd73 f   LIBCMT:localref.obj
 0001:0008bdec       __isctype_l                1008cdec f   LIBCMT:isctype.obj
 0001:0008bea4       _strcpy_s                  1008cea4 f   LIBCMT:strcpy_s.obj
 0001:0008bf10       _strlen                    1008cf10 f   LIBCMT:strlen.obj
 0001:0008bf9b       __GET_RTERRMSG             1008cf9b f   LIBCMT:crt0msg.obj
 0001:0008bfc1       __NMSG_WRITE               1008cfc1 f   LIBCMT:crt0msg.obj
 0001:0008c170       __FF_MSGBANNER             1008d170 f   LIBCMT:crt0msg.obj
 0001:0008c1a9       __initp_misc_purevirt      1008d1a9 f   LIBCMT:inithelp.obj
 0001:0008c1b8       __VEC_memzero              1008d1b8 f   LIBCMT:p4_memset.obj
 0001:0008c272       __flsbuf                   1008d272 f   LIBCMT:_flsbuf.obj
 0001:0008c47d       __output_l                 1008d47d f   LIBCMT:output.obj
 0001:0008d029       __initp_misc_invarg        1008e029 f   LIBCMT:invarg.obj
 0001:0008d038       __call_reportfault         1008e038 f   LIBCMT:invarg.obj
 0001:0008d161       __invoke_watson            1008e161 f   LIBCMT:invarg.obj
 0001:0008d186       __invalid_parameter        1008e186 f   LIBCMT:invarg.obj
 0001:0008d1b3       __invalid_parameter_noinfo 1008e1b3 f   LIBCMT:invarg.obj
 0001:0008d1c3       __get_errno_from_oserr     1008e1c3 f   LIBCMT:dosmap.obj
 0001:0008d205       __errno                    1008e205 f   LIBCMT:dosmap.obj
 0001:0008d218       ___doserrno                1008e218 f   LIBCMT:dosmap.obj
 0001:0008d22b       __dosmaperr                1008e22b f   LIBCMT:dosmap.obj
 0001:0008d24e       __freea                    1008e24e f i LIBCMT:a_map.obj
 0001:0008d455       ___crtLCMapStringA         1008e455 f   LIBCMT:a_map.obj
 0001:0008d49b       __malloc_crt               1008e49b f   LIBCMT:crtheap.obj
 0001:0008d4e0       __calloc_crt               1008e4e0 f   LIBCMT:crtheap.obj
 0001:0008d52c       __realloc_crt              1008e52c f   LIBCMT:crtheap.obj
 0001:0008d57a       __msize                    1008e57a f   LIBCMT:msize.obj
 0001:0008d5ad       ___crtCorExitProcess       1008e5ad f   LIBCMT:crt0dat.obj
 0001:0008d5d8       ___crtExitProcess          1008e5d8 f   LIBCMT:crt0dat.obj
 0001:0008d5f0       __lockexit                 1008e5f0 f   LIBCMT:crt0dat.obj
 0001:0008d5f9       __unlockexit               1008e5f9 f   LIBCMT:crt0dat.obj
 0001:0008d602       __init_pointers            1008e602 f   LIBCMT:crt0dat.obj
 0001:0008d635       __initterm_e               1008e635 f   LIBCMT:crt0dat.obj
 0001:0008d659       __cinit                    1008e659 f   LIBCMT:crt0dat.obj
 0001:0008d830       __exit                     1008e830 f   LIBCMT:crt0dat.obj
 0001:0008d846       __cexit                    1008e846 f   LIBCMT:crt0dat.obj
 0001:0008d855       __amsg_exit                1008e855 f   LIBCMT:crt0dat.obj
 0001:0008d873       _iswctype                  1008e873 f   LIBCMT:iswctype.obj
 0001:0008daf3       _strtol                    1008eaf3 f   LIBCMT:strtol.obj
 0001:0008db20       __aulldiv                  1008eb20 f   LIBCMT:ulldiv.obj
 0001:0008db88       __forcdecpt_l              1008eb88 f   LIBCMT:cvt.obj
 0001:0008dbfc       __cropzeros_l              1008ebfc f   LIBCMT:cvt.obj
 0001:0008dc7e       __positive                 1008ec7e f   LIBCMT:cvt.obj
 0001:0008dc9a       __fassign_l                1008ec9a f   LIBCMT:cvt.obj
 0001:0008dcdc       __fassign                  1008ecdc f   LIBCMT:cvt.obj
 0001:0008dd15       __forcdecpt                1008ed15 f   LIBCMT:cvt.obj
 0001:0008dd28       __cropzeros                1008ed28 f   LIBCMT:cvt.obj
 0001:0008de9c       __cftoe_l                  1008ee9c f   LIBCMT:cvt.obj
 0001:0008df63       __cftoe                    1008ef63 f   LIBCMT:cvt.obj
 0001:0008df83       __cftoa_l                  1008ef83 f   LIBCMT:cvt.obj
 0001:0008e3fc       __cftof_l                  1008f3fc f   LIBCMT:cvt.obj
 0001:0008e4bd       __cftog_l                  1008f4bd f   LIBCMT:cvt.obj
 0001:0008e5aa       __cfltcvt_l                1008f5aa f   LIBCMT:cvt.obj
 0001:0008e632       __cfltcvt                  1008f632 f   LIBCMT:cvt.obj
 0001:0008e655       __initp_misc_cfltcvt_tab   1008f655 f   LIBCMT:cmiscdat.obj
 0001:0008e678       __setdefaultprecision      1008f678 f   LIBCMT:fp8.obj
 0001:0008e6a0       __initp_misc_winsig        1008f6a0 f   LIBCMT:winsig.obj
 0001:0008e6f5       ___get_sigabrt             1008f6f5 f   LIBCMT:winsig.obj
 0001:0008e702       _raise                     1008f702 f   LIBCMT:winsig.obj
 0001:0008e8a5       __ioinit                   1008f8a5 f   LIBCMT:ioinit.obj
 0001:0008eaea       __ioterm                   1008faea f   LIBCMT:ioinit.obj
 0001:0008eb3d       __setenvp                  1008fb3d f   LIBCMT:stdenvp.obj
 0001:0008edb3       __setargv                  1008fdb3 f   LIBCMT:stdargv.obj
 0001:0008ee6e       ___crtGetEnvironmentStringsA 1008fe6e f   LIBCMT:a_env.obj
 0001:0008ef05       __RTC_Initialize           1008ff05 f   LIBCMT:_initsect_.obj
 0001:0008ef2b       __RTC_Terminate            1008ff2b f   LIBCMT:_initsect_.obj
 0001:0008ef51       __heap_init                1008ff51 f   LIBCMT:heapinit.obj
 0001:0008ef6f       __heap_term                1008ff6f f   LIBCMT:heapinit.obj
 0001:0008ef83       __XcptFilter               1008ff83 f   LIBCMT:winxfltr.obj
 0001:0008f0cd       ___CppXcptFilter           100900cd f   LIBCMT:winxfltr.obj
 0001:0008f0ed       ___security_init_cookie    100900ed f   LIBCMT:gs_support.obj
 0001:0008f188       __crt_debugger_hook        10090188 f   LIBCMT:dbghook.obj
 0001:0008f190       __mtinitlocks              10090190 f   LIBCMT:mlock.obj
 0001:0008f1da       __mtdeletelocks            100901da f   LIBCMT:mlock.obj
 0001:0008f231       __unlock                   10090231 f   LIBCMT:mlock.obj
 0001:0008f248       __mtinitlocknum            10090248 f   LIBCMT:mlock.obj
 0001:0008f30a       __lock                     1009030a f   LIBCMT:mlock.obj
 0001:0008f340       __local_unwind4            10090340 f   LIBCMT:exsup4.obj
 0001:0008f416       __seh_longjmp_unwind4@4    10090416 f   LIBCMT:exsup4.obj
 0001:0008f432       @_EH4_CallFilterFunc@8     10090432 f   LIBCMT:exsup4.obj
 0001:0008f449       @_EH4_TransferToHandler@8  10090449 f   LIBCMT:exsup4.obj
 0001:0008f462       @_EH4_GlobalUnwind2@8      10090462 f   LIBCMT:exsup4.obj
 0001:0008f47b       @_EH4_LocalUnwind@16       1009047b f   LIBCMT:exsup4.obj
 0001:0008f492       __EH_prolog3_catch         10090492 f   LIBCMT:ehprolg3.obj
 0001:0008f4c8       ?_ValidateWrite@@YAHPAXI@Z 100904c8 f   LIBCMT:validate.obj
 0001:0008f4c8       ?_ValidateExecute@@YAHP6GHXZ@Z 100904c8 f   LIBCMT:validate.obj
 0001:0008f4c8       ?_ValidateRead@@YAHPBXI@Z  100904c8 f   LIBCMT:validate.obj
 0001:0008f4e0       __global_unwind2           100904e0 f   LIBCMT:exsup.obj
 0001:0008f545       __local_unwind2            10090545 f   LIBCMT:exsup.obj
 0001:0008f5c9       __abnormal_termination     100905c9 f   LIBCMT:exsup.obj
 0001:0008f5ec       __NLG_Notify1              100905ec f   LIBCMT:exsup.obj
 0001:0008f5f5       __NLG_Notify               100905f5 f   LIBCMT:exsup.obj
 0001:0008f60c       __NLG_Dispatch             1009060c     LIBCMT:exsup.obj
 0001:0008f60c       __NLG_Dispatch2            1009060c     LIBCMT:exsup.obj
 0001:0008f614       __NLG_Call                 10090614 f   LIBCMT:exsup.obj
 0001:0008f616       __NLG_Return2              10090616     LIBCMT:exsup.obj
 0001:0008f620       __ValidateImageBase        10090620 f   LIBCMT:pesect.obj
 0001:0008f660       __FindPESection            10090660 f   LIBCMT:pesect.obj
 0001:0008f6b0       __IsNonwritableInCurrentImage 100906b0 f   LIBCMT:pesect.obj
 0001:0008f853       ___crtGetStringTypeA       10090853 f   LIBCMT:a_str.obj
 0001:0008f893       ___free_lc_time            10090893 f   LIBCMT:inittime.obj
 0001:0008fc0a       ___free_lconv_num          10090c0a f   LIBCMT:initnum.obj
 0001:0008fc73       ___free_lconv_mon          10090c73 f   LIBCMT:initmon.obj
 0001:0008fd80       _strcspn                   10090d80 f   LIBCMT:strcspn.obj
 0001:0008fdd0       _strpbrk                   10090dd0 f   LIBCMT:strpbrk.obj
 0001:0008fe10       ___crtMessageBoxW          10090e10 f   LIBCMT:crtmboxw.obj
 0001:0008ff7c       _wcscat_s                  10090f7c f   LIBCMT:wcscat_s.obj
 0001:0008fff1       _wcsncpy_s                 10090ff1 f   LIBCMT:wcsncpy_s.obj
 0001:000900be       _wcslen                    100910be f   LIBCMT:wcslen.obj
 0001:000900d9       _wcscpy_s                  100910d9 f   LIBCMT:wcscpy_s.obj
 0001:0009013c       __set_error_mode           1009113c f   LIBCMT:errmode.obj
 0001:0009017b       __lseeki64_nolock          1009117b f   LIBCMT:lseeki64.obj
 0001:00090200       __lseeki64                 10091200 f   LIBCMT:lseeki64.obj
 0001:000902ea       __write_nolock             100912ea f   LIBCMT:write.obj
 0001:000909e7       __write                    100919e7 f   LIBCMT:write.obj
 0001:00090abb       __getbuf                   10091abb f   LIBCMT:_getbuf.obj
 0001:00090b04       __isatty                   10091b04 f   LIBCMT:isatty.obj
 0001:00090b5a       ___iob_func                10091b5a f   LIBCMT:_file.obj
 0001:00090b60       ___initstdio               10091b60 f   LIBCMT:_file.obj
 0001:00090c11       ___endstdio                10091c11 f   LIBCMT:_file.obj
 0001:00090c31       __lock_file                10091c31 f   LIBCMT:_file.obj
 0001:00090c72       __lock_file2               10091c72 f   LIBCMT:_file.obj
 0001:00090ca4       __unlock_file              10091ca4 f   LIBCMT:_file.obj
 0001:00090ce0       __unlock_file2             10091ce0 f   LIBCMT:_file.obj
 0001:00090d0f       __fileno                   10091d0f f   LIBCMT:fileno.obj
 0001:00090d35       __get_printf_count_output  10091d35 f   LIBCMT:printf.obj
 0001:00090d4b       __wctomb_s_l               10091d4b f   LIBCMT:wctomb.obj
 0001:00090ea0       _wctomb_s                  10091ea0 f   LIBCMT:wctomb.obj
 0001:00090ec0       __aulldvrm                 10091ec0 f   LIBCMT:ulldvrm.obj
 0001:00090f60       __alloca_probe_16          10091f60 f   LIBCMT:alloca16.obj
 0001:00090f76       __alloca_probe_8           10091f76     LIBCMT:alloca16.obj
 0001:00090f8c       __calloc_impl              10091f8c f   LIBCMT:calloc_impl.obj
 0001:0009100e       _realloc                   1009200e f   LIBCMT:realloc.obj
 0001:000910bb       __initp_misc_rand_s        100920bb f   LIBCMT:rand_s.obj
 0001:000910d0       __allmul                   100920d0 f   LIBCMT:llmul.obj
 0001:00091110       _strrchr                   10092110 f   LIBCMT:strrchr.obj
 0001:0009113d       __atodbl_l                 1009213d f   LIBCMT:atodbl.obj
 0001:000911e5       __atoflt_l                 100921e5 f   LIBCMT:atodbl.obj
 0001:0009128d       __fptostr                  1009228d f   LIBCMT:_fptostr.obj
 0001:00091340       ___dtold                   10092340 f   LIBCMT:_cfout_.obj
 0001:000913f3       __fltout2                  100923f3 f   LIBCMT:_cfout_.obj
 0001:00091490       __alldvrm                  10092490 f   LIBCMT:lldvrm.obj
 0001:00091570       __aullshr                  10092570 f   LIBCMT:ullshr.obj
 0001:0009158f       __fptrap                   1009258f f   LIBCMT:crt0fp.obj
 0001:00091598       __controlfp_s              10092598 f   LIBCMT:_contrlfp_.obj
 0001:0009164a       __ismbblead                1009264a f   LIBCMT:ismbbyte.obj
 0001:00091662       __free_osfhnd              10092662 f   LIBCMT:osfinfo.obj
 0001:000916e8       __get_osfhandle            100926e8 f   LIBCMT:osfinfo.obj
 0001:00091751       ___lock_fhandle            10092751 f   LIBCMT:osfinfo.obj
 0001:000917f0       __unlock_fhandle           100927f0 f   LIBCMT:osfinfo.obj
 0001:00091817       __putwch_nolock            10092817 f   LIBCMT:putwch.obj
 0001:00091859       __mbtowc_l                 10092859 f   LIBCMT:mbtowc.obj
 0001:0009196f       _mbtowc                    1009296f f   LIBCMT:mbtowc.obj
 0001:00091989       __fcloseall                10092989 f   LIBCMT:closeall.obj
 0001:00091a25       __flush                    10092a25 f   LIBCMT:fflush.obj
 0001:00091a8d       __fflush_nolock            10092a8d f   LIBCMT:fflush.obj
 0001:00091baf       __flushall                 10092baf f   LIBCMT:fflush.obj
 0001:00091bb8       __ld12tod                  10092bb8 f   LIBCMT:_intrncvt_.obj
 0001:00092109       __ld12tof                  10093109 f   LIBCMT:_intrncvt_.obj
 0001:0009265a       ___strgtold12_l            1009365a f   LIBCMT:_strgtold_.obj
 0001:00092d36       _$I10_OUTPUT               10093d36 f   LIBCMT:_x10fout_.obj
 0001:0009375c       __control87                1009475c f i LIBCMT:_ieee87_.obj
 0001:00093a70       ___ascii_strnicmp          10094a70 f   LIBCMT:_strnicm.obj
 0001:00093ad1       ___initconout              10094ad1 f   LIBCMT:initcon.obj
 0001:00093af0       ___termconout              10094af0 f   LIBCMT:initcon.obj
 0001:00093b07       __fclose_nolock            10094b07 f   LIBCMT:fclose.obj
 0001:00093b74       _fclose                    10094b74 f   LIBCMT:fclose.obj
 0001:00093be8       __commit                   10094be8 f   LIBCMT:commit.obj
 0001:00093cc1       ___mtold12                 10094cc1 f   LIBCMT:_mantold_.obj
 0001:00093ea5       ___set_fpsr_sse2           10094ea5 f   LIBCMT:_fpctrl_.obj
 0001:00093f17       __close_nolock             10094f17 f   LIBCMT:close.obj
 0001:00093fb3       __close                    10094fb3 f   LIBCMT:close.obj
 0001:00094077       __freebuf                  10095077 f   LIBCMT:_freebuf.obj
 0001:000940a8       ??1length_error@std@@UAE@XZ 100950a8 f i libcpmt:xthrow.obj
 0001:000940a8       ??1out_of_range@std@@UAE@XZ 100950a8 f i libcpmt:xthrow.obj
 0001:000940ad       ??0logic_error@std@@QAE@ABV01@@Z 100950ad f i libcpmt:xthrow.obj
 0001:000940ca       ?_Xlength_error@std@@YAXPBD@Z 100950ca f   libcpmt:xthrow.obj
 0001:000940fa       ??0length_error@std@@QAE@ABV01@@Z 100950fa f i libcpmt:xthrow.obj
 0001:00094117       ?_Xout_of_range@std@@YAXPBD@Z 10095117 f   libcpmt:xthrow.obj
 0001:00094147       ??0out_of_range@std@@QAE@ABV01@@Z 10095147 f i libcpmt:xthrow.obj
 0001:00094164       ??_Glength_error@std@@UAEPAXI@Z 10095164 f i libcpmt:xthrow.obj
 0001:00094164       ??_Eout_of_range@std@@UAEPAXI@Z 10095164 f i libcpmt:xthrow.obj
 0001:00094164       ??_Glogic_error@std@@UAEPAXI@Z 10095164 f i libcpmt:xthrow.obj
 0001:00094164       ??_Elength_error@std@@UAEPAXI@Z 10095164 f i libcpmt:xthrow.obj
 0001:00094164       ??_Gout_of_range@std@@UAEPAXI@Z 10095164 f i libcpmt:xthrow.obj
 0001:00094164       ??_Elogic_error@std@@UAEPAXI@Z 10095164 f i libcpmt:xthrow.obj
 0001:00094186       _RtlUnwind@16              10095186 f   kernel32:KERNEL32.dll
 0002:00000000       __imp__BitBlt@36           10099000     gdi32:GDI32.dll
 0002:00000004       __imp__CreateBitmap@20     10099004     gdi32:GDI32.dll
 0002:00000008       __imp__CreateRectRgn@16    10099008     gdi32:GDI32.dll
 0002:0000000c       __imp__CombineRgn@16       1009900c     gdi32:GDI32.dll
 0002:00000010       __imp__TranslateCharsetInfo@12 10099010     gdi32:GDI32.dll
 0002:00000014       __imp__SetBkMode@8         10099014     gdi32:GDI32.dll
 0002:00000018       __imp__ExtTextOutA@32      10099018     gdi32:GDI32.dll
 0002:0000001c       __imp__Ellipse@20          1009901c     gdi32:GDI32.dll
 0002:00000020       __imp__RoundRect@28        10099020     gdi32:GDI32.dll
 0002:00000024       __imp__CreatePatternBrush@4 10099024     gdi32:GDI32.dll
 0002:00000028       __imp__SetBkColor@8        10099028     gdi32:GDI32.dll
 0002:0000002c       __imp__ExtTextOutW@32      1009902c     gdi32:GDI32.dll
 0002:00000030       __imp__Rectangle@20        10099030     gdi32:GDI32.dll
 0002:00000034       __imp__Polygon@12          10099034     gdi32:GDI32.dll
 0002:00000038       __imp__LineTo@12           10099038     gdi32:GDI32.dll
 0002:0000003c       __imp__MoveToEx@16         1009903c     gdi32:GDI32.dll
 0002:00000040       __imp__GetDeviceCaps@8     10099040     gdi32:GDI32.dll
 0002:00000044       __imp__GetNearestColor@8   10099044     gdi32:GDI32.dll
 0002:00000048       __imp__CreateSolidBrush@4  10099048     gdi32:GDI32.dll
 0002:0000004c       __imp__CreatePen@12        1009904c     gdi32:GDI32.dll
 0002:00000050       __imp__CreateCompatibleBitmap@12 10099050     gdi32:GDI32.dll
 0002:00000054       __imp__CreateCompatibleDC@4 10099054     gdi32:GDI32.dll
 0002:00000058       __imp__SetTextAlign@8      10099058     gdi32:GDI32.dll
 0002:0000005c       __imp__SelectObject@8      1009905c     gdi32:GDI32.dll
 0002:00000060       __imp__SelectPalette@12    10099060     gdi32:GDI32.dll
 0002:00000064       __imp__DeleteDC@4          10099064     gdi32:GDI32.dll
 0002:00000068       __imp__DeleteObject@4      10099068     gdi32:GDI32.dll
 0002:0000006c       __imp__CreatePalette@4     1009906c     gdi32:GDI32.dll
 0002:00000070       __imp__GetTextExtentPoint32A@16 10099070     gdi32:GDI32.dll
 0002:00000074       __imp__GetTextMetricsW@8   10099074     gdi32:GDI32.dll
 0002:00000078       __imp__RealizePalette@4    10099078     gdi32:GDI32.dll
 0002:0000007c       __imp__IntersectClipRect@20 1009907c     gdi32:GDI32.dll
 0002:00000080       __imp__CreateFontIndirectW@4 10099080     gdi32:GDI32.dll
 0002:00000084       __imp__GetObjectW@12       10099084     gdi32:GDI32.dll
 0002:00000088       __imp__GetStockObject@4    10099088     gdi32:GDI32.dll
 0002:0000008c       __imp__CreateFontIndirectA@4 1009908c     gdi32:GDI32.dll
 0002:00000090       __imp__CreateDIBSection@24 10099090     gdi32:GDI32.dll
 0002:00000094       __imp__GetTextExtentPoint32W@16 10099094     gdi32:GDI32.dll
 0002:00000098       __imp__GetTextExtentExPointA@28 10099098     gdi32:GDI32.dll
 0002:0000009c       __imp__GetTextExtentExPointW@28 1009909c     gdi32:GDI32.dll
 0002:000000a0       __imp__SetTextColor@8      100990a0     gdi32:GDI32.dll
 0002:000000a4       \177GDI32_NULL_THUNK_DATA  100990a4     gdi32:GDI32.dll
 0002:000000a8       __imp__ImmSetCompositionFontA@8 100990a8     imm32:IMM32.dll
 0002:000000ac       __imp__ImmGetContext@4     100990ac     imm32:IMM32.dll
 0002:000000b0       __imp__ImmGetCompositionStringW@16 100990b0     imm32:IMM32.dll
 0002:000000b4       __imp__ImmSetCompositionWindow@8 100990b4     imm32:IMM32.dll
 0002:000000b8       __imp__ImmNotifyIME@16     100990b8     imm32:IMM32.dll
 0002:000000bc       __imp__ImmReleaseContext@8 100990bc     imm32:IMM32.dll
 0002:000000c0       \177IMM32_NULL_THUNK_DATA  100990c0     imm32:IMM32.dll
 0002:000000c4       __imp__GetCurrentProcessId@0 100990c4     kernel32:KERNEL32.dll
 0002:000000c8       __imp__HeapDestroy@4       100990c8     kernel32:KERNEL32.dll
 0002:000000cc       __imp__HeapCreate@12       100990cc     kernel32:KERNEL32.dll
 0002:000000d0       __imp__GetEnvironmentStringsW@0 100990d0     kernel32:KERNEL32.dll
 0002:000000d4       __imp__FreeEnvironmentStringsW@4 100990d4     kernel32:KERNEL32.dll
 0002:000000d8       __imp__GetModuleFileNameA@12 100990d8     kernel32:KERNEL32.dll
 0002:000000dc       __imp__GetStartupInfoW@4   100990dc     kernel32:KERNEL32.dll
 0002:000000e0       __imp__GetFileType@4       100990e0     kernel32:KERNEL32.dll
 0002:000000e4       __imp__InitializeCriticalSectionAndSpinCount@8 100990e4     kernel32:KERNEL32.dll
 0002:000000e8       __imp__SetHandleCount@4    100990e8     kernel32:KERNEL32.dll
 0002:000000ec       __imp__GetStringTypeW@16   100990ec     kernel32:KERNEL32.dll
 0002:000000f0       __imp__ExitProcess@4       100990f0     kernel32:KERNEL32.dll
 0002:000000f4       __imp__HeapSize@12         100990f4     kernel32:KERNEL32.dll
 0002:000000f8       __imp__Sleep@4             100990f8     kernel32:KERNEL32.dll
 0002:000000fc       __imp__GetModuleFileNameW@12 100990fc     kernel32:KERNEL32.dll
 0002:00000100       __imp__GetStdHandle@4      10099100     kernel32:KERNEL32.dll
 0002:00000104       __imp__GetOEMCP@0          10099104     kernel32:KERNEL32.dll
 0002:00000108       __imp__IsProcessorFeaturePresent@4 10099108     kernel32:KERNEL32.dll
 0002:0000010c       __imp__HeapAlloc@12        1009910c     kernel32:KERNEL32.dll
 0002:00000110       __imp__InterlockedDecrement@4 10099110     kernel32:KERNEL32.dll
 0002:00000114       __imp__SetLastError@4      10099114     kernel32:KERNEL32.dll
 0002:00000118       __imp__InterlockedIncrement@4 10099118     kernel32:KERNEL32.dll
 0002:0000011c       __imp__TlsFree@4           1009911c     kernel32:KERNEL32.dll
 0002:00000120       __imp__TlsSetValue@8       10099120     kernel32:KERNEL32.dll
 0002:00000124       __imp__TlsGetValue@4       10099124     kernel32:KERNEL32.dll
 0002:00000128       __imp__TlsAlloc@0          10099128     kernel32:KERNEL32.dll
 0002:0000012c       __imp__HeapFree@12         1009912c     kernel32:KERNEL32.dll
 0002:00000130       __imp__GetLastError@0      10099130     kernel32:KERNEL32.dll
 0002:00000134       __imp__IsDebuggerPresent@0 10099134     kernel32:KERNEL32.dll
 0002:00000138       __imp__SetUnhandledExceptionFilter@4 10099138     kernel32:KERNEL32.dll
 0002:0000013c       __imp__UnhandledExceptionFilter@4 1009913c     kernel32:KERNEL32.dll
 0002:00000140       __imp__GetCurrentProcess@0 10099140     kernel32:KERNEL32.dll
 0002:00000144       __imp__TerminateProcess@8  10099144     kernel32:KERNEL32.dll
 0002:00000148       __imp__GetCommandLineA@0   10099148     kernel32:KERNEL32.dll
 0002:0000014c       __imp__GetCurrentThreadId@0 1009914c     kernel32:KERNEL32.dll
 0002:00000150       __imp__GetSystemTimeAsFileTime@4 10099150     kernel32:KERNEL32.dll
 0002:00000154       __imp__RaiseException@16   10099154     kernel32:KERNEL32.dll
 0002:00000158       __imp__EncodePointer@4     10099158     kernel32:KERNEL32.dll
 0002:0000015c       __imp__DecodePointer@4     1009915c     kernel32:KERNEL32.dll
 0002:00000160       __imp__RtlUnwind@16        10099160     kernel32:KERNEL32.dll
 0002:00000164       __imp__SetFilePointer@16   10099164     kernel32:KERNEL32.dll
 0002:00000168       __imp__GetConsoleCP@0      10099168     kernel32:KERNEL32.dll
 0002:0000016c       __imp__GetConsoleMode@8    1009916c     kernel32:KERNEL32.dll
 0002:00000170       __imp__HeapReAlloc@16      10099170     kernel32:KERNEL32.dll
 0002:00000174       __imp__LCMapStringW@24     10099174     kernel32:KERNEL32.dll
 0002:00000178       __imp__GetTickCount@0      10099178     kernel32:KERNEL32.dll
 0002:0000017c       __imp__GlobalFree@4        1009917c     kernel32:KERNEL32.dll
 0002:00000180       __imp__GlobalSize@4        10099180     kernel32:KERNEL32.dll
 0002:00000184       __imp__GlobalUnlock@4      10099184     kernel32:KERNEL32.dll
 0002:00000188       __imp__GlobalAlloc@8       10099188     kernel32:KERNEL32.dll
 0002:0000018c       __imp__GlobalLock@4        1009918c     kernel32:KERNEL32.dll
 0002:00000190       __imp__IsValidCodePage@4   10099190     kernel32:KERNEL32.dll
 0002:00000194       __imp__FlushFileBuffers@4  10099194     kernel32:KERNEL32.dll
 0002:00000198       __imp__GetCPInfo@8         10099198     kernel32:KERNEL32.dll
 0002:0000019c       __imp__WideCharToMultiByte@32 1009919c     kernel32:KERNEL32.dll
 0002:000001a0       __imp__GetLocaleInfoA@16   100991a0     kernel32:KERNEL32.dll
 0002:000001a4       __imp__GetVersionExW@4     100991a4     kernel32:KERNEL32.dll
 0002:000001a8       __imp__InitializeCriticalSection@4 100991a8     kernel32:KERNEL32.dll
 0002:000001ac       __imp__LoadLibraryW@4      100991ac     kernel32:KERNEL32.dll
 0002:000001b0       __imp__GetProcAddress@8    100991b0     kernel32:KERNEL32.dll
 0002:000001b4       __imp__FreeLibrary@4       100991b4     kernel32:KERNEL32.dll
 0002:000001b8       __imp__LoadLibraryA@4      100991b8     kernel32:KERNEL32.dll
 0002:000001bc       __imp__MultiByteToWideChar@24 100991bc     kernel32:KERNEL32.dll
 0002:000001c0       __imp__DeleteCriticalSection@4 100991c0     kernel32:KERNEL32.dll
 0002:000001c4       __imp__DebugBreak@0        100991c4     kernel32:KERNEL32.dll
 0002:000001c8       __imp__IsDBCSLeadByteEx@8  100991c8     kernel32:KERNEL32.dll
 0002:000001cc       __imp__OutputDebugStringA@4 100991cc     kernel32:KERNEL32.dll
 0002:000001d0       __imp__QueryPerformanceFrequency@4 100991d0     kernel32:KERNEL32.dll
 0002:000001d4       __imp__QueryPerformanceCounter@4 100991d4     kernel32:KERNEL32.dll
 0002:000001d8       __imp__GetModuleHandleW@4  100991d8     kernel32:KERNEL32.dll
 0002:000001dc       __imp__GetACP@0            100991dc     kernel32:KERNEL32.dll
 0002:000001e0       __imp__MulDiv@12           100991e0     kernel32:KERNEL32.dll
 0002:000001e4       __imp__EnterCriticalSection@4 100991e4     kernel32:KERNEL32.dll
 0002:000001e8       __imp__LeaveCriticalSection@4 100991e8     kernel32:KERNEL32.dll
 0002:000001ec       __imp__SetStdHandle@8      100991ec     kernel32:KERNEL32.dll
 0002:000001f0       __imp__WriteConsoleW@20    100991f0     kernel32:KERNEL32.dll
 0002:000001f4       __imp__CreateFileW@28      100991f4     kernel32:KERNEL32.dll
 0002:000001f8       __imp__CloseHandle@4       100991f8     kernel32:KERNEL32.dll
 0002:000001fc       __imp__WriteFile@20        100991fc     kernel32:KERNEL32.dll
 0002:00000200       \177KERNEL32_NULL_THUNK_DATA 10099200     kernel32:KERNEL32.dll
 0002:00000204       __imp__IsChild@8           10099204     user32:USER32.dll
 0002:00000208       __imp__ClientToScreen@8    10099208     user32:USER32.dll
 0002:0000020c       __imp__IsWindowUnicode@4   1009920c     user32:USER32.dll
 0002:00000210       __imp__SetFocus@4          10099210     user32:USER32.dll
 0002:00000214       __imp__MsgWaitForMultipleObjects@20 10099214     user32:USER32.dll
 0002:00000218       __imp__PostMessageW@16     10099218     user32:USER32.dll
 0002:0000021c       __imp__GetUpdateRgn@12     1009921c     user32:USER32.dll
 0002:00000220       __imp__SetCaretPos@8       10099220     user32:USER32.dll
 0002:00000224       __imp__RegisterClipboardFormatW@4 10099224     user32:USER32.dll
 0002:00000228       __imp__HideCaret@4         10099228     user32:USER32.dll
 0002:0000022c       __imp__DestroyCaret@0      1009922c     user32:USER32.dll
 0002:00000230       __imp__CreateCaret@16      10099230     user32:USER32.dll
 0002:00000234       __imp__ShowCaret@4         10099234     user32:USER32.dll
 0002:00000238       __imp__ScreenToClient@8    10099238     user32:USER32.dll
 0002:0000023c       __imp__EmptyClipboard@0    1009923c     user32:USER32.dll
 0002:00000240       __imp__SystemParametersInfoW@16 10099240     user32:USER32.dll
 0002:00000244       __imp__AppendMenuA@16      10099244     user32:USER32.dll
 0002:00000248       __imp__OpenClipboard@4     10099248     user32:USER32.dll
 0002:0000024c       __imp__GetClipboardData@4  1009924c     user32:USER32.dll
 0002:00000250       __imp__GetWindowLongW@8    10099250     user32:USER32.dll
 0002:00000254       __imp__SetWindowLongW@12   10099254     user32:USER32.dll
 0002:00000258       __imp__FillRect@12         10099258     user32:USER32.dll
 0002:0000025c       __imp__DestroyWindow@4     1009925c     user32:USER32.dll
 0002:00000260       __imp__GetFocus@0          10099260     user32:USER32.dll
 0002:00000264       __imp__GetWindowRect@8     10099264     user32:USER32.dll
 0002:00000268       __imp__CloseClipboard@0    10099268     user32:USER32.dll
 0002:0000026c       __imp__SetClipboardData@8  1009926c     user32:USER32.dll
 0002:00000270       __imp__IsClipboardFormatAvailable@4 10099270     user32:USER32.dll
 0002:00000274       __imp__GetDlgCtrlID@4      10099274     user32:USER32.dll
 0002:00000278       __imp__GetScrollInfo@12    10099278     user32:USER32.dll
 0002:0000027c       __imp__SetScrollInfo@16    1009927c     user32:USER32.dll
 0002:00000280       __imp__ScrollWindow@20     10099280     user32:USER32.dll
 0002:00000284       __imp__UpdateWindow@4      10099284     user32:USER32.dll
 0002:00000288       __imp__SetTimer@16         10099288     user32:USER32.dll
 0002:0000028c       __imp__KillTimer@8         1009928c     user32:USER32.dll
 0002:00000290       __imp__GetKeyboardLayout@4 10099290     user32:USER32.dll
 0002:00000294       __imp__CreatePopupMenu@0   10099294     user32:USER32.dll
 0002:00000298       __imp__RegisterClassExW@4  10099298     user32:USER32.dll
 0002:0000029c       __imp__ReleaseCapture@0    1009929c     user32:USER32.dll
 0002:000002a0       __imp__InflateRect@12      100992a0     user32:USER32.dll
 0002:000002a4       __imp__DrawTextW@20        100992a4     user32:USER32.dll
 0002:000002a8       __imp__DrawTextA@20        100992a8     user32:USER32.dll
 0002:000002ac       __imp__DrawFocusRect@8     100992ac     user32:USER32.dll
 0002:000002b0       __imp__GetDC@4             100992b0     user32:USER32.dll
 0002:000002b4       __imp__ReleaseDC@8         100992b4     user32:USER32.dll
 0002:000002b8       __imp__FrameRect@12        100992b8     user32:USER32.dll
 0002:000002bc       __imp__MessageBoxA@16      100992bc     user32:USER32.dll
 0002:000002c0       __imp__GetKeyState@4       100992c0     user32:USER32.dll
 0002:000002c4       __imp__GetDoubleClickTime@0 100992c4     user32:USER32.dll
 0002:000002c8       __imp__GetSysColor@4       100992c8     user32:USER32.dll
 0002:000002cc       __imp__TrackPopupMenu@28   100992cc     user32:USER32.dll
 0002:000002d0       __imp__DestroyMenu@4       100992d0     user32:USER32.dll
 0002:000002d4       __imp__UnregisterClassW@8  100992d4     user32:USER32.dll
 0002:000002d8       __imp__BeginPaint@8        100992d8     user32:USER32.dll
 0002:000002dc       __imp__GetParent@4         100992dc     user32:USER32.dll
 0002:000002e0       __imp__EndPaint@8          100992e0     user32:USER32.dll
 0002:000002e4       __imp__CallWindowProcW@20  100992e4     user32:USER32.dll
 0002:000002e8       __imp__DefWindowProcW@16   100992e8     user32:USER32.dll
 0002:000002ec       __imp__GetCursorPos@4      100992ec     user32:USER32.dll
 0002:000002f0       __imp__SetCapture@4        100992f0     user32:USER32.dll
 0002:000002f4       __imp__GetSystemMetrics@4  100992f4     user32:USER32.dll
 0002:000002f8       __imp__AdjustWindowRectEx@16 100992f8     user32:USER32.dll
 0002:000002fc       __imp__CreateWindowExW@48  100992fc     user32:USER32.dll
 0002:00000300       __imp__MapWindowPoints@16  10099300     user32:USER32.dll
 0002:00000304       __imp__SetWindowTextA@8    10099304     user32:USER32.dll
 0002:00000308       __imp__LoadCursorW@8       10099308     user32:USER32.dll
 0002:0000030c       __imp__SetCursor@4         1009930c     user32:USER32.dll
 0002:00000310       __imp__SendMessageW@16     10099310     user32:USER32.dll
 0002:00000314       __imp__InvalidateRect@12   10099314     user32:USER32.dll
 0002:00000318       __imp__ShowWindow@8        10099318     user32:USER32.dll
 0002:0000031c       __imp__GetClientRect@8     1009931c     user32:USER32.dll
 0002:00000320       __imp__SetWindowPos@28     10099320     user32:USER32.dll
 0002:00000324       __imp__GetMessageTime@0    10099324     user32:USER32.dll
 0002:00000328       \177USER32_NULL_THUNK_DATA 10099328     user32:USER32.dll
 0002:0000032c       __imp__RegisterDragDrop@8  1009932c     ole32:ole32.dll
 0002:00000330       __imp__RevokeDragDrop@4    10099330     ole32:ole32.dll
 0002:00000334       __imp__OleUninitialize@0   10099334     ole32:ole32.dll
 0002:00000338       __imp__DoDragDrop@16       10099338     ole32:ole32.dll
 0002:0000033c       __imp__OleInitialize@4     1009933c     ole32:ole32.dll
 0002:00000340       \177ole32_NULL_THUNK_DATA  10099340     ole32:ole32.dll
 0002:00000344       __imp__pcre_exec           10099344     pcre:pcre.dll
 0002:00000348       __imp__pcre_compile        10099348     pcre:pcre.dll
 0002:0000034c       __imp__pcre_free           1009934c     pcre:pcre.dll
 0002:00000350       \177pcre_NULL_THUNK_DATA   10099350     pcre:pcre.dll
 0002:00000354       ___xc_a                    10099354     LIBCMT:crt0init.obj
 0002:000004d8       ___xc_z                    100994d8     LIBCMT:crt0init.obj
 0002:000004dc       ___xi_a                    100994dc     LIBCMT:crt0init.obj
 0002:000004f4       ___xi_z                    100994f4     LIBCMT:crt0init.obj
 0002:000004f8       ___xp_a                    100994f8     LIBCMT:crt0init.obj
 0002:00000504       ___xp_z                    10099504     LIBCMT:crt0init.obj
 0002:00000508       ___xt_a                    10099508     LIBCMT:crt0init.obj
 0002:0000050c       ___xt_z                    1009950c     LIBCMT:crt0init.obj
 0002:00000514       ??_7Window@@6B@            10099514     CallTip.obj
 0002:0000051c       ??_C@_0CC@DCACOJ@Bad?5GetCharRange?5?$CFd?5for?5?$CFd?5of?5?$CFd@ 1009951c     CellBuffer.obj
 0002:00000544       ??_7ContractionState@@6B@  10099544     ContractionState.obj
 0002:0000054c       ??_7bad_alloc@std@@6B@     1009954c     Document.obj
 0002:00000558       ??_7PerLine@@6B@           10099558     Document.obj
 0002:0000056c       ??_7RegexSearchBase@@6B@   1009956c     Document.obj
 0002:0000057c       ??_7CaseFolder@@6B@        1009957c     Document.obj
 0002:00000588       ??_7Document@@6B@          10099588     Document.obj
 0002:00000598       ??_C@_0BD@OLBABOEK@vector?$DMT?$DO?5too?5long?$AA@ 10099598     Document.obj
 0002:000005ac       ??_C@_01LIIJDEN@?$AN?$AA@  100995ac     Document.obj
 0002:000005b0       ??_C@_01EEMJAFIK@?6?$AA@   100995b0     Document.obj
 0002:000005b8       ??_7CaseFolderTable@@6B@   100995b8     Document.obj
 0002:000005c4       ??_7BuiltinRegex@@6B@      100995c4     Document.obj
 0002:000005d4       ??_7LineMarkers@@6B@       100995d4     Document.obj
 0002:000005e8       ??_7LineState@@6B@         100995e8     Document.obj
 0002:000005fc       ??_7LineAnnotation@@6B@    100995fc     Document.obj
 0002:00000610       ??_7LineLevels@@6B@        10099610     Document.obj
 0002:00000624       ??_7Accessor@@6B@          10099624     DocumentAccessor.obj
 0002:00000680       ??_7DocWatcher@@6B@        10099680     Editor.obj
 0002:00000698       ??_C@_03KOLNNKD@BAD?$AA@   10099698     Editor.obj
 0002:0000069c       ??_C@_02PLFPMECB@US?$AA@   1009969c     Editor.obj
 0002:000006a0       ??_C@_02POBANCKE@RS?$AA@   100996a0     Editor.obj
 0002:000006a4       ??_C@_02OEPNLDDP@GS?$AA@   100996a4     Editor.obj
 0002:000006a8       ??_C@_02OFDPNJAI@FS?$AA@   100996a8     Editor.obj
 0002:000006ac       ??_C@_03MHNPAEMD@ESC?$AA@  100996ac     Editor.obj
 0002:000006b0       ??_C@_03KPDLEBHD@SUB?$AA@  100996b0     Editor.obj
 0002:000006b4       ??_C@_02DDDIFIIO@EM?$AA@   100996b4     Editor.obj
 0002:000006b8       ??_C@_03EILIFCEM@CAN?$AA@  100996b8     Editor.obj
 0002:000006bc       ??_C@_03NLILCDAH@ETB?$AA@  100996bc     Editor.obj
 0002:000006c0       ??_C@_03KJEPHBL@SYN?$AA@   100996c0     Editor.obj
 0002:000006c4       ??_C@_03MHKFHONE@NAK?$AA@  100996c4     Editor.obj
 0002:000006c8       ??_C@_03DDLCPOH@DC4?$AA@   100996c8     Editor.obj
 0002:000006cc       ??_C@_03EMHKLJCA@DC3?$AA@  100996cc     Editor.obj
 0002:000006d0       ??_C@_03FFGBIIGB@DC2?$AA@  100996d0     Editor.obj
 0002:000006d4       ??_C@_03HOEMNLKC@DC1?$AA@  100996d4     Editor.obj
 0002:000006d8       ??_C@_03DOEDCAGN@DLE?$AA@  100996d8     Editor.obj
 0002:000006dc       ??_C@_02EPPPECEI@SI?$AA@   100996dc     Editor.obj
 0002:000006e0       ??_C@_02BJKFOFMO@SO?$AA@   100996e0     Editor.obj
 0002:000006e4       ??_C@_02PKOPCKKC@CR?$AA@   100996e4     Editor.obj
 0002:000006e8       ??_C@_02NCIKDPBM@FF?$AA@   100996e8     Editor.obj
 0002:000006ec       ??_C@_02LGFIOMLP@VT?$AA@   100996ec     Editor.obj
 0002:000006f0       ??_C@_02NPBNLKMK@LF?$AA@   100996f0     Editor.obj
 0002:000006f4       ??_C@_02KAOAGCMF@HT?$AA@   100996f4     Editor.obj
 0002:000006f8       ??_C@_02OCDGHBNE@BS?$AA@   100996f8     Editor.obj
 0002:000006fc       ??_C@_03MFDLPPHH@BEL?$AA@  100996fc     Editor.obj
 0002:00000700       ??_C@_03JMECLKOM@ACK?$AA@  10099700     Editor.obj
 0002:00000704       ??_C@_03KLNFEEDD@ENQ?$AA@  10099704     Editor.obj
 0002:00000708       ??_C@_03NHGANKEB@EOT?$AA@  10099708     Editor.obj
 0002:0000070c       ??_C@_03GLKGNJNM@ETX?$AA@  1009970c     Editor.obj
 0002:00000710       ??_C@_03BONENBJP@STX?$AA@  10099710     Editor.obj
 0002:00000714       ??_C@_03EEGFIPFP@SOH?$AA@  10099714     Editor.obj
 0002:00000718       ??_C@_03JDMLODLP@NUL?$AA@  10099718     Editor.obj
 0002:0000071c       ??_C@_02PCIJFNDE@?$AN?6?$AA@ 1009971c     Editor.obj
 0002:00000720       ??_C@_0P@CCAHDFEI@?$CFc?$CFc?5?$CF03X?5?$CF03X?$AA@ 10099720     Editor.obj
 0002:00000730       ??_C@_02DPKJAMEF@?$CFd?$AA@ 10099730     Editor.obj
 0002:00000738       ??_7CaseFolderASCII@@6B@   10099738     Editor.obj
 0002:00000740       ??_C@_02DNMGNLAF@?2?$DP?$AA@ 10099740     Editor.obj
 0002:00000744       ??_C@_0BA@JFNIOLAK@string?5too?5long?$AA@ 10099744     Editor.obj
 0002:00000754       ??_C@_0BI@CFPLBAOH@invalid?5string?5position?$AA@ 10099754     Editor.obj
 0002:0000076c       ??_C@_04DCBOBKEC@x?$CF2X?$AA@ 1009976c     Editor.obj
 0002:00000774       ??_C@_05HIBFNGCI@?$CFd?5?5?5?$AA@ 10099774     Editor.obj
 0002:0000077c       ??_C@_08LOKCHEOB@99999?5?5?5?$AA@ 1009977c     Editor.obj
 0002:0000078c       ??_7Editor@@6B@            1009978c     Editor.obj
 0002:00000848       ??_C@_00CNPNBAHC@?$AA@     10099848     Editor.obj
 0002:00000850       ??_7LexerModule@@6B@       10099850     ExternalLexer.obj
 0002:00000860       ??_7ExternalLexerModule@@6B@ 10099860     ExternalLexer.obj
 0002:00000870       ??_C@_01CLKCMJKC@?5?$AA@   10099870     ExternalLexer.obj
 0002:00000874       ??_C@_04MNHHNOLJ@Fold?$AA@ 10099874     ExternalLexer.obj
 0002:0000087c       ??_C@_03KGIDDNFD@Lex?$AA@  1009987c     ExternalLexer.obj
 0002:00000880       ??_C@_0N@IAAAMDFA@GetLexerName?$AA@ 10099880     ExternalLexer.obj
 0002:00000890       ??_C@_0O@LKOONAOL@GetLexerCount?$AA@ 10099890     ExternalLexer.obj
 0002:000008a0       ?MapDefault@KeyMap@@0QBVKeyToCommand@@B 100998a0     KeyMap.obj
 0002:00000c48       ??_C@_09CEAIPAHE@functions?$AA@ 10099c48     LexAbaqus.obj
 0002:00000c54       ??_C@_09PBNAMLIK@arguments?$AA@ 10099c54     LexAbaqus.obj
 0002:00000c60       ??_C@_0N@LFFGKGDC@starcommands?$AA@ 10099c60     LexAbaqus.obj
 0002:00000c70       ??_C@_0N@NCNFMIND@slashommands?$AA@ 10099c70     LexAbaqus.obj
 0002:00000c80       ??_C@_08BPLPECIC@commands?$AA@ 10099c80     LexAbaqus.obj
 0002:00000c8c       ??_C@_0L@JPDAFHAE@processors?$AA@ 10099c8c     LexAbaqus.obj
 0002:00000cb4       ??_C@_0N@LADGLNMG@?$CKendassembly?$AA@ 10099cb4     LexAbaqus.obj
 0002:00000cc4       ??_C@_0N@EGNHKCMD@?$CKendinstance?$AA@ 10099cc4     LexAbaqus.obj
 0002:00000cd4       ??_C@_08LIKAEHCC@?$CKendpart?$AA@ 10099cd4     LexAbaqus.obj
 0002:00000ce0       ??_C@_08OFMCOKKO@?$CKendstep?$AA@ 10099ce0     LexAbaqus.obj
 0002:00000cec       ??_C@_09OHMJCPNE@?$CKassembly?$AA@ 10099cec     LexAbaqus.obj
 0002:00000cf8       ??_C@_09BBCIDANB@?$CKinstance?$AA@ 10099cf8     LexAbaqus.obj
 0002:00000d04       ??_C@_05IOGEAIGJ@?$CKpart?$AA@ 10099d04     LexAbaqus.obj
 0002:00000d0c       ??_C@_05NDAGKFOF@?$CKstep?$AA@ 10099d0c     LexAbaqus.obj
 0002:00000d14       ??_C@_06CLJHNAAL@abaqus?$AA@ 10099d14     LexAbaqus.obj
 0002:00000d1c       ??_C@_08CDHFLBJH@Keywords?$AA@ 10099d1c     LexAda.obj
 0002:00000d30       ??_C@_01IPJKGB@?$CD?$AA@   10099d30     LexAda.obj
 0002:00000d34       ??_C@_03NFKEKGGK@all?$AA@  10099d34     LexAda.obj
 0002:00000d38       ??_C@_03GOBJIJJP@ada?$AA@  10099d38     LexAda.obj
 0002:00000d58       ??_C@_06GOJKGFFG@?$CKenddo?$AA@ 10099d58     LexAPDL.obj
 0002:00000d60       ??_C@_06LHIAENEM@?$CKendif?$AA@ 10099d60     LexAPDL.obj
 0002:00000d68       ??_C@_08IHHKGFPL@?$CKdowhile?$AA@ 10099d68     LexAPDL.obj
 0002:00000d74       ??_C@_03LMIPHLCN@?$CKdo?$AA@ 10099d74     LexAPDL.obj
 0002:00000d78       ??_C@_03GFJFFDDH@?$CKif?$AA@ 10099d78     LexAPDL.obj
 0002:00000d7c       ??_C@_0N@CANAIILB@fold?4compact?$AA@ 10099d7c     LexAPDL.obj
 0002:00000d8c       ??_C@_04HACGLBNE@apdl?$AA@ 10099d8c     LexAPDL.obj
 0002:00000d94       ??_C@_0BG@MGGBMBFD@Extended?5instructions?$AA@ 10099d94     LexAsm.obj
 0002:00000dac       ??_C@_0BD@GFAJFAGH@Directive?5operands?$AA@ 10099dac     LexAsm.obj
 0002:00000dc0       ??_C@_0L@CDNAJOGF@Directives?$AA@ 10099dc0     LexAsm.obj
 0002:00000dcc       ??_C@_09KNBLANNJ@Registers?$AA@ 10099dcc     LexAsm.obj
 0002:00000dd8       ??_C@_0BB@FBCBLHF@FPU?5instructions?$AA@ 10099dd8     LexAsm.obj
 0002:00000dec       ??_C@_0BB@PBLMPHPJ@CPU?5instructions?$AA@ 10099dec     LexAsm.obj
 0002:00000e1c       ??_C@_03NLMFHDGG@asm?$AA@  10099e1c     LexAsm.obj
 0002:00000e20       ??_C@_05MNBBFGB@Types?$AA@ 10099e20     LexAsn1.obj
 0002:00000e28       ??_C@_0M@CJFFKJNE@Descriptors?$AA@ 10099e28     LexAsn1.obj
 0002:00000e34       ??_C@_0L@PLFFHFAH@Attributes?$AA@ 10099e34     LexAsn1.obj
 0002:00000e54       ??_C@_04MLGPBLN@fold?$AA@  10099e54     LexAsn1.obj
 0002:00000e5c       ??_C@_04GABBLIPF@asn1?$AA@ 10099e5c     LexAsn1.obj
 0002:00000e64       ??_C@_0CD@KGCMHODP@Secondary?5keywords?5and?5identifie@ 10099e64     LexASY.obj
 0002:00000e88       ??_C@_0CB@CGKBKPBP@Primary?5keywords?5and?5identifiers@ 10099e88     LexASY.obj
 0002:00000eb8       ??_C@_05IDCCNNGI@label?$AA@ 10099eb8     LexASY.obj
 0002:00000ec0       ??_C@_04BJJKJDJA@pair?$AA@ 10099ec0     LexASY.obj
 0002:00000ec8       ??_C@_04LNDCPPFO@draw?$AA@ 10099ec8     LexASY.obj
 0002:00000ed0       ??_C@_0N@JLHFHPHF@fold?4at?4else?$AA@ 10099ed0     LexASY.obj
 0002:00000ee0       ??_C@_0N@DPBKNPIG@fold?4comment?$AA@ 10099ee0     LexASY.obj
 0002:00000ef0       ??_C@_0L@FPFMPDDA@0123456789?$AA@ 10099ef0     LexASY.obj
 0002:00000efc       ??_C@_0BL@PIDGKGOO@ABCDEFGHIJKLMNOPQRSTUVWXYZ?$AA@ 10099efc     LexASY.obj
 0002:00000f18       ??_C@_0BL@JIGBPIBD@abcdefghijklmnopqrstuvwxyz?$AA@ 10099f18     LexASY.obj
 0002:00000f34       ??_C@_02PEOAMJM@?4_?$AA@   10099f34     LexASY.obj
 0002:00000f38       ??_C@_01IDAFKMJL@_?$AA@    10099f38     LexASY.obj
 0002:00000f3c       ??_C@_03PFGLKEDD@asy?$AA@  10099f3c     LexASY.obj
 0002:00000f40       ??_C@_0M@KMAEEMJI@?$CDautoit?5UDF?$AA@ 10099f40     LexAU3.obj
 0002:00000f4c       ??_C@_0P@FCOEODCF@?$CDautoit?5Expand?$AA@ 10099f4c     LexAU3.obj
 0002:00000f5c       ??_C@_0BA@LJOCFINO@?$CDautoit?5Special?$AA@ 10099f5c     LexAU3.obj
 0002:00000f6c       ??_C@_0BH@KEKNABED@?$CDautoit?5Pre?9processors?$AA@ 10099f6c     LexAU3.obj
 0002:00000f84       ??_C@_0BC@CDJCEEPI@?$CDautoit?5Sent?5keys?$AA@ 10099f84     LexAU3.obj
 0002:00000f98       ??_C@_0P@OLMCDMAP@?$CDautoit?5macros?$AA@ 10099f98     LexAU3.obj
 0002:00000fa8       ??_C@_0BC@DIPKKBKF@?$CDautoit?5functions?$AA@ 10099fa8     LexAU3.obj
 0002:00000fbc       ??_C@_0BB@DPLEIAGF@?$CDautoit?5keywords?$AA@ 10099fbc     LexAU3.obj
 0002:00000ff4       ??_C@_06FHLCKAHH@toggle?$AA@ 10099ff4     LexAU3.obj
 0002:00000ffc       ??_C@_03MCADLMAF@off?$AA@  10099ffc     LexAU3.obj
 0002:00001000       ??_C@_02LIELOMNJ@on?$AA@   1009a000     LexAU3.obj
 0002:00001004       ??_C@_02HNLLPFKA@up?$AA@   1009a004     LexAU3.obj
 0002:00001008       ??_C@_04JMOKAGMG@down?$AA@ 1009a008     LexAU3.obj
 0002:00001010       ??_C@_01GBGANLPD@0?$AA@    1009a010     LexAU3.obj
 0002:00001014       ??_C@_0BA@IKJEEDCD@?$CDcomments?9start?$AA@ 1009a014     LexAU3.obj
 0002:00001024       ??_C@_03CCLPHPHP@?$CDcs?$AA@ 1009a024     LexAU3.obj
 0002:00001028       ??_C@_08GPLAJCBH@?$CDinclude?$AA@ 1009a028     LexAU3.obj
 0002:00001034       ??_C@_09FHPAIDDJ@?$CDcomments?$AA@ 1009a034     LexAU3.obj
 0002:00001040       ??_C@_0O@PJJCJDBF@?$CDcomments?9end?$AA@ 1009a040     LexAU3.obj
 0002:00001050       ??_C@_03DOCHMKKI@?$CDce?$AA@ 1009a050     LexAU3.obj
 0002:00001054       ??_C@_0L@IKMPBKIN@?$CDendregion?$AA@ 1009a054     LexAU3.obj
 0002:00001060       ??_C@_09LHNGONCE@endswitch?$AA@ 1009a060     LexAU3.obj
 0002:0000106c       ??_C@_09DPPKKMGD@endselect?$AA@ 1009a06c     LexAU3.obj
 0002:00001078       ??_C@_06CAACNEC@elseif?$AA@ 1009a078     LexAU3.obj
 0002:00001080       ??_C@_04FHMCPBIP@else?$AA@ 1009a080     LexAU3.obj
 0002:00001088       ??_C@_04CKOINMPC@case?$AA@ 1009a088     LexAU3.obj
 0002:00001090       ??_C@_04DNAPHLIF@wend?$AA@ 1009a090     LexAU3.obj
 0002:00001098       ??_C@_07LJDKFBMI@endwith?$AA@ 1009a098     LexAU3.obj
 0002:000010a0       ??_C@_05FJMDOIMN@until?$AA@ 1009a0a0     LexAU3.obj
 0002:000010a8       ??_C@_04CJGEDOF@next?$AA@  1009a0a8     LexAU3.obj
 0002:000010b0       ??_C@_05PAODFFED@endif?$AA@ 1009a0b0     LexAU3.obj
 0002:000010b8       ??_C@_07MDAPILA@endfunc?$AA@ 1009a0b8     LexAU3.obj
 0002:000010c0       ??_C@_06DOPOGBGP@switch?$AA@ 1009a0c0     LexAU3.obj
 0002:000010c8       ??_C@_06LGNCCACI@select?$AA@ 1009a0c8     LexAU3.obj
 0002:000010d0       ??_C@_07BLCDMDCI@?$CDregion?$AA@ 1009a0d0     LexAU3.obj
 0002:000010d8       ??_C@_04MKNNKNJH@with?$AA@ 1009a0d8     LexAU3.obj
 0002:000010e0       ??_C@_05OODBEKIG@while?$AA@ 1009a0e0     LexAU3.obj
 0002:000010e8       ??_C@_04HPNHAEOP@func?$AA@ 1009a0e8     LexAU3.obj
 0002:000010f0       ??_C@_03JOHEBPFF@for?$AA@  1009a0f0     LexAU3.obj
 0002:000010f4       ??_C@_02KNAFDCHJ@do?$AA@   1009a0f4     LexAU3.obj
 0002:000010f8       ??_C@_04HOHPNOOD@then?$AA@ 1009a0f8     LexAU3.obj
 0002:00001100       ??_C@_02HEBPBKGD@if?$AA@   1009a100     LexAU3.obj
 0002:00001104       ??_C@_0BC@JNCGDMPH@fold?4preprocessor?$AA@ 1009a104     LexAU3.obj
 0002:00001118       ??_C@_03PLHAHPAO@au3?$AA@  1009a118     LexAU3.obj
 0002:0000111c       ??_C@_03JBJLGPFL@end?$AA@  1009a11c     LexAVE.obj
 0002:00001120       ??_C@_03BFNHDLIF@ave?$AA@  1009a120     LexAVE.obj
 0002:00001124       ??_C@_08OADOHMNA@dllusage?$AA@ 1009a124     LexBaan.obj
 0002:00001130       ??_C@_0M@BHLNKMDN@enddllusage?$AA@ 1009a130     LexBaan.obj
 0002:0000113c       ??_C@_0BM@BJCEEOFH@styling?4within?4preprocessor?$AA@ 1009a13c     LexBaan.obj
 0002:00001158       ??_C@_04OLNOFLJH@baan?$AA@ 1009a158     LexBaan.obj
 0002:00001168       ??_C@_02NNOFLBII@?$DN$?$AA@ 1009a168     LexBash.obj
 0002:0000116c       ??_C@_04GJEBJLPJ@_?9?$CL?$CB?$AA@ 1009a16c     LexBash.obj
 0002:00001174       ??_C@_05KENJANLF@_?2?9?$CL?$CB?$AA@ 1009a174     LexBash.obj
 0002:0000117c       ??_C@_02CNJIJEK@$_?$AA@    1009a17c     LexBash.obj
 0002:00001180       ??_C@_0CC@ONHNEENN@rwxoRWXOezsfdlpSbctugkTBMACahGLN@ 1009a180     LexBash.obj
 0002:000011a4       ??_C@_0BL@BOOKHKKF@?$FO?$CG?2?$CF?$CI?$CJ?9?$CL?$DN?$HM?$HL?$HN?$FL?$FN?3?$DL?$DO?0?$CK?1?$DM?$DP?$CB?4?$HO?$EA?$AA@ 1009a1a4     LexBash.obj
 0002:000011c0       ??_C@_04MAHAHFJN@?4_?$CL?9?$AA@ 1009a1c0     LexBash.obj
 0002:000011c8       ??_C@_04KCCGILAP@bash?$AA@ 1009a1c8     LexBash.obj
 0002:000011d0       ??_C@_0CA@HJGLDADL@FreeBasic?5PreProcessor?5Keywords?$AA@ 1009a1d0     LexBasic.obj
 0002:000011f0       ??_C@_0BD@IAEOIODM@FreeBasic?5Keywords?$AA@ 1009a1f0     LexBasic.obj
 0002:00001204       ??_C@_0P@BCMPNDGJ@user?5defined?52?$AA@ 1009a204     LexBasic.obj
 0002:00001214       ??_C@_0P@DJOCIAKK@user?5defined?51?$AA@ 1009a214     LexBasic.obj
 0002:00001224       ??_C@_0CA@MAAEEGOA@PureBasic?5PreProcessor?5Keywords?$AA@ 1009a224     LexBasic.obj
 0002:00001244       ??_C@_0BD@NIDNFBHH@PureBasic?5Keywords?$AA@ 1009a244     LexBasic.obj
 0002:00001258       ??_C@_05EEGIGAO@user3?$AA@ 1009a258     LexBasic.obj
 0002:00001260       ??_C@_05BNFNLHEP@user2?$AA@ 1009a260     LexBasic.obj
 0002:00001268       ??_C@_05DGHAOEIM@user1?$AA@ 1009a268     LexBasic.obj
 0002:00001270       ??_C@_0BE@NKHKEDMI@BlitzBasic?5Keywords?$AA@ 1009a270     LexBasic.obj
 0002:000012c0       ??_C@_08OECIKOFI@end?5type?$AA@ 1009a2c0     LexBasic.obj
 0002:000012cc       ??_C@_0N@OBMNJAGI@end?5function?$AA@ 1009a2cc     LexBasic.obj
 0002:000012dc       ??_C@_04GPMDFGEJ@type?$AA@ 1009a2dc     LexBasic.obj
 0002:000012e4       ??_C@_08HFFPPCHF@function?$AA@ 1009a2e4     LexBasic.obj
 0002:000012f0       ??_C@_0N@LDABAHDG@endstructure?$AA@ 1009a2f0     LexBasic.obj
 0002:00001300       ??_C@_0N@LOHFHOC@endinterface?$AA@ 1009a300     LexBasic.obj
 0002:00001310       ??_C@_0P@NFLGEII@endenumeration?$AA@ 1009a310     LexBasic.obj
 0002:00001320       ??_C@_0N@HOCFDMCO@endprocedure?$AA@ 1009a320     LexBasic.obj
 0002:00001330       ??_C@_09GNENBKCD@structure?$AA@ 1009a330     LexBasic.obj
 0002:0000133c       ??_C@_09NFKLEKPH@interface?$AA@ 1009a33c     LexBasic.obj
 0002:00001348       ??_C@_0M@FJOIDAAJ@enumeration?$AA@ 1009a348     LexBasic.obj
 0002:00001354       ??_C@_09KAGJCBDL@procedure?$AA@ 1009a354     LexBasic.obj
 0002:00001360       ??_C@_07PHIAHHFF@end?5sub?$AA@ 1009a360     LexBasic.obj
 0002:00001368       ??_C@_03KCMAIMAP@sub?$AA@  1009a368     LexBasic.obj
 0002:0000136c       ??_C@_0L@FGOLJFPB@blitzbasic?$AA@ 1009a36c     LexBasic.obj
 0002:00001378       ??_C@_09PGMBFGDB@purebasic?$AA@ 1009a378     LexBasic.obj
 0002:00001384       ??_C@_09MOGOPCGF@freebasic?$AA@ 1009a384     LexBasic.obj
 0002:00001398       ??_C@_04JCJDPOBL@trap?$AA@ 1009a398     LexBullant.obj
 0002:000013a0       ??_C@_0M@NMFLMFDF@transaction?$AA@ 1009a3a0     LexBullant.obj
 0002:000013ac       ??_C@_04MKMCLCOO@lock?$AA@ 1009a3ac     LexBullant.obj
 0002:000013b4       ??_C@_04CEJDCDCH@test?$AA@ 1009a3b4     LexBullant.obj
 0002:000013bc       ??_C@_05GFCDIDHO@debug?$AA@ 1009a3bc     LexBullant.obj
 0002:000013c4       ??_C@_05ENKANFLO@class?$AA@ 1009a3c4     LexBullant.obj
 0002:000013cc       ??_C@_06GABBCIBA@method?$AA@ 1009a3cc     LexBullant.obj
 0002:000013d4       ??_C@_07BPDHOHAP@bullant?$AA@ 1009a3d4     LexBullant.obj
 0002:000013dc       ??_C@_09JKCDBGGG@Keywords3?$AA@ 1009a3dc     LexCaml.obj
 0002:000013e8       ??_C@_09IDDICHCH@Keywords2?$AA@ 1009a3e8     LexCaml.obj
 0002:00001468       ??_C@_05CGEHBIEG@?$CJ?$FN?$HN?$DL?0?$AA@ 1009a468     LexCaml.obj
 0002:00001470       ??_C@_0BD@FKGGNCLM@?$CB$?$CF?$CG?$CK?$CL?9?4?1?3?$DM?$DN?$DO?$DP?$EA?$FO?$HM?$HO?$AA@ 1009a470     LexCaml.obj
 0002:00001484       ??_C@_08KGDBMPFG@?$CJ?$FN?$HN?$DL?0?8?$CC?$CD?$AA@ 1009a484     LexCaml.obj
 0002:00001490       ??_C@_0BM@IDKPLHNM@?$CB?$DP?$HO?$DN?$DM?$DO?$EA?$FO?$HM?$CG?$CL?9?$CK?1$?$CF?$CI?$CJ?$FL?$FN?$HL?$HN?$DL?0?3?4?$CD?$AA@ 1009a490     LexCaml.obj
 0002:000014ac       ??_C@_01FJMABOPO@x?$AA@    1009a4ac     LexCaml.obj
 0002:000014b0       ??_C@_06MMLPJAGJ@bBoOxX?$AA@ 1009a4b0     LexCaml.obj
 0002:000014b8       ??_C@_0BB@IEBABMHD@lexer?4caml?4magic?$AA@ 1009a4b8     LexCaml.obj
 0002:000014cc       ??_C@_07KPAAENGA@andalso?$AA@ 1009a4cc     LexCaml.obj
 0002:000014d4       ??_C@_04ONJCOJMB@caml?$AA@ 1009a4d4     LexCaml.obj
 0002:000014dc       ??_C@_0CC@FEACKOCB@Reserved?5Words?5?$CIProcedure?5Labels@ 1009a4dc     LexCLW.obj
 0002:00001500       ??_C@_0BI@IDJOCADE@Reserved?5Words?5?$CILabels?$CJ?$AA@ 1009a500     LexCLW.obj
 0002:00001518       ??_C@_0BB@GDMLIOOL@Standard?5Equates?$AA@ 1009a518     LexCLW.obj
 0002:0000152c       ??_C@_0BJ@MIGDHBGO@Structure?5and?5Data?5Types?$AA@ 1009a52c     LexCLW.obj
 0002:00001548       ??_C@_0BE@BMPCCAMO@Runtime?5Expressions?$AA@ 1009a548     LexCLW.obj
 0002:0000155c       ??_C@_0CC@CNOKABNP@Built?9in?5Procedures?5and?5Function@ 1009a55c     LexCLW.obj
 0002:00001580       ??_C@_0BE@KMACAAMP@Compiler?5Directives?$AA@ 1009a580     LexCLW.obj
 0002:00001594       ??_C@_0BB@PCLHEAHJ@Clarion?5Keywords?$AA@ 1009a594     LexCLW.obj
 0002:000015d0       ??_C@_06BJCILPHA@ABCDEF?$AA@ 1009a5d0     LexCLW.obj
 0002:000015d8       ??_C@_0N@JAFEMMAJ@ABCDEFabcdef?$AA@ 1009a5d8     LexCLW.obj
 0002:000015e8       ??_C@_03KMMALPKF@BOH?$AA@  1009a5e8     LexCLW.obj
 0002:000015ec       ??_C@_06FIAKLNNK@BOHboh?$AA@ 1009a5ec     LexCLW.obj
 0002:000015f4       ??_C@_07NIEFKNMD@DEKNPST?$AA@ 1009a5f4     LexCLW.obj
 0002:000015fc       ??_C@_0P@JEEBPALI@DEKNPSTdeknpst?$AA@ 1009a5fc     LexCLW.obj
 0002:0000160c       ??_C@_0BP@NEPKFMMP@BOF?5EOF?5FUNCTION?5POINTER?5SHARE?$AA@ 1009a60c     LexCLW.obj
 0002:0000162c       ??_C@_0N@BJCOOCEI@COMPILE?5OMIT?$AA@ 1009a62c     LexCLW.obj
 0002:0000163c       ??_C@_0BD@OIPONOPD@PROCEDURE?5FUNCTION?$AA@ 1009a63c     LexCLW.obj
 0002:00001650       ??_C@_05CFKHKNMI@WHILE?$AA@ 1009a650     LexCLW.obj
 0002:00001658       ??_C@_05JCFFAPID@UNTIL?$AA@ 1009a658     LexCLW.obj
 0002:00001660       ??_C@_03JMGAKCCH@END?$AA@  1009a660     LexCLW.obj
 0002:00001664       ??_C@_06NBDPIEDA@WINDOW?$AA@ 1009a664     LexCLW.obj
 0002:0000166c       ??_C@_04OLDJKBIG@VIEW?$AA@ 1009a66c     LexCLW.obj
 0002:00001674       ??_C@_07FCDHJNFM@TOOLBAR?$AA@ 1009a674     LexCLW.obj
 0002:0000167c       ??_C@_03CJMDHCGG@TAB?$AA@  1009a67c     LexCLW.obj
 0002:00001680       ??_C@_05KIOIEIPJ@SHEET?$AA@ 1009a680     LexCLW.obj
 0002:00001688       ??_C@_06MDMHKGOO@REPORT?$AA@ 1009a688     LexCLW.obj
 0002:00001690       ??_C@_05DCKPDKKB@QUEUE?$AA@ 1009a690     LexCLW.obj
 0002:00001698       ??_C@_06OCONPLCM@OPTION?$AA@ 1009a698     LexCLW.obj
 0002:000016a0       ??_C@_03OJECKHGM@OLE?$AA@  1009a6a0     LexCLW.obj
 0002:000016a4       ??_C@_07DDBPMOEE@MENUBAR?$AA@ 1009a6a4     LexCLW.obj
 0002:000016ac       ??_C@_04IILMDFMO@MENU?$AA@ 1009a6ac     LexCLW.obj
 0002:000016b4       ??_C@_06MFNLEOCO@HEADER?$AA@ 1009a6b4     LexCLW.obj
 0002:000016bc       ??_C@_05NAIABEH@GROUP?$AA@ 1009a6bc     LexCLW.obj
 0002:000016c4       ??_C@_04HPGCGPG@FORM?$AA@  1009a6c4     LexCLW.obj
 0002:000016cc       ??_C@_06NLFGPPOL@FOOTER?$AA@ 1009a6cc     LexCLW.obj
 0002:000016d4       ??_C@_04PMPMHNFI@FILE?$AA@ 1009a6d4     LexCLW.obj
 0002:000016dc       ??_C@_06EAPOAKCB@DETAIL?$AA@ 1009a6dc     LexCLW.obj
 0002:000016e4       ??_C@_05IGDGDCPA@CLASS?$AA@ 1009a6e4     LexCLW.obj
 0002:000016ec       ??_C@_0M@GPGGNAFB@APPLICATION?$AA@ 1009a6ec     LexCLW.obj
 0002:000016f8       ??_C@_06KOEFFJON@RECORD?$AA@ 1009a6f8     LexCLW.obj
 0002:00001700       ??_C@_06BMGPECHM@MODULE?$AA@ 1009a700     LexCLW.obj
 0002:00001708       ??_C@_04KGNEGCGI@LOOP?$AA@ 1009a708     LexCLW.obj
 0002:00001710       ??_C@_04PJFINEKF@JOIN?$AA@ 1009a710     LexCLW.obj
 0002:00001718       ??_C@_09OFFKHHAA@INTERFACE?$AA@ 1009a718     LexCLW.obj
 0002:00001724       ??_C@_07IOFKDEEC@ITEMIZE?$AA@ 1009a724     LexCLW.obj
 0002:0000172c       ??_C@_02NJNGHICB@IF?$AA@   1009a72c     LexCLW.obj
 0002:00001730       ??_C@_07LBDEDADF@EXECUTE?$AA@ 1009a730     LexCLW.obj
 0002:00001738       ??_C@_04OGNCDOIK@CASE?$AA@ 1009a738     LexCLW.obj
 0002:00001740       ??_C@_05ILMMJGEC@BEGIN?$AA@ 1009a740     LexCLW.obj
 0002:00001748       ??_C@_06INBBKPI@ACCEPT?$AA@ 1009a748     LexCLW.obj
 0002:00001750       ??_C@_03HMCGBKKA@MAP?$AA@  1009a750     LexCLW.obj
 0002:00001754       ??_C@_09JAJIBMMM@PROCEDURE?$AA@ 1009a754     LexCLW.obj
 0002:00001760       ??_C@_07DGMOLMLC@clarion?$AA@ 1009a760     LexCLW.obj
 0002:00001768       ??_C@_0O@FFPAJFL@clarionnocase?$AA@ 1009a768     LexCLW.obj
 0002:00001778       ??_C@_0M@EALHFGP@UserDefined?$AA@ 1009a778     LexCmake.obj
 0002:00001784       ??_C@_0L@PBGCNDPG@Parameters?$AA@ 1009a784     LexCmake.obj
 0002:00001790       ??_C@_08JNEOMACB@Commands?$AA@ 1009a790     LexCmake.obj
 0002:000017b0       ??_C@_04JLPIBDPH@ELSE?$AA@ 1009a7b0     LexCmake.obj
 0002:000017b8       ??_C@_0L@NFFKOHFF@ENDFOREACH?$AA@ 1009a7b8     LexCmake.obj
 0002:000017c4       ??_C@_08EGINBKCA@ENDMACRO?$AA@ 1009a7c4     LexCmake.obj
 0002:000017d0       ??_C@_08GKDKNPDI@ENDWHILE?$AA@ 1009a7d0     LexCmake.obj
 0002:000017dc       ??_C@_05DLHFLCAN@ENDIF?$AA@ 1009a7dc     LexCmake.obj
 0002:000017e4       ??_C@_06GCLPDJA@ELSEIF?$AA@ 1009a7e4     LexCmake.obj
 0002:000017ec       ??_C@_07HPONFJGF@FOREACH?$AA@ 1009a7ec     LexCmake.obj
 0002:000017f4       ??_C@_05JBAGINA@MACRO?$AA@ 1009a7f4     LexCmake.obj
 0002:000017fc       ??_C@_05HOGNLLBB@cmake?$AA@ 1009a7fc     LexCmake.obj
 0002:00001804       ??_C@_0BC@JCPHGJPL@Extended?5Keywords?$AA@ 1009a804     LexCOBOL.obj
 0002:00001818       ??_C@_0L@GPICLHCL@B?5Keywords?$AA@ 1009a818     LexCOBOL.obj
 0002:00001824       ??_C@_0L@PGGANBCK@A?5Keywords?$AA@ 1009a824     LexCOBOL.obj
 0002:00001840       ??_C@_07BNGFJMOB@section?$AA@ 1009a840     LexCOBOL.obj
 0002:00001848       ??_C@_0N@ELKMEGE@declaratives?$AA@ 1009a848     LexCOBOL.obj
 0002:00001858       ??_C@_08DHDHNDEI@division?$AA@ 1009a858     LexCOBOL.obj
 0002:00001864       ??_C@_05LEFLDEE@COBOL?$AA@ 1009a864     LexCOBOL.obj
 0002:00001878       ??_C@_04PFOEMICB@conf?$AA@ 1009a878     LexConf.obj
 0002:00001880       ??_C@_0BM@MKCJDEDG@Global?5classes?5and?5typedefs?$AA@ 1009a880     LexCPP.obj
 0002:0000189c       ??_C@_06CGLFEPBO@Unused?$AA@ 1009a89c     LexCPP.obj
 0002:000018a4       ??_C@_0BP@DJPBDEAM@Documentation?5comment?5keywords?$AA@ 1009a8a4     LexCPP.obj
 0002:000018dc       ??_C@_06JEJEKGIK@region?$AA@ 1009a8dc     LexCPP.obj
 0002:000018e4       ??_C@_07FHOHOHLG@include?$AA@ 1009a8e4     LexCPP.obj
 0002:000018ec       ??_C@_03JJGEILLF@?1?1?$CB?$AA@ 1009a8ec     LexCPP.obj
 0002:000018f0       ??_C@_04KDBADGOP@?1?1?1?1?$AA@ 1009a8f0     LexCPP.obj
 0002:000018f8       ??_C@_03HOHKGDL@?1?1?1?$AA@ 1009a8f8     LexCPP.obj
 0002:000018fc       ??_C@_03JPKPEJFO@?1?$CK?$CB?$AA@ 1009a8fc     LexCPP.obj
 0002:00001900       ??_C@_03HMFLJAJF@?1?$CK?$CK?$AA@ 1009a900     LexCPP.obj
 0002:00001904       ??_C@_04BCJJGJPP@uuid?$AA@ 1009a904     LexCPP.obj
 0002:0000190c       ??_C@_0BI@JEJDLEMC@lexer?4cpp?4allow?4dollars?$AA@ 1009a90c     LexCPP.obj
 0002:00001924       ??_C@_0M@MIDLPJGF@$?$EA?2?$CG?$DM?$DO?$CD?$HL?$HN?$FL?$FN?$AA@ 1009a924     LexCPP.obj
 0002:00001930       ??_C@_02BEIMNFAD@?$CL?9?$AA@ 1009a930     LexCPP.obj
 0002:00001934       ??_C@_0BC@OHBHLMFK@?$CI?$FL?$HL?$DN?0?3?$DL?$CB?$CF?$FO?$CG?$CK?$HM?$DP?$HO?$CL?9?$AA@ 1009a934     LexCPP.obj
 0002:00001948       ??_C@_03IMOGGJKI@cpp?$AA@  1009a948     LexCPP.obj
 0002:0000194c       ??_C@_09ELEICEJI@cppnocase?$AA@ 1009a94c     LexCPP.obj
 0002:00001958       ??_C@_09KLHEJKNK@Modifiers?$AA@ 1009a958     LexCrontab.obj
 0002:00001964       ??_C@_0BD@BFCHFGAH@nnCrontab?5keywords?$AA@ 1009a964     LexCrontab.obj
 0002:00001978       ??_C@_0CB@CIKPDNHA@Section?5keywords?5and?5Forth?5words@ 1009a978     LexCrontab.obj
 0002:000019ac       ??_C@_09EHEKHEHM@nncrontab?$AA@ 1009a9ac     LexCrontab.obj
 0002:000019b8       ??_C@_0O@GLECBIBN@User?5keywords?$AA@ 1009a9b8     LexCsound.obj
 0002:000019c8       ??_C@_0BC@OKCGODIB@Header?5Statements?$AA@ 1009a9c8     LexCsound.obj
 0002:000019dc       ??_C@_07ONEAPODO@Opcodes?$AA@ 1009a9dc     LexCsound.obj
 0002:000019f4       ??_C@_05DIDKNPEL@endin?$AA@ 1009a9f4     LexCsound.obj
 0002:000019fc       ??_C@_05HALPBNGI@instr?$AA@ 1009a9fc     LexCsound.obj
 0002:00001a04       ??_C@_06FBCAPBCN@csound?$AA@ 1009aa04     LexCsound.obj
 0002:00001a0c       ??_C@_0CB@BMMDAPDE@Browser?9Specific?5Pseudo?9elements@ 1009aa0c     LexCSS.obj
 0002:00001a30       ??_C@_0CA@NCCKGFMA@Browser?9Specific?5Pseudo?9classes?$AA@ 1009aa30     LexCSS.obj
 0002:00001a50       ??_C@_0CA@JMPIIGEC@Browser?9Specific?5CSS?5Properties?$AA@ 1009aa50     LexCSS.obj
 0002:00001a70       ??_C@_0BA@BANHMDEM@Pseudo?9elements?$AA@ 1009aa70     LexCSS.obj
 0002:00001a80       ??_C@_0BA@EIGAIJCC@CSS3?5Properties?$AA@ 1009aa80     LexCSS.obj
 0002:00001a90       ??_C@_0BA@JFPGFAKH@CSS2?5Properties?$AA@ 1009aa90     LexCSS.obj
 0002:00001aa0       ??_C@_0P@HAPNCFAL@Pseudo?9classes?$AA@ 1009aaa0     LexCSS.obj
 0002:00001ab0       ??_C@_0BA@CIDMDMGJ@CSS1?5Properties?$AA@ 1009aab0     LexCSS.obj
 0002:00001ae4       ??_C@_05CECBHAPI@media?$AA@ 1009aae4     LexCSS.obj
 0002:00001aec       ??_C@_09INDNFDCH@important?$AA@ 1009aaec     LexCSS.obj
 0002:00001af8       ??_C@_03KFINIEDC@css?$AA@  1009aaf8     LexCSS.obj
 0002:00001afc       ??_C@_0L@CKCMFKGG@Keywords?57?$AA@ 1009aafc     LexD.obj
 0002:00001b08       ??_C@_0L@DDDHGLCH@Keywords?56?$AA@ 1009ab08     LexD.obj
 0002:00001b14       ??_C@_0L@BIBKDIOE@Keywords?55?$AA@ 1009ab14     LexD.obj
 0002:00001b20       ??_C@_0BN@MAGGKOCJ@Type?5definitions?5and?5aliases?$AA@ 1009ab20     LexD.obj
 0002:00001b60       ??_C@_0BF@LOHPHCCE@lexer?4d?4fold?4at?4else?$AA@ 1009ab60     LexD.obj
 0002:00001b78       ??_C@_01LPLHEDKD@d?$AA@    1009ab78     LexD.obj
 0002:00001b84       ??_C@_04KLFNICNF@once?$AA@ 1009ab84     LexEiffel.obj
 0002:00001b8c       ??_C@_07PHKOPNKE@inspect?$AA@ 1009ab8c     LexEiffel.obj
 0002:00001b94       ??_C@_04HNEBHLOP@from?$AA@ 1009ab94     LexEiffel.obj
 0002:00001b9c       ??_C@_08DNIEAOMA@deferred?$AA@ 1009ab9c     LexEiffel.obj
 0002:00001ba8       ??_C@_05KJHPNPAA@check?$AA@ 1009aba8     LexEiffel.obj
 0002:00001bb0       ??_C@_06BLINBKAD@eiffel?$AA@ 1009abb0     LexEiffel.obj
 0002:00001bb8       ??_C@_08PCLDHKME@eiffelkw?$AA@ 1009abb8     LexEiffel.obj
 0002:00001bc4       ??_C@_0BL@DPNOFHE@Erlang?5Documentation?5Macro?$AA@ 1009abc4     LexErlang.obj
 0002:00001be0       ??_C@_0BF@EAPABPBF@Erlang?5Documentation?$AA@ 1009abe0     LexErlang.obj
 0002:00001bf8       ??_C@_0BJ@GBGCIIIJ@Erlang?5Module?5Attributes?$AA@ 1009abf8     LexErlang.obj
 0002:00001c14       ??_C@_0BE@FKHJNDIP@Erlang?5Preprocessor?$AA@ 1009ac14     LexErlang.obj
 0002:00001c28       ??_C@_0M@DCJBGBFG@Erlang?5BIFs?$AA@ 1009ac28     LexErlang.obj
 0002:00001c34       ??_C@_0BG@COAKLCIG@Erlang?5Reserved?5words?$AA@ 1009ac34     LexErlang.obj
 0002:00001c68       ??_C@_07BBINFNHL@erlang?3?$AA@ 1009ac68     LexErlang.obj
 0002:00001c70       ??_C@_07HMEMGDHJ@receive?$AA@ 1009ac70     LexErlang.obj
 0002:00001c78       ??_C@_05BKABJGDH@query?$AA@ 1009ac78     LexErlang.obj
 0002:00001c80       ??_C@_03GJLCGEKO@fun?$AA@  1009ac80     LexErlang.obj
 0002:00001c84       ??_C@_06EKFKPOGJ@erlang?$AA@ 1009ac84     LexErlang.obj
 0002:00001c8c       ??_C@_0CE@MBNJKCLB@Extended?5and?5user?5defined?5functi@ 1009ac8c     LexEScript.obj
 0002:00001cb0       ??_C@_0BE@FOFHGPF@Intrinsic?5functions?$AA@ 1009acb0     LexEScript.obj
 0002:00001cd4       ??_C@_0BH@JNDCKEPB@escript?4case?4sensitive?$AA@ 1009acd4     LexEScript.obj
 0002:00001cec       ??_C@_07FJAPCAKN@endcase?$AA@ 1009acec     LexEScript.obj
 0002:00001cf4       ??_C@_08BFJGOBBP@endwhile?$AA@ 1009acf4     LexEScript.obj
 0002:00001d00       ??_C@_0M@ICNMCCJI@endfunction?$AA@ 1009ad00     LexEScript.obj
 0002:00001d0c       ??_C@_0L@CGDNAKKI@endprogram?$AA@ 1009ad0c     LexEScript.obj
 0002:00001d18       ??_C@_0L@GDDHFFHF@endforeach?$AA@ 1009ad18     LexEScript.obj
 0002:00001d24       ??_C@_06KFJOMDNC@endfor?$AA@ 1009ad24     LexEScript.obj
 0002:00001d2c       ??_C@_07MHLKLKDM@program?$AA@ 1009ad2c     LexEScript.obj
 0002:00001d34       ??_C@_07ICLAOFOB@foreach?$AA@ 1009ad34     LexEScript.obj
 0002:00001d3c       ??_C@_07ILKIOGIP@escript?$AA@ 1009ad3c     LexEScript.obj
 0002:00001d44       ??_C@_0BB@BEOFFNHP@Doxygen?5keywords?$AA@ 1009ad44     LexFlagship.obj
 0002:00001d58       ??_C@_0M@BPBAPH@Class?5?$CIoop?$CJ?$AA@ 1009ad58     LexFlagship.obj
 0002:00001d64       ??_C@_0BI@ODEJJOEN@Procedure?0?5return?0?5exit?$AA@ 1009ad64     LexFlagship.obj
 0002:00001d7c       ??_C@_0BG@FHHHHHJI@Std?5Library?5Functions?$AA@ 1009ad7c     LexFlagship.obj
 0002:00001d94       ??_C@_0BC@EACFFJHK@Keywords?5Commands?$AA@ 1009ad94     LexFlagship.obj
 0002:00001dc0       ??_C@_09PMHKOGLB@__cstream?$AA@ 1009adc0     LexFlagship.obj
 0002:00001dcc       ??_C@_09HGAOOJDH@begindump?$AA@ 1009adcc     LexFlagship.obj
 0002:00001dd8       ??_C@_03ILAMHENH@nil?$AA@  1009add8     LexFlagship.obj
 0002:00001ddc       ??_C@_03NJALEGFA@?4f?4?$AA@ 1009addc     LexFlagship.obj
 0002:00001de0       ??_C@_03MGKJDBEO@?4t?4?$AA@ 1009ade0     LexFlagship.obj
 0002:00001de4       ??_C@_04HIBLMLMA@?4or?4?$AA@ 1009ade4     LexFlagship.obj
 0002:00001dec       ??_C@_09DIHNNEOE@__endtext?$AA@ 1009adec     LexFlagship.obj
 0002:00001df8       ??_C@_07BFFJFEBL@enddump?$AA@ 1009adf8     LexFlagship.obj
 0002:00001e00       ??_C@_06PGFLMPLC@pragma?$AA@ 1009ae00     LexFlagship.obj
 0002:00001e08       ??_C@_05GOCDNNMD@?4not?4?$AA@ 1009ae08     LexFlagship.obj
 0002:00001e10       ??_C@_05EIOJIOAH@?4and?4?$AA@ 1009ae10     LexFlagship.obj
 0002:00001e18       ??_C@_0CL@LAKAMLO@lexer?4flagship?4styling?4within?4pr@ 1009ae18     LexFlagship.obj
 0002:00001e44       ??_C@_08KBCCBCJC@flagship?$AA@ 1009ae44     LexFlagship.obj
 0002:00001e50       ??_C@_0BL@PIEADAAH@string?5definition?5keywords?$AA@ 1009ae50     LexForth.obj
 0002:00001e6c       ??_C@_0BM@MDNHKIFB@prewords?5with?5two?5arguments?$AA@ 1009ae6c     LexForth.obj
 0002:00001e88       ??_C@_0BL@DCPKEGOL@prewords?5with?5one?5argument?$AA@ 1009ae88     LexForth.obj
 0002:00001ea4       ??_C@_0BB@BLPEHIIN@definition?5words?$AA@ 1009aea4     LexForth.obj
 0002:00001eb8       ??_C@_08KBIEDDDE@keywords?$AA@ 1009aeb8     LexForth.obj
 0002:00001ec4       ??_C@_0BB@NAMFGMEB@control?5keywords?$AA@ 1009aec4     LexForth.obj
 0002:00001ef4       ??_C@_05LEBIBLLD@forth?$AA@ 1009aef4     LexForth.obj
 0002:00001f0c       ??_C@_04KLGPBGCH@?$CBms$?$AA@ 1009af0c     LexFortran.obj
 0002:00001f14       ??_C@_04NMLPCHDG@?$CKms$?$AA@ 1009af14     LexFortran.obj
 0002:00001f1c       ??_C@_04IJFMBNAO@cms$?$AA@ 1009af1c     LexFortran.obj
 0002:00001f24       ??_C@_05OMMLMFD@?$CBdir$?$AA@ 1009af24     LexFortran.obj
 0002:00001f2c       ??_C@_05GEALEMJA@?$CKdir$?$AA@ 1009af2c     LexFortran.obj
 0002:00001f34       ??_C@_05EMFMBHDE@cdir$?$AA@ 1009af34     LexFortran.obj
 0002:00001f3c       ??_C@_05FJPOMKKM@?$CBdec$?$AA@ 1009af3c     LexFortran.obj
 0002:00001f44       ??_C@_05DDDJDKGP@?$CKdec$?$AA@ 1009af44     LexFortran.obj
 0002:00001f4c       ??_C@_05BLGOGBML@cdec$?$AA@ 1009af4c     LexFortran.obj
 0002:00001f54       ??_C@_08EJPINANN@endwhere?$AA@ 1009af54     LexFortran.obj
 0002:00001f60       ??_C@_07BMCEKKBG@endtype?$AA@ 1009af60     LexFortran.obj
 0002:00001f68       ??_C@_0O@CEJFIEDE@endsubroutine?$AA@ 1009af68     LexFortran.obj
 0002:00001f78       ??_C@_09JBGMBAOF@endmodule?$AA@ 1009af78     LexFortran.obj
 0002:00001f84       ??_C@_09HCHCFNLM@endforall?$AA@ 1009af84     LexFortran.obj
 0002:00001f90       ??_C@_07ECHIDDOB@endenum?$AA@ 1009af90     LexFortran.obj
 0002:00001f98       ??_C@_05CJPJHNFJ@enddo?$AA@ 1009af98     LexFortran.obj
 0002:00001fa0       ??_C@_0N@LMOMOMBG@endblockdata?$AA@ 1009afa0     LexFortran.obj
 0002:00001fb0       ??_C@_08DLJOBJI@endblock?$AA@ 1009afb0     LexFortran.obj
 0002:00001fbc       ??_C@_0N@LILJBHHN@endassociate?$AA@ 1009afbc     LexFortran.obj
 0002:00001fcc       ??_C@_0L@EJJGCMMC@subroutine?$AA@ 1009afcc     LexFortran.obj
 0002:00001fd8       ??_C@_06BIEEJMKO@module?$AA@ 1009afd8     LexFortran.obj
 0002:00001fe0       ??_C@_04DBJPMPLO@enum?$AA@ 1009afe0     LexFortran.obj
 0002:00001fe8       ??_C@_09GCKAPBAD@blockdata?$AA@ 1009afe8     LexFortran.obj
 0002:00001ff4       ??_C@_05PIBOEKAB@block?$AA@ 1009aff4     LexFortran.obj
 0002:00001ffc       ??_C@_09GGPFAKGI@associate?$AA@ 1009affc     LexFortran.obj
 0002:00002008       ??_C@_05LCFPHLEE@where?$AA@ 1009b008     LexFortran.obj
 0002:00002010       ??_C@_06PLFKNBPH@forall?$AA@ 1009b010     LexFortran.obj
 0002:00002018       ??_C@_07MIECNAEK@fortran?$AA@ 1009b018     LexFortran.obj
 0002:00002020       ??_C@_03HBNFNLBN@f77?$AA@  1009b020     LexFortran.obj
 0002:00002024       ??_C@_0BE@HHOHHCPF@Keywords?54?5?$CIunused?$CJ?$AA@ 1009b024     LexGAP.obj
 0002:00002038       ??_C@_0BE@FONMGHHG@Keywords?53?5?$CIunused?$CJ?$AA@ 1009b038     LexGAP.obj
 0002:0000204c       ??_C@_0L@FHFLKOCD@Keywords?52?$AA@ 1009b04c     LexGAP.obj
 0002:00002058       ??_C@_0L@HMHGPNOA@Keywords?51?$AA@ 1009b058     LexGAP.obj
 0002:00002078       ??_C@_02PINLEBJB@fi?$AA@   1009b078     LexGAP.obj
 0002:0000207c       ??_C@_02ECKEAEFD@od?$AA@   1009b07c     LexGAP.obj
 0002:00002080       ??_C@_06LGDBIFHB@repeat?$AA@ 1009b080     LexGAP.obj
 0002:00002088       ??_C@_03BOGADHLI@gap?$AA@  1009b088     LexGAP.obj
 0002:0000208c       ??_C@_07DFGIDBBA@Control?$AA@ 1009b08c     LexGui4Cli.obj
 0002:00002094       ??_C@_06HEBKAGDH@Events?$AA@ 1009b094     LexGui4Cli.obj
 0002:0000209c       ??_C@_07CJIGNMEG@Globals?$AA@ 1009b09c     LexGui4Cli.obj
 0002:000020bc       ??_C@_07FJJIIMCL@gui4cli?$AA@ 1009b0bc     LexGui4Cli.obj
 0002:000020c4       ??_C@_02BAABKJLB@?9?9?$AA@ 1009b0c4     LexHaskell.obj
 0002:000020c8       ??_C@_02KKLKPEOF@?9?$HN?$AA@ 1009b0c8     LexHaskell.obj
 0002:000020cc       ??_C@_02HIDAPLLD@?$HL?9?$AA@ 1009b0cc     LexHaskell.obj
 0002:000020d0       ??_C@_06EOGGDCGF@import?$AA@ 1009b0d0     LexHaskell.obj
 0002:000020d8       ??_C@_08EMNENPBA@instance?$AA@ 1009b0d8     LexHaskell.obj
 0002:000020e4       ??_C@_04PJOLNDGD@data?$AA@ 1009b0e4     LexHaskell.obj
 0002:000020ec       ??_C@_02ENLJKNMP@as?$AA@   1009b0ec     LexHaskell.obj
 0002:000020f0       ??_C@_09NPLHLKJP@qualified?$AA@ 1009b0f0     LexHaskell.obj
 0002:000020fc       ??_C@_07FDDLPECE@haskell?$AA@ 1009b0fc     LexHaskell.obj
 0002:00002104       ??_C@_0BG@NIGODHBL@SGML?5and?5DTD?5keywords?$AA@ 1009b104     LexHTML.obj
 0002:0000211c       ??_C@_0N@EAPPEJJD@PHP?5keywords?$AA@ 1009b11c     LexHTML.obj
 0002:0000212c       ??_C@_0BA@KDELBBJC@Python?5keywords?$AA@ 1009b12c     LexHTML.obj
 0002:0000213c       ??_C@_0BC@CGOHNKBO@VBScript?5keywords?$AA@ 1009b13c     LexHTML.obj
 0002:00002150       ??_C@_0BE@LANFEFNM@JavaScript?5keywords?$AA@ 1009b150     LexHTML.obj
 0002:00002164       ??_C@_0BN@FHDAAOGH@HTML?5elements?5and?5attributes?$AA@ 1009b164     LexHTML.obj
 0002:000021bc       ??_C@_03PJHHNEEI@xml?$AA@  1009b1bc     LexHTML.obj
 0002:000021c0       ??_C@_03NMHPGDBB@php?$AA@  1009b1c0     LexHTML.obj
 0002:000021c4       ??_C@_04MEENAGHB@jscr?$AA@ 1009b1c4     LexHTML.obj
 0002:000021cc       ??_C@_05EAFDFIPP@javas?$AA@ 1009b1cc     LexHTML.obj
 0002:000021d4       ??_C@_04CIOECGBI@pyth?$AA@ 1009b1d4     LexHTML.obj
 0002:000021dc       ??_C@_03NPKOOKNI@vbs?$AA@  1009b1dc     LexHTML.obj
 0002:000021e0       ??_C@_03LOJEKLML@src?$AA@  1009b1e0     LexHTML.obj
 0002:000021e4       ??_C@_07GJGNEJFD@comment?$AA@ 1009b1e4     LexHTML.obj
 0002:000021ec       ??_C@_06OLONEIEH@script?$AA@ 1009b1ec     LexHTML.obj
 0002:000021f4       ??_C@_0CA@KKGIOHJF@meta?5link?5img?5area?5br?5hr?5input?5?$AA@ 1009b1f4     LexHTML.obj
 0002:00002214       ??_C@_03IBMCFENF@rem?$AA@  1009b214     LexHTML.obj
 0002:00002218       ??_C@_03BHEEIFFN@def?$AA@  1009b218     LexHTML.obj
 0002:0000221c       ??_C@_07HKFAGCPM@?$FLCDATA?$FL?$AA@ 1009b21c     LexHTML.obj
 0002:00002224       ??_C@_01HCONENDN@?$HL?$AA@ 1009b224     LexHTML.obj
 0002:00002228       ??_C@_01FGNFDNOH@?$CF?$AA@ 1009b228     LexHTML.obj
 0002:0000222c       ??_C@_04BGIHDKAM@page?$AA@ 1009b22c     LexHTML.obj
 0002:00002234       ??_C@_09KPMGAFNI@namespace?$AA@ 1009b234     LexHTML.obj
 0002:00002240       ??_C@_07PGOGPNPO@inherit?$AA@ 1009b240     LexHTML.obj
 0002:00002248       ??_C@_0BA@IEIDKNKF@?4xXabcdefABCDEF?$AA@ 1009b248     LexHTML.obj
 0002:00002258       ??_C@_03DKMEACPB@?$DM?$DM?$DM?$AA@ 1009b258     LexHTML.obj
 0002:0000225c       ??_C@_07POJLBKCE@?4?9_?3?$CB?$CD?1?$AA@ 1009b25c     LexHTML.obj
 0002:00002264       ??_C@_07LFMIKGNG@?4?9_?3?$CB?$CD?$FL?$AA@ 1009b264     LexHTML.obj
 0002:0000226c       ??_C@_06OENAGPMB@?4?9_?3?$CB?$CD?$AA@ 1009b26c     LexHTML.obj
 0002:00002274       ??_C@_0BC@GPBPFLKA@lexer?4html?4django?$AA@ 1009b274     LexHTML.obj
 0002:00002288       ??_C@_0BA@DLBBDPNK@lexer?4html?4mako?$AA@ 1009b288     LexHTML.obj
 0002:00002298       ??_C@_0BI@KPMHLOBI@lexer?4xml?4allow?4scripts?$AA@ 1009b298     LexHTML.obj
 0002:000022b0       ??_C@_0BJ@KEELFFOH@html?4tags?4case?4sensitive?$AA@ 1009b2b0     LexHTML.obj
 0002:000022cc       ??_C@_0BH@GBOOICJN@fold?4hypertext?4heredoc?$AA@ 1009b2cc     LexHTML.obj
 0002:000022e4       ??_C@_0BH@OGPJLDMO@fold?4hypertext?4comment?$AA@ 1009b2e4     LexHTML.obj
 0002:000022fc       ??_C@_0BH@KBBGMFLC@fold?4html?4preprocessor?$AA@ 1009b2fc     LexHTML.obj
 0002:00002314       ??_C@_09ECBFGDBA@fold?4html?$AA@ 1009b314     LexHTML.obj
 0002:00002320       ??_C@_0BF@DGBNIIPN@asp?4default?4language?$AA@ 1009b320     LexHTML.obj
 0002:00002338       ??_C@_09KAGKDMLP@hypertext?$AA@ 1009b338     LexHTML.obj
 0002:00002344       ??_C@_09CIKJMIPL@phpscript?$AA@ 1009b344     LexHTML.obj
 0002:00002350       ??_C@_0BG@CLPLCFFL@User?5defined?5keywords?$AA@ 1009b350     LexInno.obj
 0002:00002368       ??_C@_0BA@BLPJDNOG@Pascal?5keywords?$AA@ 1009b368     LexInno.obj
 0002:00002378       ??_C@_0BI@KAKFICNK@Preprocessor?5directives?$AA@ 1009b378     LexInno.obj
 0002:00002390       ??_C@_08FBPDBPOE@Sections?$AA@ 1009b390     LexInno.obj
 0002:000023b8       ??_C@_04NDFOBODE@code?$AA@ 1009b3b8     LexInno.obj
 0002:000023c0       ??_C@_04NGCKAMKM@inno?$AA@ 1009b3c0     LexInno.obj
 0002:000023c8       ??_C@_03JCHMFDLA@kix?$AA@  1009b3c8     LexKix.obj
 0002:000023cc       ??_C@_0CA@KEKLBCMF@Functions?5and?5special?5operators?$AA@ 1009b3cc     LexLisp.obj
 0002:000023f8       ??_C@_04FKLJIFNI@lisp?$AA@ 1009b3f8     LexLisp.obj
 0002:00002400       ??_C@_0BE@HICDFDOA@Predefined?5keywords?$AA@ 1009b400     LexLout.obj
 0002:00002414       ??_C@_0BG@IPJLBNL@Predefined?5delimiters?$AA@ 1009b414     LexLout.obj
 0002:0000242c       ??_C@_0BH@PGFICBHF@Predefined?5identifiers?$AA@ 1009b42c     LexLout.obj
 0002:00002454       ??_C@_04IODMLACN@?$EAEnd?$AA@ 1009b454     LexLout.obj
 0002:0000245c       ??_C@_06CPFDHPJO@?$EABegin?$AA@ 1009b45c     LexLout.obj
 0002:00002464       ??_C@_04BPDDGDLC@lout?$AA@ 1009b464     LexLout.obj
 0002:0000246c       ??_C@_05ELAHBAMJ@user4?$AA@ 1009b46c     LexLua.obj
 0002:00002474       ??_C@_0CG@GFDPFIJB@?$CIcoroutines?$CJ?0?5I?1O?5?$CG?5system?5facil@ 1009b474     LexLua.obj
 0002:0000249c       ??_C@_0CB@CPGPPNGP@String?0?5?$CItable?$CJ?5?$CG?5math?5functions@ 1009b49c     LexLua.obj
 0002:000024c0       ??_C@_0BA@LPBKOJMC@Basic?5functions?$AA@ 1009b4c0     LexLua.obj
 0002:000024f4       ??_C@_03OFDJAGCM@?9?9?$FL?$AA@ 1009b4f4     LexLua.obj
 0002:000024f8       ??_C@_03PPIMAFGL@?$CC?8?2?$AA@ 1009b4f8     LexLua.obj
 0002:000024fc       ??_C@_0BG@PJFCBKF@?$CK?1?9?$CL?$CI?$CJ?$DN?$HL?$HN?$HO?$FL?$FN?$DL?$DM?$DO?0?4?$FO?$CF?3?$CD?$AA@ 1009b4fc     LexLua.obj
 0002:00002514       ??_C@_0BA@KPJDGBIC@?4?9?$CLabcdefABCDEF?$AA@ 1009b514     LexLua.obj
 0002:00002524       ??_C@_03IBJHJIAF@lua?$AA@  1009b524     LexLua.obj
 0002:00002528       ??_C@_0DA@BOBHAPGA@Fold?5Containers?5?$CImethod?0?5proc?0?5b@ 1009b528     LexMagik.obj
 0002:00002558       ??_C@_0CJ@DIDGHFHE@Characters?5?$CIspace?0?5tab?0?5newline?0@ 1009b558     LexMagik.obj
 0002:00002584       ??_C@_0BM@IKHKNFEA@Flow?5?$CIif?0?5then?0?5elif?0?5else?$CJ?$AA@ 1009b584     LexMagik.obj
 0002:000025a0       ??_C@_0CB@FBNMAKOG@Containers?5?$CImethod?0?5block?0?5proc?$CJ@ 1009b5a0     LexMagik.obj
 0002:000025c4       ??_C@_0BM@IBIKGHMA@Pragmatic?5?$CIpragma?0?5private?$CJ?$AA@ 1009b5c4     LexMagik.obj
 0002:000025e0       ??_C@_0DD@BMGKAFMM@Accessors?5?$CIlocal?0?5global?0?5self?0?5@ 1009b5e0     LexMagik.obj
 0002:00002630       ??_C@_07PEBGJCFJ@magiksf?$AA@ 1009b630     LexMagik.obj
 0002:00002638       ??_C@_02GAHOIOKF@?$CB?$FL?$AA@ 1009b638     LexMarkdown.obj
 0002:0000263c       ??_C@_02IEBMKJDF@?$CD?$CD?$AA@ 1009b63c     LexMarkdown.obj
 0002:00002640       ??_C@_03OIJOKPOL@?$CD?$CD?$CD?$AA@ 1009b640     LexMarkdown.obj
 0002:00002644       ??_C@_04IJJJNCDO@?$CD?$CD?$CD?$CD?$AA@ 1009b644     LexMarkdown.obj
 0002:0000264c       ??_C@_05HPEBPDBI@?$CD?$CD?$CD?$CD?$CD?$AA@ 1009b64c     LexMarkdown.obj
 0002:00002654       ??_C@_06KNLKKOME@?$CD?$CD?$CD?$CD?$CD?$CD?$AA@ 1009b654     LexMarkdown.obj
 0002:0000265c       ??_C@_02OPGNDHMP@?$HO?$HO?$AA@ 1009b65c     LexMarkdown.obj
 0002:00002660       ??_C@_03LKIIOGGO@?$HO?$HO?$HO?$AA@ 1009b660     LexMarkdown.obj
 0002:00002664       ??_C@_02FKHNAOPL@__?$AA@   1009b664     LexMarkdown.obj
 0002:00002668       ??_C@_02FKAPCJPD@?$CK?$CK?$AA@ 1009b668     LexMarkdown.obj
 0002:0000266c       ??_C@_02CNJEIGGK@?$GA?$GA?$AA@ 1009b66c     LexMarkdown.obj
 0002:00002670       ??_C@_08BEGIBNDI@markdown?$AA@ 1009b670     LexMarkdown.obj
 0002:0000268c       ??_C@_06CICGHHNN@matlab?$AA@ 1009b68c     LexMatlab.obj
 0002:00002694       ??_C@_06FGDDDMBA@octave?$AA@ 1009b694     LexMatlab.obj
 0002:0000269c       ??_C@_07NCBBGOLB@MetaFun?$AA@ 1009b69c     LexMetapost.obj
 0002:000026a4       ??_C@_08DDBNMLHM@MetaPost?$AA@ 1009b6a4     LexMetapost.obj
 0002:000026bc       ??_C@_0L@OENBCFJ@?$CFD?5?2module?$AA@ 1009b6bc     LexMetapost.obj
 0002:000026c8       ??_C@_0BC@OJONICKK@interface?$DNmetafun?$AA@ 1009b6c8     LexMetapost.obj
 0002:000026dc       ??_C@_0N@JGGILJJG@interface?$DNmp?$AA@ 1009b6dc     LexMetapost.obj
 0002:000026ec       ??_C@_0BD@LJEDPOHM@interface?$DNmetapost?$AA@ 1009b6ec     LexMetapost.obj
 0002:00002700       ??_C@_0P@IALPPEAN@interface?$DNnone?$AA@ 1009b700     LexMetapost.obj
 0002:00002710       ??_C@_04CFKIDNCB@etex?$AA@ 1009b710     LexMetapost.obj
 0002:00002718       ??_C@_0M@OJGPKPPE@verbatimtex?$AA@ 1009b718     LexMetapost.obj
 0002:00002724       ??_C@_04JHIIOBDB@btex?$AA@ 1009b724     LexMetapost.obj
 0002:0000272c       ??_C@_0CB@DHGCLCOC@lexer?4metapost?4interface?4default@ 1009b72c     LexMetapost.obj
 0002:00002750       ??_C@_0BP@IAHCDPCF@lexer?4metapost?4comment?4process?$AA@ 1009b750     LexMetapost.obj
 0002:00002770       ??_C@_08HACNGGNL@metapost?$AA@ 1009b770     LexMetapost.obj
 0002:0000277c       ??_C@_0BD@DILMIOCP@Predefined?5Symbols?$AA@ 1009b77c     LexMMIXAL.obj
 0002:00002790       ??_C@_0BB@PCIDOIIP@Special?5Register?$AA@ 1009b790     LexMMIXAL.obj
 0002:000027a4       ??_C@_0BA@FCEGOHHF@Operation?5Codes?$AA@ 1009b7a4     LexMMIXAL.obj
 0002:000027c4       ??_C@_06IGGMAJND@mmixal?$AA@ 1009b7c4     LexMMIXAL.obj
 0002:000027d0       ??_C@_07LGIIPPHI@ABORTED?$AA@ 1009b7d0     LexMPT.obj
 0002:000027d8       ??_C@_06OHCJKBJM@FAILED?$AA@ 1009b7d8     LexMPT.obj
 0002:000027e0       ??_C@_06MBANMAIC@PASSED?$AA@ 1009b7e0     LexMPT.obj
 0002:000027e8       ??_C@_03KHJDFILH@lot?$AA@  1009b7e8     LexMPT.obj
 0002:000027ec       ??_C@_09JPEDIMAC@Operators?$AA@ 1009b7ec     LexMSSQL.obj
 0002:000027f8       ??_C@_0BJ@KLHHAMEN@System?5Stored?5Procedures?$AA@ 1009b7f8     LexMSSQL.obj
 0002:00002814       ??_C@_09GLFFPDKE@Functions?$AA@ 1009b814     LexMSSQL.obj
 0002:00002820       ??_C@_0BB@INLDEFLJ@Global?5variables?$AA@ 1009b820     LexMSSQL.obj
 0002:00002834       ??_C@_0O@DFHHMAFJ@System?5tables?$AA@ 1009b834     LexMSSQL.obj
 0002:00002844       ??_C@_0L@PAJDALGN@Data?5Types?$AA@ 1009b844     LexMSSQL.obj
 0002:00002850       ??_C@_0L@FJKBDHCL@Statements?$AA@ 1009b850     LexMSSQL.obj
 0002:0000287c       ??_C@_05EAFKHBAM@begin?$AA@ 1009b87c     LexMSSQL.obj
 0002:00002884       ??_C@_05KBNEPBHJ@mssql?$AA@ 1009b884     LexMSSQL.obj
 0002:0000288c       ??_C@_0BA@KGLKDDAP@User?5Keywords?53?$AA@ 1009b88c     LexMySQL.obj
 0002:0000289c       ??_C@_0BA@LPKBACEO@User?5Keywords?52?$AA@ 1009b89c     LexMySQL.obj
 0002:000028ac       ??_C@_0BA@JEIMFBIN@User?5Keywords?51?$AA@ 1009b8ac     LexMySQL.obj
 0002:000028bc       ??_C@_0BD@EPCBIJLO@Procedure?5keywords?$AA@ 1009b8bc     LexMySQL.obj
 0002:000028d0       ??_C@_0BB@PODCHMNL@System?5Variables?$AA@ 1009b8d0     LexMySQL.obj
 0002:000028e4       ??_C@_0BB@HHHCFMDA@Database?5Objects?$AA@ 1009b8e4     LexMySQL.obj
 0002:000028f8       ??_C@_0P@LCPBGGBD@Major?5Keywords?$AA@ 1009b8f8     LexMySQL.obj
 0002:00002930       ??_C@_04DJNPKEDD@when?$AA@ 1009b930     LexMySQL.obj
 0002:00002938       ??_C@_04GKOOIABA@loop?$AA@ 1009b938     LexMySQL.obj
 0002:00002940       ??_C@_0BE@CONLADAH@fold?4sql?4only?4begin?$AA@ 1009b940     LexMySQL.obj
 0002:00002954       ??_C@_05OLGEOJNI@mysql?$AA@ 1009b954     LexMySQL.obj
 0002:00002964       ??_C@_03EIPLJDPI@?$CC?$CC?$CC?$AA@ 1009b964     LexNimrod.obj
 0002:00002968       ??_C@_0BM@NIJEIOGL@?$CI?$CJ?$FL?$FN?$HL?$HN?3?$DN?$DL?9?2?1?$CG?$CF$?$CB?$CL?$DM?$DO?$HM?$FO?$DP?0?4?$CK?$HO?$EA?$AA@ 1009b968     LexNimrod.obj
 0002:00002984       ??_C@_02JMMFPCED@?$CC?$CC?$AA@ 1009b984     LexNimrod.obj
 0002:00002988       ??_C@_0BD@GMEOIMKA@fold?4quotes?4nimrod?$AA@ 1009b988     LexNimrod.obj
 0002:0000299c       ??_C@_0BE@HALGPGPN@fold?4comment?4nimrod?$AA@ 1009b99c     LexNimrod.obj
 0002:000029b0       ??_C@_06HEGPLAPO@nimrod?$AA@ 1009b9b0     LexNimrod.obj
 0002:000029b8       ??_C@_06PKJMKMBL@Lables?$AA@ 1009b9b8     LexNsis.obj
 0002:000029c0       ??_C@_09IJIPICN@Variables?$AA@ 1009b9c0     LexNsis.obj
 0002:000029e0       ??_C@_05OMNCHBKC@?$CBelse?$AA@ 1009b9e0     LexNsis.obj
 0002:000029e8       ??_C@_09JEPMJOJB@PageExEnd?$AA@ 1009b9e8     LexNsis.obj
 0002:000029f4       ??_C@_0L@CBICIFBK@SectionEnd?$AA@ 1009b9f4     LexNsis.obj
 0002:00002a00       ??_C@_0M@HIEHFOOK@FunctionEnd?$AA@ 1009ba00     LexNsis.obj
 0002:00002a0c       ??_C@_0O@KDGGJOHH@SubSectionEnd?$AA@ 1009ba0c     LexNsis.obj
 0002:00002a1c       ??_C@_0BA@NEDDNHAE@SectionGroupEnd?$AA@ 1009ba1c     LexNsis.obj
 0002:00002a2c       ??_C@_06DELDAFHA@PageEx?$AA@ 1009ba2c     LexNsis.obj
 0002:00002a34       ??_C@_0L@GJBPMMOJ@SubSection?$AA@ 1009ba34     LexNsis.obj
 0002:00002a40       ??_C@_08PHKOHANG@Function?$AA@ 1009ba40     LexNsis.obj
 0002:00002a4c       ??_C@_0N@GPCDCDDC@SectionGroup?$AA@ 1009ba4c     LexNsis.obj
 0002:00002a5c       ??_C@_07OEBDPOLH@Section?$AA@ 1009ba5c     LexNsis.obj
 0002:00002a64       ??_C@_09KFHBGMCH@?$CBmacroend?$AA@ 1009ba64     LexNsis.obj
 0002:00002a70       ??_C@_06LFIHBJLG@?$CBendif?$AA@ 1009ba70     LexNsis.obj
 0002:00002a78       ??_C@_06IHOCMDGL@?$CBmacro?$AA@ 1009ba78     LexNsis.obj
 0002:00002a80       ??_C@_03LCJENEDG@?$CBif?$AA@ 1009ba80     LexNsis.obj
 0002:00002a84       ??_C@_0N@MPDEIMIP@?$CBifmacrondef?$AA@ 1009ba84     LexNsis.obj
 0002:00002a94       ??_C@_0M@GPJKALML@?$CBifmacrodef?$AA@ 1009ba94     LexNsis.obj
 0002:00002aa0       ??_C@_06PLCPGLGI@?$CBifdef?$AA@ 1009baa0     LexNsis.obj
 0002:00002aa8       ??_C@_07IAHPMLLN@?$CBifndef?$AA@ 1009baa8     LexNsis.obj
 0002:00002ab0       ??_C@_0BA@HMCAMDPI@nsis?4ignorecase?$AA@ 1009bab0     LexNsis.obj
 0002:00002ac0       ??_C@_0O@EMHDNBLA@nsis?4uservars?$AA@ 1009bac0     LexNsis.obj
 0002:00002ad0       ??_C@_0BB@DABBLLAJ@nsis?4foldutilcmd?$AA@ 1009bad0     LexNsis.obj
 0002:00002ae4       ??_C@_04CFEBBECG@nsis?$AA@ 1009bae4     LexNsis.obj
 0002:00002aec       ??_C@_05EJJJEGDH@Sorts?$AA@ 1009baec     LexOpal.obj
 0002:00002b00       ??_C@_05LAPONLG@false?$AA@ 1009bb00     LexOpal.obj
 0002:00002b08       ??_C@_04LOAJBDKD@true?$AA@ 1009bb08     LexOpal.obj
 0002:00002b10       ??_C@_04MJNNMNFO@opal?$AA@ 1009bb10     LexOpal.obj
 0002:00002b18       ??_C@_0BC@ODBBAJBA@External?5Commands?$AA@ 1009bb18     LexOthers.obj
 0002:00002b2c       ??_C@_0BC@EPINFOGP@Internal?5Commands?$AA@ 1009bb2c     LexOthers.obj
 0002:00002b50       ??_C@_05FAGFPHJG@start?$AA@ 1009bb50     LexOthers.obj
 0002:00002b58       ??_C@_06DDDNEJEA@choice?$AA@ 1009bb58     LexOthers.obj
 0002:00002b60       ??_C@_02OMFHPFAG@lh?$AA@   1009bb60     LexOthers.obj
 0002:00002b64       ??_C@_08BLBOJJOE@loadhigh?$AA@ 1009bb64     LexOthers.obj
 0002:00002b70       ??_C@_04OMFAIDPG@call?$AA@ 1009bb70     LexOthers.obj
 0002:00002b78       ??_C@_05IEGMLJMJ@exist?$AA@ 1009bb78     LexOthers.obj
 0002:00002b80       ??_C@_0L@MMKFMLG@errorlevel?$AA@ 1009bb80     LexOthers.obj
 0002:00002b8c       ??_C@_03KCHOJKKI@set?$AA@  1009bb8c     LexOthers.obj
 0002:00002b90       ??_C@_06FJNEHIA@prompt?$AA@ 1009bb90     LexOthers.obj
 0002:00002b98       ??_C@_04MABHPDAO@goto?$AA@ 1009bb98     LexOthers.obj
 0002:00002ba0       ??_C@_04OFDNEFMC@echo?$AA@ 1009bba0     LexOthers.obj
 0002:00002ba8       ??_C@_02LKANKAOC@?$DP?5?$AA@ 1009bba8     LexOthers.obj
 0002:00002bac       ??_C@_03ELIFGAKH@?$CK?$CK?$CK?$AA@ 1009bbac     LexOthers.obj
 0002:00002bb0       ??_C@_04CEHGGKNE@?$DN?$DN?$DN?$DN?$AA@ 1009bbb0     LexOthers.obj
 0002:00002bb8       ??_C@_04FJGDLDGL@?$CL?$CL?$CL?5?$AA@ 1009bbb8     LexOthers.obj
 0002:00002bc0       ??_C@_03JMFMNIFM@?9?9?9?$AA@ 1009bbc0     LexOthers.obj
 0002:00002bc4       ??_C@_07KHMCLHAO@Index?3?5?$AA@ 1009bbc4     LexOthers.obj
 0002:00002bcc       ??_C@_05IOOJDNMD@diff?5?$AA@ 1009bbcc     LexOthers.obj
 0002:00002bd4       ??_C@_07DCDMNPOE@msgctxt?$AA@ 1009bbd4     LexOthers.obj
 0002:00002bdc       ??_C@_06BJCNANBM@msgstr?$AA@ 1009bbdc     LexOthers.obj
 0002:00002be4       ??_C@_05KEEDEJHB@msgid?$AA@ 1009bbe4     LexOthers.obj
 0002:00002bec       ??_C@_05CLLLCGF@fuzzy?$AA@ 1009bbec     LexOthers.obj
 0002:00002bf4       ??_C@_03MIOPLLBF@?$CD?0?5?$AA@ 1009bbf4     LexOthers.obj
 0002:00002bf8       ??_C@_0CB@JAGDAFCA@lexer?4props?4allow?4initial?4spaces@ 1009bbf8     LexOthers.obj
 0002:00002c1c       ??_C@_06HCBJFCKC@remark?$AA@ 1009bc1c     LexOthers.obj
 0002:00002c24       ??_C@_04DHOIHJPF@note?$AA@ 1009bc24     LexOthers.obj
 0002:00002c2c       ??_C@_0N@ONGMIKKK@catastrophic?$AA@ 1009bc2c     LexOthers.obj
 0002:00002c3c       ??_C@_05FAMCFOJB@fatal?$AA@ 1009bc3c     LexOthers.obj
 0002:00002c44       ??_C@_07FPLKDJGL@warning?$AA@ 1009bc44     LexOthers.obj
 0002:00002c4c       ??_C@_05KKCIMGE@error?$AA@ 1009bc4c     LexOthers.obj
 0002:00002c54       ??_C@_06NCMEJAKP@?4java?3?$AA@ 1009bc54     LexOthers.obj
 0002:00002c5c       ??_C@_01ODHLEDKK@?$CI?$AA@ 1009bc5c     LexOthers.obj
 0002:00002c60       ??_C@_04HBCLBONL@?7at?5?$AA@ 1009bc60     LexOthers.obj
 0002:00002c68       ??_C@_08OIBILPGO@?5column?5?$AA@ 1009bc68     LexOthers.obj
 0002:00002c74       ??_C@_05KFEICJBI@line?5?$AA@ 1009bc74     LexOthers.obj
 0002:00002c7c       ??_C@_07BLFOPCLK@?0?5file?5?$AA@ 1009bc7c     LexOthers.obj
 0002:00002c84       ??_C@_05KCOECMCO@Line?5?$AA@ 1009bc84     LexOthers.obj
 0002:00002c8c       ??_C@_06IFPFKNNJ@?3line?5?$AA@ 1009bc8c     LexOthers.obj
 0002:00002c94       ??_C@_06EGFLGOFJ@?5line?5?$AA@ 1009bc94     LexOthers.obj
 0002:00002c9c       ??_C@_04LNPKFDKO@?5at?5?$AA@ 1009bc9c     LexOthers.obj
 0002:00002ca4       ??_C@_05KONKMCPF@file?5?$AA@ 1009bca4     LexOthers.obj
 0002:00002cac       ??_C@_08FODMKPAE@at?5line?5?$AA@ 1009bcac     LexOthers.obj
 0002:00002cb8       ??_C@_04OJEGKOEN@?$CJ?5?3?5?$AA@ 1009bcb8     LexOthers.obj
 0002:00002cc0       ??_C@_05GMIONKBG@?5at?5?$CI?$AA@ 1009bcc0     LexOthers.obj
 0002:00002cc8       ??_C@_08MNEKKEOI@Warning?5?$AA@ 1009bcc8     LexOthers.obj
 0002:00002cd4       ??_C@_06BAOMBKPD@Error?5?$AA@ 1009bcd4     LexOthers.obj
 0002:00002cdc       ??_C@_09DBFLCGHN@?5on?5line?5?$AA@ 1009bcdc     LexOthers.obj
 0002:00002ce8       ??_C@_04GJPPFNOH@?5in?5?$AA@ 1009bce8     LexOthers.obj
 0002:00002cf0       ??_C@_07BAMMBJFH@?0?5line?5?$AA@ 1009bcf0     LexOthers.obj
 0002:00002cf8       ??_C@_06KFHGKDON@File?5?$CC?$AA@ 1009bcf8     LexOthers.obj
 0002:00002d00       ??_C@_08MHBEDHP@fortcom?3?$AA@ 1009bd00     LexOthers.obj
 0002:00002d0c       ??_C@_05FPENKJBB@cf90?9?$AA@ 1009bd0c     LexOthers.obj
 0002:00002d14       ??_C@_04PHMFGFKF@?9?9?9?5?$AA@ 1009bd14     LexOthers.obj
 0002:00002d1c       ??_C@_0BP@MKPDMEEN@lexer?4errorlist?4value?4separate?$AA@ 1009bd1c     LexOthers.obj
 0002:00002d3c       ??_C@_05KMLLANON@batch?$AA@ 1009bd3c     LexOthers.obj
 0002:00002d44       ??_C@_04GMLMBKFF@diff?$AA@ 1009bd44     LexOthers.obj
 0002:00002d4c       ??_C@_02LGCKDJNF@po?$AA@   1009bd4c     LexOthers.obj
 0002:00002d50       ??_C@_05PFKLEFAC@props?$AA@ 1009bd50     LexOthers.obj
 0002:00002d58       ??_C@_08HAAIDMLD@makefile?$AA@ 1009bd58     LexOthers.obj
 0002:00002d64       ??_C@_09CHIHPNPL@errorlist?$AA@ 1009bd64     LexOthers.obj
 0002:00002d70       ??_C@_05NIPOACHO@latex?$AA@ 1009bd70     LexOthers.obj
 0002:00002d78       ??_C@_04MLLLIHIP@null?$AA@ 1009bd78     LexOthers.obj
 0002:00002d88       ??_C@_06LEMKAMD@remove?$AA@ 1009bd88     LexPascal.obj
 0002:00002d90       ??_C@_03BDGOHNNK@add?$AA@  1009bd90     LexPascal.obj
 0002:00002d94       ??_C@_09CGKEKDCN@writeonly?$AA@ 1009bd94     LexPascal.obj
 0002:00002da0       ??_C@_08JOKHDEJH@readonly?$AA@ 1009bda0     LexPascal.obj
 0002:00002dac       ??_C@_0L@FMDKPCDN@implements?$AA@ 1009bdac     LexPascal.obj
 0002:00002db8       ??_C@_06LKHJIKAD@stored?$AA@ 1009bdb8     LexPascal.obj
 0002:00002dc0       ??_C@_09PBCOEMJO@nodefault?$AA@ 1009bdc0     LexPascal.obj
 0002:00002dcc       ??_C@_07DLHCIBDH@default?$AA@ 1009bdcc     LexPascal.obj
 0002:00002dd4       ??_C@_05NGFEDHGN@write?$AA@ 1009bdd4     LexPascal.obj
 0002:00002ddc       ??_C@_04POLDLDMI@read?$AA@ 1009bddc     LexPascal.obj
 0002:00002de4       ??_C@_04MEMAJGDJ@name?$AA@ 1009bde4     LexPascal.obj
 0002:00002dec       ??_C@_05FKHKFDID@index?$AA@ 1009bdec     LexPascal.obj
 0002:00002df4       ??_C@_07FLMNHPPG@exports?$AA@ 1009bdf4     LexPascal.obj
 0002:00002dfc       ??_C@_08EMBNBNLN@property?$AA@ 1009bdfc     LexPascal.obj
 0002:00002e08       ??_C@_03HPAPIFKC@?$CI?$CK$?$AA@ 1009be08     LexPascal.obj
 0002:00002e0c       ??_C@_0BI@MCKGKNDI@?$CD$?$CG?8?$CI?$CJ?$CK?$CL?0?9?4?1?3?$DL?$DM?$DN?$DO?$EA?$FL?$FN?$FO?$HL?$HN?$AA@ 1009be0c     LexPascal.obj
 0002:00002e24       ??_C@_0N@INHGOOCE@abcdefABCDEF?$AA@ 1009be24     LexPascal.obj
 0002:00002e34       ??_C@_05POOLELBL@?4?9?$CLeE?$AA@ 1009be34     LexPascal.obj
 0002:00002e3c       ??_C@_0CA@CPCIMFMF@lexer?4pascal?4smart?4highlighting?$AA@ 1009be3c     LexPascal.obj
 0002:00002e5c       ??_C@_09BNLMCKMB@endregion?$AA@ 1009be5c     LexPascal.obj
 0002:00002e68       ??_C@_05DIJEMNJL@ifend?$AA@ 1009be68     LexPascal.obj
 0002:00002e70       ??_C@_05LFDLBNE@ifopt?$AA@ 1009be70     LexPascal.obj
 0002:00002e78       ??_C@_06ENONKJGC@ifndef?$AA@ 1009be78     LexPascal.obj
 0002:00002e80       ??_C@_05LOELCHJN@ifdef?$AA@ 1009be80     LexPascal.obj
 0002:00002e88       ??_C@_08LHJFAFGD@operator?$AA@ 1009be88     LexPascal.obj
 0002:00002e94       ??_C@_03MEPDGFMA@var?$AA@  1009be94     LexPascal.obj
 0002:00002e98       ??_C@_02HAJCGGNB@of?$AA@   1009be98     LexPascal.obj
 0002:00002e9c       ??_C@_06IEOJBDIK@object?$AA@ 1009be9c     LexPascal.obj
 0002:00002ea4       ??_C@_03JDGOGJKJ@try?$AA@  1009bea4     LexPascal.obj
 0002:00002ea8       ??_C@_06KKGOIHDP@record?$AA@ 1009bea8     LexPascal.obj
 0002:00002eb0       ??_C@_06FKOPGLBL@pascal?$AA@ 1009beb0     LexPascal.obj
 0002:00002ec0       ??_C@_0BC@DKFNGAKG@CALLBACK?5FUNCTION?$AA@ 1009bec0     LexPB.obj
 0002:00002ed4       ??_C@_0L@DFEADPIA@STATIC?5SUB?$AA@ 1009bed4     LexPB.obj
 0002:00002ee0       ??_C@_0BA@FNINNEFB@STATIC?5FUNCTION?$AA@ 1009bee0     LexPB.obj
 0002:00002ef0       ??_C@_08KPDMMFC@FUNCTION?$AA@ 1009bef0     LexPB.obj
 0002:00002efc       ??_C@_0L@KMLKLFMJ@powerbasic?$AA@ 1009befc     LexPB.obj
 0002:00002f10       ??_C@_02GNMIELFD@?$DN?$DO?$AA@ 1009bf10     LexPerl.obj
 0002:00002f14       ??_C@_02HBOOOICD@?9?$DO?$AA@ 1009bf14     LexPerl.obj
 0002:00002f18       ??_C@_02MOLJINC@?3?3?$AA@  1009bf18     LexPerl.obj
 0002:00002f1c       ??_C@_03JDAAKEE@?$DM?$DN?$DO?$AA@ 1009bf1c     LexPerl.obj
 0002:00002f20       ??_C@_07KNEGBPNO@package?$AA@ 1009bf20     LexPerl.obj
 0002:00002f28       ??_C@_07DFKFMCCJ@__END__?$AA@ 1009bf28     LexPerl.obj
 0002:00002f30       ??_C@_05BLOHHOCG@?$DNhead?$AA@ 1009bf30     LexPerl.obj
 0002:00002f38       ??_C@_04FAJGDKHB@?$DNcut?$AA@ 1009bf38     LexPerl.obj
 0002:00002f40       ??_C@_0BC@IONCHNAC@fold?4perl?4package?$AA@ 1009bf40     LexPerl.obj
 0002:00002f54       ??_C@_0O@NEKEMKPC@fold?4perl?4pod?$AA@ 1009bf54     LexPerl.obj
 0002:00002f64       ??_C@_01LFCBOECM@?4?$AA@   1009bf64     LexPerl.obj
 0002:00002f68       ??_C@_06DLEPGFEF@format?$AA@ 1009bf68     LexPerl.obj
 0002:00002f70       ??_C@_08PIKDHCHK@__DATA__?$AA@ 1009bf70     LexPerl.obj
 0002:00002f7c       ??_C@_02NLGAHNO@_?$DN?$AA@ 1009bf7c     LexPerl.obj
 0002:00002f80       ??_C@_09PINEGEJB@?2?$FL$?$EA?$CF?$CG?$CK?$FN?$DL?$AA@ 1009bf80     LexPerl.obj
 0002:00002f8c       ??_C@_03BDMHKBKG@?$DN$?$EA?$AA@ 1009bf8c     LexPerl.obj
 0002:00002f90       ??_C@_07OIEPGPEF@?$CD$_?$CB?$FO?$CL?9?$AA@ 1009bf90     LexPerl.obj
 0002:00002f98       ??_C@_05HMBIEMBK@?$CD$_?$CL?9?$AA@ 1009bf98     LexPerl.obj
 0002:00002fa0       ??_C@_04CNMJLOLH@?$CD$_?8?$AA@ 1009bfa0     LexPerl.obj
 0002:00002fa8       ??_C@_04IPHPEMDM@?$CK?1?$DM?$CF?$AA@ 1009bfa8     LexPerl.obj
 0002:00002fb0       ??_C@_04IKABCEKB@qrwx?$AA@ 1009bfb0     LexPerl.obj
 0002:00002fb8       ??_C@_0BG@DADNGEBA@?$FO?$CG?2?$CI?$CJ?9?$CL?$DN?$HM?$HL?$HN?$FL?$FN?3?$DL?$DO?0?$DP?$CB?4?$HO?$AA@ 1009bfb8     LexPerl.obj
 0002:00002fd0       ??_C@_0BM@EMMJFDPD@rwxoRWXOezsfdlpSbctugkTBMAC?$AA@ 1009bfd0     LexPerl.obj
 0002:00002fec       ??_C@_0BF@IJBGMJOL@elsif?5if?5split?5while?$AA@ 1009bfec     LexPerl.obj
 0002:00003004       ??_C@_04FCMKHHIJ@perl?$AA@ 1009c004     LexPerl.obj
 0002:00003014       ??_C@_04KGMKBADJ@PL?1M?$AA@ 1009c014     LexPLM.obj
 0002:0000301c       ??_C@_0P@IDBBNMLG@User?5defined?53?$AA@ 1009c01c     LexPOV.obj
 0002:0000302c       ??_C@_0P@JKAKONPH@User?5defined?52?$AA@ 1009c02c     LexPOV.obj
 0002:0000303c       ??_C@_0P@LBCHLODE@User?5defined?51?$AA@ 1009c03c     LexPOV.obj
 0002:0000304c       ??_C@_0BF@OKDCECAJ@Predefined?5Functions?$AA@ 1009c04c     LexPOV.obj
 0002:00003064       ??_C@_0BH@OOGJPKIN@Predefined?5Identifiers?$AA@ 1009c064     LexPOV.obj
 0002:0000307c       ??_C@_0BK@MFEHNNMG@Types?5?$CG?5Modifiers?5?$CG?5Items?$AA@ 1009c07c     LexPOV.obj
 0002:00003098       ??_C@_0BL@FAMKEMOD@Objects?5?$CG?5CSG?5?$CG?5Appearance?$AA@ 1009c098     LexPOV.obj
 0002:000030b4       ??_C@_0BE@IKCICKIO@Language?5directives?$AA@ 1009c0b4     LexPOV.obj
 0002:000030ec       ??_C@_0M@MGIJBNCD@abfnrtuv0?8?$CC?$AA@ 1009c0ec     LexPOV.obj
 0002:000030f8       ??_C@_0P@GKILKIPN@fold?4directive?$AA@ 1009c0f8     LexPOV.obj
 0002:00003108       ??_C@_03IPGKNCBC@pov?$AA@  1009c108     LexPOV.obj
 0002:0000310c       ??_C@_0P@CKCCDLKN@Keyword?5list?54?$AA@ 1009c10c     LexPowerPro.obj
 0002:0000311c       ??_C@_0P@GFGDKNGK@Keyword?5list?53?$AA@ 1009c11c     LexPowerPro.obj
 0002:0000312c       ??_C@_0P@HMHIJMCL@Keyword?5list?52?$AA@ 1009c12c     LexPowerPro.obj
 0002:0000313c       ??_C@_0P@FHFFMPOI@Keyword?5list?51?$AA@ 1009c13c     LexPowerPro.obj
 0002:00003160       ??_C@_02BEDCMDKE@?$DL?$DL?$AA@ 1009c160     LexPowerPro.obj
 0002:00003164       ??_C@_03KHNPKIFL@?$DL?$DL?$CL?$AA@ 1009c164     LexPowerPro.obj
 0002:00003168       ??_C@_02JHCHAAGF@_?$EA?$AA@ 1009c168     LexPowerPro.obj
 0002:0000316c       ??_C@_08MMFFDCLK@powerpro?$AA@ 1009c16c     LexPowerPro.obj
 0002:00003178       ??_C@_07ILNBOIJH@Aliases?$AA@ 1009c178     LexPowerShell.obj
 0002:00003180       ??_C@_07EDBLPCDF@Cmdlets?$AA@ 1009c180     LexPowerShell.obj
 0002:00003198       ??_C@_0L@JNABNAOB@powershell?$AA@ 1009c198     LexPowerShell.obj
 0002:000031bc       ??_C@_08LCGAPFCF@progress?$AA@ 1009c1bc     LexProgress.obj
 0002:000031c8       ??_C@_0BH@DKLCBMDC@User?9defined?5operators?$AA@ 1009c1c8     LexPS.obj
 0002:000031e0       ??_C@_0BH@EKMAKBGD@RIP?9specific?5operators?$AA@ 1009c1e0     LexPS.obj
 0002:000031f8       ??_C@_0BF@LNIKOAHA@PS?5Level?53?5operators?$AA@ 1009c1f8     LexPS.obj
 0002:00003210       ??_C@_0BF@CGCPKMBP@PS?5Level?52?5operators?$AA@ 1009c210     LexPS.obj
 0002:00003228       ??_C@_0BF@FBLBHOOP@PS?5Level?51?5operators?$AA@ 1009c228     LexPS.obj
 0002:00003258       ??_C@_08LDOMBJAK@ps?4level?$AA@ 1009c258     LexPS.obj
 0002:00003264       ??_C@_0M@MCPIBKAM@ps?4tokenize?$AA@ 1009c264     LexPS.obj
 0002:00003270       ??_C@_02FAFNGEII@ps?$AA@   1009c270     LexPS.obj
 0002:00003274       ??_C@_0BI@GGICGCL@Highlighted?5identifiers?$AA@ 1009c274     LexPython.obj
 0002:00003298       ??_C@_03EJJFFGE@?8?8?8?$AA@ 1009c298     LexPython.obj
 0002:0000329c       ??_C@_07OIEMJFCK@cimport?$AA@ 1009c29c     LexPython.obj
 0002:000032a4       ??_C@_04COLAKAMB@cdef?$AA@ 1009c2a4     LexPython.obj
 0002:000032ac       ??_C@_0CC@LKIBGEG@lexer?4python?4strings?4over?4newlin@ 1009c2ac     LexPython.obj
 0002:000032d0       ??_C@_0BH@OOHOOGDG@lexer?4python?4strings?4b?$AA@ 1009c2d0     LexPython.obj
 0002:000032e8       ??_C@_0BH@OLPNGCKA@lexer?4python?4strings?4u?$AA@ 1009c2e8     LexPython.obj
 0002:00003300       ??_C@_0BN@BKBNFPCN@lexer?4python?4literals?4binary?$AA@ 1009c300     LexPython.obj
 0002:00003320       ??_C@_0BH@CGKAPABL@tab?4timmy?4whinge?4level?$AA@ 1009c320     LexPython.obj
 0002:00003338       ??_C@_0BD@PAMCMDCK@fold?4quotes?4python?$AA@ 1009c338     LexPython.obj
 0002:0000334c       ??_C@_0BE@OMDKLJHH@fold?4comment?4python?$AA@ 1009c34c     LexPython.obj
 0002:00003360       ??_C@_06OIODPPHE@python?$AA@ 1009c360     LexPython.obj
 0002:00003368       ??_C@_0BI@GGNHPNJK@Other?5Package?5Functions?$AA@ 1009c368     LexR.obj
 0002:00003380       ??_C@_0CA@FFOEFMKA@Base?5?1?5Default?5package?5function?$AA@ 1009c380     LexR.obj
 0002:000033a0       ??_C@_0BC@LPBBKMFI@Language?5Keywords?$AA@ 1009c3a0     LexR.obj
 0002:000033cc       ??_C@_01KDCPPGHE@r?$AA@    1009c3cc     LexR.obj
 0002:000033d8       ??_C@_05ECOJJNJF@rebol?$AA@ 1009c3d8     LexRebol.obj
 0002:000033e8       ??_C@_02FODMLBIE@or?$AA@   1009c3e8     LexRuby.obj
 0002:000033ec       ??_C@_03NJKJADM@not?$AA@   1009c3ec     LexRuby.obj
 0002:000033f0       ??_C@_06OMKCNAGG@unless?$AA@ 1009c3f0     LexRuby.obj
 0002:000033f8       ??_C@_06LNOFJDNM@return?$AA@ 1009c3f8     LexRuby.obj
 0002:00003400       ??_C@_05EHONGJAF@elsif?$AA@ 1009c400     LexRuby.obj
 0002:00003408       ??_C@_05ELPHFHOI@break?$AA@ 1009c408     LexRuby.obj
 0002:00003410       ??_C@_03BOPJPIAM@and?$AA@  1009c410     LexRuby.obj
 0002:00003414       ??_C@_05NKHOCLEE@alias?$AA@ 1009c414     LexRuby.obj
 0002:0000341c       ??_C@_05PKCPKOLM@undef?$AA@ 1009c41c     LexRuby.obj
 0002:00003424       ??_C@_05FBHFNIBD@litnu?$AA@ 1009c424     LexRuby.obj
 0002:0000342c       ??_C@_05CKFCJHNJ@elihw?$AA@ 1009c42c     LexRuby.obj
 0002:00003434       ??_C@_03FALNBIEN@?$CJ?$HN?$FN?$AA@ 1009c434     LexRuby.obj
 0002:00003438       ??_C@_03MHEOIBFL@?$FL?$HL?$CI?$AA@ 1009c438     LexRuby.obj
 0002:0000343c       ??_C@_04CPEMDLGN@?$DNend?$AA@ 1009c43c     LexRuby.obj
 0002:00003444       ??_C@_0L@LIDOMKLD@?2ntrfvaebs?$AA@ 1009c444     LexRuby.obj
 0002:00003450       ??_C@_05IJDJACGD@print?$AA@ 1009c450     LexRuby.obj
 0002:00003458       ??_C@_04DNCNJDPH@?5?7?6?$AN?$AA@ 1009c458     LexRuby.obj
 0002:00003460       ??_C@_04DDKIJBJ@?$CJ?$HN?$FN?4?$AA@ 1009c460     LexRuby.obj
 0002:00003468       ??_C@_0BA@CKJDDCBP@?$FL?$CK?$CB?$HO?$CL?9?$CK?1?$CF?$DN?$DM?$DO?$CG?$FO?$HM?$AA@ 1009c468     LexRuby.obj
 0002:00003478       ??_C@_05LFEMNBE@?$CC?8?$GA_?9?$AA@ 1009c478     LexRuby.obj
 0002:00003480       ??_C@_06BELBMAAN@qQrwWx?$AA@ 1009c480     LexRuby.obj
 0002:00003488       ??_C@_04FDIADGBC@ruby?$AA@ 1009c488     LexRuby.obj
 0002:00003490       ??_C@_08ENPMFDDL@scriptol?$AA@ 1009c490     LexScriptol.obj
 0002:0000349c       ??_C@_0BC@CPNJMLFP@Special?5selectors?$AA@ 1009c49c     LexSmalltalk.obj
 0002:000034b8       ??_C@_05MKJDPMKP@super?$AA@ 1009c4b8     LexSmalltalk.obj
 0002:000034c0       ??_C@_04PJDNGLKJ@self?$AA@ 1009c4c0     LexSmalltalk.obj
 0002:000034c8       ??_C@_09MLEKNADF@smalltalk?$AA@ 1009c4c8     LexSmalltalk.obj
 0002:000034e4       ??_C@_09EONLIBPG@?$CJ?$FN?$HN?$DL?0?8?$CC?$GA?$CD?$AA@ 1009c4e4     LexSML.obj
 0002:000034f0       ??_C@_0BF@OIPKJEOK@?$CB?$HO?$DN?$DM?$DO?$EA?$FO?$CL?9?$CK?1?$CI?$CJ?$FL?$FN?$DL?0?3?4?$CD?$AA@ 1009c4f0     LexSML.obj
 0002:00003508       ??_C@_02CIDOMIFJ@xX?$AA@   1009c508     LexSML.obj
 0002:0000350c       ??_C@_03CDINJODF@SML?$AA@  1009c50c     LexSML.obj
 0002:00003510       ??_C@_08CHMPKCOC@Constant?$AA@ 1009c510     LexSorcus.obj
 0002:0000351c       ??_C@_09HPDNJEFH@Parameter?$AA@ 1009c51c     LexSorcus.obj
 0002:00003528       ??_C@_07FFLLKOAD@Command?$AA@ 1009c528     LexSorcus.obj
 0002:00003540       ??_C@_07FNPBFPCI@sorcins?$AA@ 1009c540     LexSorcus.obj
 0002:00003548       ??_C@_0CG@LOCGBAFB@User?5defined?5keywords?5and?5identi@ 1009c548     LexSpecman.obj
 0002:00003570       ??_C@_0CC@HHAACMEP@Sequence?5keywords?5and?5identifier@ 1009c570     LexSpecman.obj
 0002:000035ac       ??_C@_03DAOJJHFA@?9?9?$CB?$AA@ 1009c5ac     LexSpecman.obj
 0002:000035b0       ??_C@_07KJOGDNFK@specman?$AA@ 1009c5b0     LexSpecman.obj
 0002:000035c8       ??_C@_05COGMJDOO@spice?$AA@ 1009c5c8     LexSpice.obj
 0002:000035d0       ??_C@_0BA@OJPLKFMI@User?5Keywords?54?$AA@ 1009c5d0     LexSQL.obj
 0002:000035e0       ??_C@_08PBPCFLBJ@SQL?$CKPlus?$AA@ 1009c5e0     LexSQL.obj
 0002:000035ec       ??_C@_05MGJNJIPA@PLDoc?$AA@ 1009c5ec     LexSQL.obj
 0002:00003618       ??_C@_03JEELCJ@pro?$AA@    1009c618     LexSQL.obj
 0002:0000361c       ??_C@_0BP@NAECIDKH@lexer?4sql?4backticks?4identifier?$AA@ 1009c61c     LexSQL.obj
 0002:0000363c       ??_C@_0BG@PGLAJBNK@sql?4backslash?4escapes?$AA@ 1009c63c     LexSQL.obj
 0002:00003654       ??_C@_06OGCODMJI@exists?$AA@ 1009c654     LexSQL.obj
 0002:0000365c       ??_C@_0BA@FKBNLEAE@fold?4sql?4exists?$AA@ 1009c65c     LexSQL.obj
 0002:0000366c       ??_C@_03DLEKAJFN@sql?$AA@  1009c66c     LexSQL.obj
 0002:00003670       ??_C@_06IIEFNIBO@Labels?$AA@ 1009c670     LexTACL.obj
 0002:00003678       ??_C@_08GABNKLKK@Builtins?$AA@ 1009c678     LexTACL.obj
 0002:00003694       ??_C@_08GPMGFICF@?$DPsection?$AA@ 1009c694     LexTACL.obj
 0002:000036a0       ??_C@_04PJPGGNCB@TACL?$AA@ 1009c6a0     LexTACL.obj
 0002:000036a8       ??_C@_0P@CPIGMAE@TADS3?5Keywords?$AA@ 1009c6a8     LexTADS3.obj
 0002:000036cc       ??_C@_02EDKKPMHH@is?$AA@   1009c6cc     LexTADS3.obj
 0002:000036d0       ??_C@_03KHICJKCI@?4?4?4?$AA@ 1009c6d0     LexTADS3.obj
 0002:000036d4       ??_C@_05GMEEJMBL@tads3?$AA@ 1009c6d4     LexTADS3.obj
 0002:000036e8       ??_C@_03LHEAFPOI@TAL?$AA@  1009c6e8     LexTAL.obj
 0002:000036ec       ??_C@_0M@PLOOBOO@expanduser1?$AA@ 1009c6ec     LexTCL.obj
 0002:000036f8       ??_C@_0L@HHDMLLJF@tkCommands?$AA@ 1009c6f8     LexTCL.obj
 0002:00003704       ??_C@_0O@CLINBMII@iTCL?5Keywords?$AA@ 1009c704     LexTCL.obj
 0002:00003714       ??_C@_0M@DLOAJPFO@TK?5Keywords?$AA@ 1009c714     LexTCL.obj
 0002:00003720       ??_C@_0N@NHMJFDKE@TCL?5Keywords?$AA@ 1009c720     LexTCL.obj
 0002:00003754       ??_C@_03LJDPEGPK@tcl?$AA@  1009c754     LexTCL.obj
 0002:00003758       ??_C@_0BB@JIGBBICH@ConTeXt?5Romanian?$AA@ 1009c758     LexTeX.obj
 0002:0000376c       ??_C@_0BA@MGDEEDFA@ConTeXt?5Italian?$AA@ 1009c76c     LexTeX.obj
 0002:0000377c       ??_C@_0O@PLBLNDCO@ConTeXt?5Czech?$AA@ 1009c77c     LexTeX.obj
 0002:0000378c       ??_C@_0P@BMFCMDEG@ConTeXt?5German?$AA@ 1009c78c     LexTeX.obj
 0002:0000379c       ??_C@_0BA@MNJEKGBK@ConTeXt?5English?$AA@ 1009c79c     LexTeX.obj
 0002:000037ac       ??_C@_0O@IMOLEELN@ConTeXt?5Dutch?$AA@ 1009c7ac     LexTeX.obj
 0002:000037bc       ??_C@_0BJ@PCEPNNII@TeX?0?5eTeX?0?5pdfTeX?0?5Omega?$AA@ 1009c7bc     LexTeX.obj
 0002:000037f8       ??_C@_0BA@FEILJICG@interface?$DNlatex?$AA@ 1009c7f8     LexTeX.obj
 0002:00003808       ??_C@_0N@EMEIFDEF@interface?$DNro?$AA@ 1009c808     LexTeX.obj
 0002:00003818       ??_C@_0N@PFANNEEO@interface?$DNit?$AA@ 1009c818     LexTeX.obj
 0002:00003828       ??_C@_0N@GGBJHMBG@interface?$DNcz?$AA@ 1009c828     LexTeX.obj
 0002:00003838       ??_C@_0N@KOAMGEAN@interface?$DNde?$AA@ 1009c838     LexTeX.obj
 0002:00003848       ??_C@_0N@EMDKNHPB@interface?$DNen?$AA@ 1009c848     LexTeX.obj
 0002:00003858       ??_C@_0N@HCFJFKJC@interface?$DNnl?$AA@ 1009c858     LexTeX.obj
 0002:00003868       ??_C@_0O@MJOANELI@interface?$DNtex?$AA@ 1009c868     LexTeX.obj
 0002:00003878       ??_C@_0O@IPFIJPMP@interface?$DNall?$AA@ 1009c878     LexTeX.obj
 0002:00003888       ??_C@_05KPFIGMOA@newif?$AA@ 1009c888     LexTeX.obj
 0002:00003890       ??_C@_0BM@KDDDFNGN@lexer?4tex?4interface?4default?$AA@ 1009c890     LexTeX.obj
 0002:000038ac       ??_C@_0BC@MPCGNFDE@lexer?4tex?4auto?4if?$AA@ 1009c8ac     LexTeX.obj
 0002:000038c0       ??_C@_0BH@GFIJPLBM@lexer?4tex?4use?4keywords?$AA@ 1009c8c0     LexTeX.obj
 0002:000038d8       ??_C@_0BK@OBNBEMAN@lexer?4tex?4comment?4process?$AA@ 1009c8d8     LexTeX.obj
 0002:000038f4       ??_C@_04MOIHHPNJ@Stop?$AA@ 1009c8f4     LexTeX.obj
 0002:000038fc       ??_C@_04PEGFANN@stop?$AA@  1009c8fc     LexTeX.obj
 0002:00003904       ??_C@_07LFLAEFDO@protect?$AA@ 1009c904     LexTeX.obj
 0002:0000390c       ??_C@_09JOPAJCIH@maketitle?$AA@ 1009c90c     LexTeX.obj
 0002:00003918       ??_C@_08JFJMDPCN@FoldStop?$AA@ 1009c918     LexTeX.obj
 0002:00003924       ??_C@_0O@KODJEPFA@documentclass?$AA@ 1009c924     LexTeX.obj
 0002:00003934       ??_C@_05FHMJPCKA@Start?$AA@ 1009c934     LexTeX.obj
 0002:0000393c       ??_C@_05PHLGJONK@title?$AA@ 1009c93c     LexTeX.obj
 0002:00003944       ??_C@_09LHNJOGML@unprotect?$AA@ 1009c944     LexTeX.obj
 0002:00003950       ??_C@_08IMFJLGFD@abstract?$AA@ 1009c950     LexTeX.obj
 0002:0000395c       ??_C@_09ONECNPOF@FoldStart?$AA@ 1009c95c     LexTeX.obj
 0002:00003968       ??_C@_05IODDPPOI@slide?$AA@ 1009c968     LexTeX.obj
 0002:00003970       ??_C@_08OPBNIBHL@overlays?$AA@ 1009c970     LexTeX.obj
 0002:0000397c       ??_C@_08LDGCFDHG@foilhead?$AA@ 1009c97c     LexTeX.obj
 0002:00003988       ??_C@_05MIJNFGED@frame?$AA@ 1009c988     LexTeX.obj
 0002:00003990       ??_C@_06OOIMCDNP@framed?$AA@ 1009c990     LexTeX.obj
 0002:00003998       ??_C@_04DJIAAGFC@xdef?$AA@ 1009c998     LexTeX.obj
 0002:000039a0       ??_C@_04KBPAFFGB@edef?$AA@ 1009c9a0     LexTeX.obj
 0002:000039a8       ??_C@_04NLDAAGAB@gdef?$AA@ 1009c9a8     LexTeX.obj
 0002:000039b0       ??_C@_0L@JGEGPLOH@subsubject?$AA@ 1009c9b0     LexTeX.obj
 0002:000039bc       ??_C@_07JNNGEGGO@subject?$AA@ 1009c9bc     LexTeX.obj
 0002:000039c4       ??_C@_05KHAFJJEA@topic?$AA@ 1009c9c4     LexTeX.obj
 0002:000039cc       ??_C@_05KAKJJMHG@Topic?$AA@ 1009c9cc     LexTeX.obj
 0002:000039d4       ??_C@_08HIEJALMN@appendix?$AA@ 1009c9d4     LexTeX.obj
 0002:000039e0       ??_C@_09OFMBCCKG@CJKfamily?$AA@ 1009c9e0     LexTeX.obj
 0002:000039ec       ??_C@_0O@FJHFECNN@subsubsection?$AA@ 1009c9ec     LexTeX.obj
 0002:000039fc       ??_C@_0L@BGPFCBGI@subsection?$AA@ 1009c9fc     LexTeX.obj
 0002:00003a08       ??_C@_07PBNCJMAI@chapter?$AA@ 1009ca08     LexTeX.obj
 0002:00003a10       ??_C@_04FPLDHIIH@part?$AA@ 1009ca10     LexTeX.obj
 0002:00003a18       ??_C@_03JDBMONBN@tex?$AA@  1009ca18     LexTeX.obj
 0002:00003a30       ??_C@_02HAJDLCK@vb?$AA@    1009ca30     LexVB.obj
 0002:00003a34       ??_C@_08IBPPJOAO@vbscript?$AA@ 1009ca34     LexVB.obj
 0002:00003a40       ??_C@_0CD@CNHCALCO@User?5defined?5tasks?5and?5identifie@ 1009ca40     LexVerilog.obj
 0002:00003a64       ??_C@_0N@PNLKBFDA@System?5Tasks?$AA@ 1009ca64     LexVerilog.obj
 0002:00003a8c       ??_C@_0N@OCJBFJPG@endprimitive?$AA@ 1009ca8c     LexVerilog.obj
 0002:00003a9c       ??_C@_0L@MHMPIIIK@endspecify?$AA@ 1009ca9c     LexVerilog.obj
 0002:00003aa8       ??_C@_08EJBDHGMB@endtable?$AA@ 1009caa8     LexVerilog.obj
 0002:00003ab4       ??_C@_0M@IGDGKMPI@endgenerate?$AA@ 1009cab4     LexVerilog.obj
 0002:00003ac0       ??_C@_07BFEMEGLB@endtask?$AA@ 1009cac0     LexVerilog.obj
 0002:00003ac8       ??_C@_04DFGCDGNN@join?$AA@ 1009cac8     LexVerilog.obj
 0002:00003ad0       ??_C@_09DMNNEEOD@primitive?$AA@ 1009cad0     LexVerilog.obj
 0002:00003adc       ??_C@_07CGEIDIBO@specify?$AA@ 1009cadc     LexVerilog.obj
 0002:00003ae4       ??_C@_08HBLFHMBF@generate?$AA@ 1009cae4     LexVerilog.obj
 0002:00003af0       ??_C@_04GGKLLKOO@task?$AA@ 1009caf0     LexVerilog.obj
 0002:00003af8       ??_C@_05LCLENNFI@table?$AA@ 1009caf8     LexVerilog.obj
 0002:00003b00       ??_C@_04JNJGGDAI@fork?$AA@ 1009cb00     LexVerilog.obj
 0002:00003b08       ??_C@_05IGEJOKJA@casez?$AA@ 1009cb08     LexVerilog.obj
 0002:00003b10       ??_C@_05LEHPIIBC@casex?$AA@ 1009cb10     LexVerilog.obj
 0002:00003b18       ??_C@_0BD@LGDGFEO@fold?4verilog?4flags?$AA@ 1009cb18     LexVerilog.obj
 0002:00003b2c       ??_C@_07ODGDFLPD@verilog?$AA@ 1009cb2c     LexVerilog.obj
 0002:00003b34       ??_C@_0L@DHMAJDHJ@User?5Words?$AA@ 1009cb34     LexVHDL.obj
 0002:00003b40       ??_C@_0P@IPIAEPIH@Standard?5Types?$AA@ 1009cb40     LexVHDL.obj
 0002:00003b50       ??_C@_0BC@BGHCGJHH@Standard?5Packages?$AA@ 1009cb50     LexVHDL.obj
 0002:00003b64       ??_C@_0BD@COHLPIKJ@Standard?5Functions?$AA@ 1009cb64     LexVHDL.obj
 0002:00003b98       ??_C@_07DEBHDLBL@process?$AA@ 1009cb98     LexVHDL.obj
 0002:00003ba0       ??_C@_06GOJKNBFM@entity?$AA@ 1009cba0     LexVHDL.obj
 0002:00003ba8       ??_C@_09NILLCKIE@component?$AA@ 1009cba8     LexVHDL.obj
 0002:00003bb4       ??_C@_0N@HAOBJCCO@architecture?$AA@ 1009cbb4     LexVHDL.obj
 0002:00003bc4       ??_C@_0BD@JGMPJOEH@fold?4at?4Parenthese?$AA@ 1009cbc4     LexVHDL.obj
 0002:00003bd8       ??_C@_0O@BKFCNILG@fold?4at?4Begin?$AA@ 1009cbd8     LexVHDL.obj
 0002:00003be8       ??_C@_0HK@NDENMDMK@architecture?5begin?5case?5componen@ 1009cbe8     LexVHDL.obj
 0002:00003c64       ??_C@_04DHELIFDG@vhdl?$AA@ 1009cc64     LexVHDL.obj
 0002:00003c74       ??_C@_0BC@MKEHOKCB@fold?4comment?4yaml?$AA@ 1009cc74     LexYAML.obj
 0002:00003c88       ??_C@_04MHMCGGOC@yaml?$AA@ 1009cc88     LexYAML.obj
 0002:00003cac       ??_7Surface@@6B@           1009ccac     PlatWin.obj
 0002:00003d40       ??_7DynamicLibrary@@6B@    1009cd40     PlatWin.obj
 0002:00003d50       ??_7Font@@6B@              1009cd50     PlatWin.obj
 0002:00003d64       ??_7SurfaceImpl@@6B@       1009cd64     PlatWin.obj
 0002:00003df4       ??_C@_11LOCGONAA@?$AA?$AA@ 1009cdf4     PlatWin.obj
 0002:00003df8       ??_C@_1BC@DAFDMBCK@?$AAS?$AAc?$AAi?$AAL?$AAe?$AAx?$AAe?$AAr?$AA?$AA@ 1009cdf8     PlatWin.obj
 0002:00003e0c       ??_C@_1BE@FFNKBBML@?$AAS?$AAc?$AAi?$AAn?$AAt?$AAi?$AAl?$AAl?$AAa?$AA?$AA@ 1009ce0c     PlatWin.obj
 0002:00003e24       ??_7ListBox@@6B@           1009ce24     PlatWin.obj
 0002:00003e70       __real@408f400000000000    1009ce70     PlatWin.obj
 0002:00003e78       ??_C@_07EHHHOIHI@Verdana?$AA@ 1009ce78     PlatWin.obj
 0002:00003e80       ??_C@_0BC@GMCECFHL@Assertion?5failure?$AA@ 1009ce80     PlatWin.obj
 0002:00003e94       ??_C@_0BP@KIAAKGCH@Assertion?5?$FL?$CFs?$FN?5failed?5at?5?$CFs?5?$CFd?$AA@ 1009ce94     PlatWin.obj
 0002:00003eb8       ??_7FontCached@@6B@        1009ceb8     PlatWin.obj
 0002:00003ecc       ??_7ListBoxX@@6B@          1009cecc     PlatWin.obj
 0002:00003f18       ??_C@_1BA@MGDNHOFA@?$AAl?$AAi?$AAs?$AAt?$AAb?$AAo?$AAx?$AA?$AA@ 1009cf18     PlatWin.obj
 0002:00003f2c       ??_7DynamicLibraryImpl@@6B@ 1009cf2c     PlatWin.obj
 0002:00003f38       ??_C@_0L@MHHLCNNL@AlphaBlend?$AA@ 1009cf38     PlatWin.obj
 0002:00003f44       ??_C@_1BA@DBHOKDEF@?$AAM?$AAs?$AAi?$AAm?$AAg?$AA3?$AA2?$AA?$AA@ 1009cf44     PlatWin.obj
 0002:00003f58       ??_7LineLayout@@6B@        1009cf58     PositionCache.obj
 0002:00003f60       ??_7LineLayoutCache@@6B@   1009cf60     PositionCache.obj
 0002:00003f68       ??_7PropertyGet@@6B@       1009cf68     PropSet.obj
 0002:00003f74       ??_C@_01PKGAHCOL@?$CJ?$AA@ 1009cf74     PropSet.obj
 0002:00003f78       ??_C@_02GCKHGGHL@$?$CI?$AA@ 1009cf78     PropSet.obj
 0002:00003f7c       ??_C@_01NEMOKFLO@?$DN?$AA@ 1009cf7c     PropSet.obj
 0002:00003f80       ??_C@_0BE@JONHPENG@map?1set?$DMT?$DO?5too?5long?$AA@ 1009cf80     PropSet.obj
 0002:00003f94       ??_C@_0BM@PAPJHAGI@invalid?5map?1set?$DMT?$DO?5iterator?$AA@ 1009cf94     PropSet.obj
 0002:00003fb4       ??_7PropSetSimple@@6B@     1009cfb4     PropSet.obj
 0002:00003fc0       ??_C@_01HIHLOKLC@1?$AA@    1009cfc0     PropSet.obj
 0002:00003fcc       ??_7DocumentAccessor@@6B@  1009cfcc     ScintillaBase.obj
 0002:0000402c       ??_7ScintillaBase@@6B@     1009d02c     ScintillaBase.obj
 0002:000040f0       ??_C@_0L@CALHPJHB@Select?5All?$AA@ 1009d0f0     ScintillaBase.obj
 0002:000040fc       ??_C@_06JBKGCNBB@Delete?$AA@ 1009d0fc     ScintillaBase.obj
 0002:00004104       ??_C@_05NEBJFIEK@Paste?$AA@ 1009d104     ScintillaBase.obj
 0002:0000410c       ??_C@_04OPMHGHMB@Copy?$AA@ 1009d10c     ScintillaBase.obj
 0002:00004114       ??_C@_03EOHDMBHJ@Cut?$AA@  1009d114     ScintillaBase.obj
 0002:00004118       ??_C@_04NKENIHOM@Redo?$AA@ 1009d118     ScintillaBase.obj
 0002:00004120       ??_C@_04LPGMNMPN@Undo?$AA@ 1009d120     ScintillaBase.obj
 0002:00004154       ??_7ScintillaWin@@6B@      1009d154     ScintillaWin.obj
 0002:00004224       ??_C@_0BB@KDKMJFOO@_TrackMouseEvent?$AA@ 1009d224     ScintillaWin.obj
 0002:00004238       ??_C@_1BK@JKBHGHPP@?$AAc?$AAo?$AAm?$AAc?$AAt?$AAl?$AA3?$AA2?$AA?4?$AAd?$AAl?$AAl?$AA?$AA@ 1009d238     ScintillaWin.obj
 0002:00004254       ??_C@_0BA@KGNOAFK@TrackMouseEvent?$AA@ 1009d254     ScintillaWin.obj
 0002:00004264       ??_C@_1BG@OILDLIOJ@?$AAu?$AAs?$AAe?$AAr?$AA3?$AA2?$AA?4?$AAd?$AAl?$AAl?$AA?$AA@ 1009d264     ScintillaWin.obj
 0002:0000427c       ??_C@_1CA@MALFBCNB@?$AAM?$AAS?$AAD?$AAE?$AAV?$AAL?$AAi?$AAn?$AAe?$AAS?$AAe?$AAl?$AAe?$AAc?$AAt?$AA?$AA@ 1009d27c     ScintillaWin.obj
 0002:0000429c       ??_C@_1CE@JGKLFKJJ@?$AAM?$AAS?$AAD?$AAE?$AAV?$AAC?$AAo?$AAl?$AAu?$AAm?$AAn?$AAS?$AAe?$AAl?$AAe?$AAc?$AAt?$AA?$AA@ 1009d29c     ScintillaWin.obj
 0002:000042c0       ??_C@_1BC@KIHEBMCB@?$AAA?$AAC?$AAa?$AAl?$AAl?$AAT?$AAi?$AAp?$AA?$AA@ 1009d2c0     ScintillaWin.obj
 0002:000042d8       ??_7CaseFolderUTF8@@6B@    1009d2d8     ScintillaWin.obj
 0002:000042e0       ??_C@_0BO@FGMLKNAD@Bad?5colour?5positions?5?$CFd?5?9?5?$CFd?6?$AA@ 1009d2e0     WindowAccessor.obj
 0002:00004300       ??_C@_09HHKJMCAF@?1?$CK?5XPM?5?$CK?1?$AA@ 1009d300     XPM.obj
 0002:0000430c       _IID_IEnumFORMATETC        1009d30c     uuid:objidl_i.obj
 0002:0000431c       _IID_IDataObject           1009d31c     uuid:objidl_i.obj
 0002:0000432c       _IID_IDropSource           1009d32c     uuid:oleidl_i.obj
 0002:0000433c       _IID_IDropTarget           1009d33c     uuid:oleidl_i.obj
 0002:0000434c       _IID_IUnknown              1009d34c     uuid:unknwn_i.obj
 0002:00004360       ??_7type_info@@6B@         1009d360     LIBCMT:typinfo.obj
 0002:00004364       ??_C@_0P@GHFPNOJB@bad?5allocation?$AA@ 1009d364     LIBCMT:new.obj
 0002:00004378       ??_7exception@std@@6B@     1009d378     LIBCMT:stdexcpt.obj
 0002:00004380       ??_C@_0BC@EOODALEL@Unknown?5exception?$AA@ 1009d380     LIBCMT:stdexcpt.obj
 0002:000043b4       __FPinit                   1009d3b4     LIBCMT:_fpinit_.obj
 0002:000043b8       __pDefaultRawDllMain       1009d3b8     LIBCMT:dllcrt0.obj
 0002:000043b8       __pRawDllMain              1009d3b8     LIBCMT:dllcrt0.obj
 0002:000043c4       __pDestructExceptionObject 1009d3c4     LIBCMT:frame.obj
 0002:000043cc       ??_7bad_exception@std@@6B@ 1009d3cc     LIBCMT:frame.obj
 0002:000043d4       ??_C@_0O@DPKOEFFH@bad?5exception?$AA@ 1009d3d4     LIBCMT:frame.obj
 0002:000043e4       ??_C@_1BK@DBDEIDLH@?$AAK?$AAE?$AAR?$AAN?$AAE?$AAL?$AA3?$AA2?$AA?4?$AAD?$AAL?$AAL?$AA?$AA@ 1009d3e4     LIBCMT:tidtable.obj
 0002:00004400       ??_C@_07PEJMOBNF@FlsFree?$AA@ 1009d400     LIBCMT:tidtable.obj
 0002:00004408       ??_C@_0M@JCPCPOEF@FlsSetValue?$AA@ 1009d408     LIBCMT:tidtable.obj
 0002:00004414       ??_C@_0M@GDNOONDI@FlsGetValue?$AA@ 1009d414     LIBCMT:tidtable.obj
 0002:00004420       ??_C@_08KNHFBNJ@FlsAlloc?$AA@ 1009d420     LIBCMT:tidtable.obj
 0002:0000442c       ??_C@_1BC@GDGBMEMK@?$AAH?$AAH?$AA?3?$AAm?$AAm?$AA?3?$AAs?$AAs?$AA?$AA@ 1009d42c     LIBCMT:nlsdata2.obj
 0002:00004440       ??_C@_1CI@KNAKOEBC@?$AAd?$AAd?$AAd?$AAd?$AA?0?$AA?5?$AAM?$AAM?$AAM?$AAM?$AA?5?$AAd?$AAd?$AA?0?$AA?5?$AAy?$AAy?$AAy?$AAy?$AA?$AA@ 1009d440     LIBCMT:nlsdata2.obj
 0002:00004468       ??_C@_1BC@IEBCMHCM@?$AAM?$AAM?$AA?1?$AAd?$AAd?$AA?1?$AAy?$AAy?$AA?$AA@ 1009d468     LIBCMT:nlsdata2.obj
 0002:0000447c       ??_C@_15CLMNNGEL@?$AAP?$AAM?$AA?$AA@ 1009d47c     LIBCMT:nlsdata2.obj
 0002:00004484       ??_C@_15ODEHAHHF@?$AAA?$AAM?$AA?$AA@ 1009d484     LIBCMT:nlsdata2.obj
 0002:0000448c       ??_C@_1BC@FEMKIFH@?$AAD?$AAe?$AAc?$AAe?$AAm?$AAb?$AAe?$AAr?$AA?$AA@ 1009d48c     LIBCMT:nlsdata2.obj
 0002:000044a0       ??_C@_1BC@BGLIFPF@?$AAN?$AAo?$AAv?$AAe?$AAm?$AAb?$AAe?$AAr?$AA?$AA@ 1009d4a0     LIBCMT:nlsdata2.obj
 0002:000044b4       ??_C@_1BA@EPANDLNG@?$AAO?$AAc?$AAt?$AAo?$AAb?$AAe?$AAr?$AA?$AA@ 1009d4b4     LIBCMT:nlsdata2.obj
 0002:000044c4       ??_C@_1BE@DKAAMBJL@?$AAS?$AAe?$AAp?$AAt?$AAe?$AAm?$AAb?$AAe?$AAr?$AA?$AA@ 1009d4c4     LIBCMT:nlsdata2.obj
 0002:000044d8       ??_C@_1O@PAHLKOAC@?$AAA?$AAu?$AAg?$AAu?$AAs?$AAt?$AA?$AA@ 1009d4d8     LIBCMT:nlsdata2.obj
 0002:000044e8       ??_C@_19BIFMLPCD@?$AAJ?$AAu?$AAl?$AAy?$AA?$AA@ 1009d4e8     LIBCMT:nlsdata2.obj
 0002:000044f4       ??_C@_19EPFLPGAP@?$AAJ?$AAu?$AAn?$AAe?$AA?$AA@ 1009d4f4     LIBCMT:nlsdata2.obj
 0002:00004500       ??_C@_1M@GJNLMHFD@?$AAA?$AAp?$AAr?$AAi?$AAl?$AA?$AA@ 1009d500     LIBCMT:nlsdata2.obj
 0002:0000450c       ??_C@_1M@IKEENEDF@?$AAM?$AAa?$AAr?$AAc?$AAh?$AA?$AA@ 1009d50c     LIBCMT:nlsdata2.obj
 0002:00004518       ??_C@_1BC@JGDDFFAM@?$AAF?$AAe?$AAb?$AAr?$AAu?$AAa?$AAr?$AAy?$AA?$AA@ 1009d518     LIBCMT:nlsdata2.obj
 0002:0000452c       ??_C@_1BA@EFMEIEBA@?$AAJ?$AAa?$AAn?$AAu?$AAa?$AAr?$AAy?$AA?$AA@ 1009d52c     LIBCMT:nlsdata2.obj
 0002:0000453c       ??_C@_17EGKACKIF@?$AAD?$AAe?$AAc?$AA?$AA@ 1009d53c     LIBCMT:nlsdata2.obj
 0002:00004544       ??_C@_17BBDMLCIG@?$AAN?$AAo?$AAv?$AA?$AA@ 1009d544     LIBCMT:nlsdata2.obj
 0002:0000454c       ??_C@_17FNLKOI@?$AAO?$AAc?$AAt?$AA?$AA@ 1009d54c     LIBCMT:nlsdata2.obj
 0002:00004554       ??_C@_17HCHCOKMG@?$AAS?$AAe?$AAp?$AA?$AA@ 1009d554     LIBCMT:nlsdata2.obj
 0002:0000455c       ??_C@_17ICPELBCN@?$AAA?$AAu?$AAg?$AA?$AA@ 1009d55c     LIBCMT:nlsdata2.obj
 0002:00004564       ??_C@_17IJPCKHK@?$AAJ?$AAu?$AAl?$AA?$AA@ 1009d564     LIBCMT:nlsdata2.obj
 0002:0000456c       ??_C@_17KCJGOCPB@?$AAJ?$AAu?$AAn?$AA?$AA@ 1009d56c     LIBCMT:nlsdata2.obj
 0002:00004574       ??_C@_17PNNKMEED@?$AAM?$AAa?$AAy?$AA?$AA@ 1009d574     LIBCMT:nlsdata2.obj
 0002:0000457c       ??_C@_17LFPOIHDD@?$AAA?$AAp?$AAr?$AA?$AA@ 1009d57c     LIBCMT:nlsdata2.obj
 0002:00004584       ??_C@_17CKNLEDEC@?$AAM?$AAa?$AAr?$AA?$AA@ 1009d584     LIBCMT:nlsdata2.obj
 0002:0000458c       ??_C@_17LMDJEKJN@?$AAF?$AAe?$AAb?$AA?$AA@ 1009d58c     LIBCMT:nlsdata2.obj
 0002:00004594       ??_C@_17DKNBKCHM@?$AAJ?$AAa?$AAn?$AA?$AA@ 1009d594     LIBCMT:nlsdata2.obj
 0002:0000459c       ??_C@_1BC@ENMNNPAJ@?$AAS?$AAa?$AAt?$AAu?$AAr?$AAd?$AAa?$AAy?$AA?$AA@ 1009d59c     LIBCMT:nlsdata2.obj
 0002:000045b0       ??_C@_1O@PDICJHAG@?$AAF?$AAr?$AAi?$AAd?$AAa?$AAy?$AA?$AA@ 1009d5b0     LIBCMT:nlsdata2.obj
 0002:000045c0       ??_C@_1BC@HHMNLIHE@?$AAT?$AAh?$AAu?$AAr?$AAs?$AAd?$AAa?$AAy?$AA?$AA@ 1009d5c0     LIBCMT:nlsdata2.obj
 0002:000045d4       ??_C@_1BE@EBOGMDOH@?$AAW?$AAe?$AAd?$AAn?$AAe?$AAs?$AAd?$AAa?$AAy?$AA?$AA@ 1009d5d4     LIBCMT:nlsdata2.obj
 0002:000045e8       ??_C@_1BA@ENFBFFEK@?$AAT?$AAu?$AAe?$AAs?$AAd?$AAa?$AAy?$AA?$AA@ 1009d5e8     LIBCMT:nlsdata2.obj
 0002:000045f8       ??_C@_1O@MMNBFLIA@?$AAM?$AAo?$AAn?$AAd?$AAa?$AAy?$AA?$AA@ 1009d5f8     LIBCMT:nlsdata2.obj
 0002:00004608       ??_C@_1O@IHNHDHPB@?$AAS?$AAu?$AAn?$AAd?$AAa?$AAy?$AA?$AA@ 1009d608     LIBCMT:nlsdata2.obj
 0002:00004618       ??_C@_17GGIBDPIH@?$AAS?$AAa?$AAt?$AA?$AA@ 1009d618     LIBCMT:nlsdata2.obj
 0002:00004620       ??_C@_17HFOLPPLP@?$AAF?$AAr?$AAi?$AA?$AA@ 1009d620     LIBCMT:nlsdata2.obj
 0002:00004628       ??_C@_17PDPHAADD@?$AAT?$AAh?$AAu?$AA?$AA@ 1009d628     LIBCMT:nlsdata2.obj
 0002:00004630       ??_C@_17CJEDCEPE@?$AAW?$AAe?$AAd?$AA?$AA@ 1009d630     LIBCMT:nlsdata2.obj
 0002:00004638       ??_C@_17BMKGEGOJ@?$AAT?$AAu?$AAe?$AA?$AA@ 1009d638     LIBCMT:nlsdata2.obj
 0002:00004640       ??_C@_17KBOMKBF@?$AAM?$AAo?$AAn?$AA?$AA@ 1009d640     LIBCMT:nlsdata2.obj
 0002:00004648       ??_C@_17MBGCMIPB@?$AAS?$AAu?$AAn?$AA?$AA@ 1009d648     LIBCMT:nlsdata2.obj
 0002:00004650       ??_C@_08JCCMCCIL@HH?3mm?3ss?$AA@ 1009d650     LIBCMT:nlsdata2.obj
 0002:0000465c       ??_C@_0BE@CKGJFCPC@dddd?0?5MMMM?5dd?0?5yyyy?$AA@ 1009d65c     LIBCMT:nlsdata2.obj
 0002:00004670       ??_C@_08BPBNCDIB@MM?1dd?1yy?$AA@ 1009d670     LIBCMT:nlsdata2.obj
 0002:0000467c       ??_C@_02CJNFDJBF@PM?$AA@   1009d67c     LIBCMT:nlsdata2.obj
 0002:00004680       ??_C@_02DEDBPAFC@AM?$AA@   1009d680     LIBCMT:nlsdata2.obj
 0002:00004684       ??_C@_08EDHMEBNP@December?$AA@ 1009d684     LIBCMT:nlsdata2.obj
 0002:00004690       ??_C@_08HCHEGEOA@November?$AA@ 1009d690     LIBCMT:nlsdata2.obj
 0002:0000469c       ??_C@_07JJNFCEND@October?$AA@ 1009d69c     LIBCMT:nlsdata2.obj
 0002:000046a4       ??_C@_09BHHEALKD@September?$AA@ 1009d6a4     LIBCMT:nlsdata2.obj
 0002:000046b0       ??_C@_06LBBHFDDG@August?$AA@ 1009d6b0     LIBCMT:nlsdata2.obj
 0002:000046b8       ??_C@_04MIEPOIFP@July?$AA@ 1009d6b8     LIBCMT:nlsdata2.obj
 0002:000046c0       ??_C@_04CNLMGBGM@June?$AA@ 1009d6c0     LIBCMT:nlsdata2.obj
 0002:000046c8       ??_C@_05DMJDNLEJ@April?$AA@ 1009d6c8     LIBCMT:nlsdata2.obj
 0002:000046d0       ??_C@_05HPCKOFNC@March?$AA@ 1009d6d0     LIBCMT:nlsdata2.obj
 0002:000046d8       ??_C@_08GNJGEPFN@February?$AA@ 1009d6d8     LIBCMT:nlsdata2.obj
 0002:000046e4       ??_C@_07CGJPFGJA@January?$AA@ 1009d6e4     LIBCMT:nlsdata2.obj
 0002:000046ec       ??_C@_03MKABNOCG@Dec?$AA@  1009d6ec     LIBCMT:nlsdata2.obj
 0002:000046f0       ??_C@_03JPJOFNIA@Nov?$AA@  1009d6f0     LIBCMT:nlsdata2.obj
 0002:000046f4       ??_C@_03BMAOKBAD@Oct?$AA@  1009d6f4     LIBCMT:nlsdata2.obj
 0002:000046f8       ??_C@_03GGCAPAJC@Sep?$AA@  1009d6f8     LIBCMT:nlsdata2.obj
 0002:000046fc       ??_C@_03IFJFEIGA@Aug?$AA@  1009d6fc     LIBCMT:nlsdata2.obj
 0002:00004700       ??_C@_03LBGABGKK@Jul?$AA@  1009d700     LIBCMT:nlsdata2.obj
 0002:00004704       ??_C@_03IDFGHECI@Jun?$AA@  1009d704     LIBCMT:nlsdata2.obj
 0002:00004708       ??_C@_03CNMDKL@May?$AA@    1009d708     LIBCMT:nlsdata2.obj
 0002:0000470c       ??_C@_03LEOLGMJP@Apr?$AA@  1009d70c     LIBCMT:nlsdata2.obj
 0002:00004710       ??_C@_03ODNJBKGA@Mar?$AA@  1009d710     LIBCMT:nlsdata2.obj
 0002:00004714       ??_C@_03HJBDCHOM@Feb?$AA@  1009d714     LIBCMT:nlsdata2.obj
 0002:00004718       ??_C@_03JIHJHPIE@Jan?$AA@  1009d718     LIBCMT:nlsdata2.obj
 0002:0000471c       ??_C@_08INBOOONO@Saturday?$AA@ 1009d71c     LIBCMT:nlsdata2.obj
 0002:00004728       ??_C@_06JECMNKMI@Friday?$AA@ 1009d728     LIBCMT:nlsdata2.obj
 0002:00004730       ??_C@_08HACCIKIA@Thursday?$AA@ 1009d730     LIBCMT:nlsdata2.obj
 0002:0000473c       ??_C@_09DLIGFAKA@Wednesday?$AA@ 1009d73c     LIBCMT:nlsdata2.obj
 0002:00004748       ??_C@_07BAAGCFCM@Tuesday?$AA@ 1009d748     LIBCMT:nlsdata2.obj
 0002:00004750       ??_C@_06JLEDEDGH@Monday?$AA@ 1009d750     LIBCMT:nlsdata2.obj
 0002:00004758       ??_C@_06OOPIFAJ@Sunday?$AA@ 1009d758     LIBCMT:nlsdata2.obj
 0002:00004760       ??_C@_03FEFJNEK@Sat?$AA@   1009d760     LIBCMT:nlsdata2.obj
 0002:00004764       ??_C@_03IDIOELNC@Fri?$AA@  1009d764     LIBCMT:nlsdata2.obj
 0002:00004768       ??_C@_03IOFIKPDN@Thu?$AA@  1009d768     LIBCMT:nlsdata2.obj
 0002:0000476c       ??_C@_03MHOMLAJA@Wed?$AA@  1009d76c     LIBCMT:nlsdata2.obj
 0002:00004770       ??_C@_03NAGEINEP@Tue?$AA@  1009d770     LIBCMT:nlsdata2.obj
 0002:00004774       ??_C@_03PDAGKDH@Mon?$AA@   1009d774     LIBCMT:nlsdata2.obj
 0002:00004778       ??_C@_03KOEHGMDN@Sun?$AA@  1009d778     LIBCMT:nlsdata2.obj
 0002:00004800       ??_C@_1BO@BKOMIGKJ@?$AAr?$AAu?$AAn?$AAt?$AAi?$AAm?$AAe?$AA?5?$AAe?$AAr?$AAr?$AAo?$AAr?$AA?5?$AA?$AA@ 1009d800     LIBCMT:crt0msg.obj
 0002:00004820       ??_C@_15JNBOKNOG@?$AA?$AN?$AA?6?$AA?$AA@ 1009d820     LIBCMT:crt0msg.obj
 0002:00004828       ??_C@_1BM@JBBEPPHI@?$AAT?$AAL?$AAO?$AAS?$AAS?$AA?5?$AAe?$AAr?$AAr?$AAo?$AAr?$AA?$AN?$AA?6?$AA?$AA@ 1009d828     LIBCMT:crt0msg.obj
 0002:00004844       ??_C@_1BK@KMOMNAAI@?$AAS?$AAI?$AAN?$AAG?$AA?5?$AAe?$AAr?$AAr?$AAo?$AAr?$AA?$AN?$AA?6?$AA?$AA@ 1009d844     LIBCMT:crt0msg.obj
 0002:00004860       ??_C@_1BO@BFCDCGC@?$AAD?$AAO?$AAM?$AAA?$AAI?$AAN?$AA?5?$AAe?$AAr?$AAr?$AAo?$AAr?$AA?$AN?$AA?6?$AA?$AA@ 1009d860     LIBCMT:crt0msg.obj
 0002:00004880       ??_C@_1BOO@KGEDBGAJ@?$AAR?$AA6?$AA0?$AA3?$AA3?$AA?$AN?$AA?6?$AA?9?$AA?5?$AAA?$AAt?$AAt?$AAe?$AAm?$AAp?$AAt?$AA?5?$AAt?$AAo?$AA?5?$AAu?$AAs?$AAe?$AA?5?$AAM?$AAS?$AAI?$AAL?$AA?5?$AAc?$AAo?$AAd@ 1009d880     LIBCMT:crt0msg.obj
 0002:00004a70       ??_C@_1GG@GOPILAJP@?$AAR?$AA6?$AA0?$AA3?$AA2?$AA?$AN?$AA?6?$AA?9?$AA?5?$AAn?$AAo?$AAt?$AA?5?$AAe?$AAn?$AAo?$AAu?$AAg?$AAh?$AA?5?$AAs?$AAp?$AAa?$AAc?$AAe?$AA?5?$AAf?$AAo?$AAr?$AA?5?$AAl?$AAo@ 1009da70     LIBCMT:crt0msg.obj
 0002:00004ad8       ??_C@_1MG@ENCOOIDF@?$AAR?$AA6?$AA0?$AA3?$AA1?$AA?$AN?$AA?6?$AA?9?$AA?5?$AAA?$AAt?$AAt?$AAe?$AAm?$AAp?$AAt?$AA?5?$AAt?$AAo?$AA?5?$AAi?$AAn?$AAi?$AAt?$AAi?$AAa?$AAl?$AAi?$AAz?$AAe?$AA?5?$AAt@ 1009dad8     LIBCMT:crt0msg.obj
 0002:00004ba0       ??_C@_1DO@BMFCDCD@?$AAR?$AA6?$AA0?$AA3?$AA0?$AA?$AN?$AA?6?$AA?9?$AA?5?$AAC?$AAR?$AAT?$AA?5?$AAn?$AAo?$AAt?$AA?5?$AAi?$AAn?$AAi?$AAt?$AAi?$AAa?$AAl?$AAi?$AAz?$AAe?$AAd?$AA?$AN?$AA?6?$AA?$AA@ 1009dba0     LIBCMT:crt0msg.obj
 0002:00004be0       ??_C@_1EK@HHFLMAOL@?$AAR?$AA6?$AA0?$AA2?$AA8?$AA?$AN?$AA?6?$AA?9?$AA?5?$AAu?$AAn?$AAa?$AAb?$AAl?$AAe?$AA?5?$AAt?$AAo?$AA?5?$AAi?$AAn?$AAi?$AAt?$AAi?$AAa?$AAl?$AAi?$AAz?$AAe?$AA?5?$AAh?$AAe@ 1009dbe0     LIBCMT:crt0msg.obj
 0002:00004c30       ??_C@_1GK@MFGOKLAG@?$AAR?$AA6?$AA0?$AA2?$AA7?$AA?$AN?$AA?6?$AA?9?$AA?5?$AAn?$AAo?$AAt?$AA?5?$AAe?$AAn?$AAo?$AAu?$AAg?$AAh?$AA?5?$AAs?$AAp?$AAa?$AAc?$AAe?$AA?5?$AAf?$AAo?$AAr?$AA?5?$AAl?$AAo@ 1009dc30     LIBCMT:crt0msg.obj
 0002:00004ca0       ??_C@_1GK@MCAAGJMO@?$AAR?$AA6?$AA0?$AA2?$AA6?$AA?$AN?$AA?6?$AA?9?$AA?5?$AAn?$AAo?$AAt?$AA?5?$AAe?$AAn?$AAo?$AAu?$AAg?$AAh?$AA?5?$AAs?$AAp?$AAa?$AAc?$AAe?$AA?5?$AAf?$AAo?$AAr?$AA?5?$AAs?$AAt@ 1009dca0     LIBCMT:crt0msg.obj
 0002:00004d10       ??_C@_1EM@MAADIHMB@?$AAR?$AA6?$AA0?$AA2?$AA5?$AA?$AN?$AA?6?$AA?9?$AA?5?$AAp?$AAu?$AAr?$AAe?$AA?5?$AAv?$AAi?$AAr?$AAt?$AAu?$AAa?$AAl?$AA?5?$AAf?$AAu?$AAn?$AAc?$AAt?$AAi?$AAo?$AAn?$AA?5?$AAc@ 1009dd10     LIBCMT:crt0msg.obj
 0002:00004d60       ??_C@_1GK@FHCKBEFA@?$AAR?$AA6?$AA0?$AA2?$AA4?$AA?$AN?$AA?6?$AA?9?$AA?5?$AAn?$AAo?$AAt?$AA?5?$AAe?$AAn?$AAo?$AAu?$AAg?$AAh?$AA?5?$AAs?$AAp?$AAa?$AAc?$AAe?$AA?5?$AAf?$AAo?$AAr?$AA?5?$AA_?$AAo@ 1009dd60     LIBCMT:crt0msg.obj
 0002:00004dd0       ??_C@_1FC@ECHBIFBC@?$AAR?$AA6?$AA0?$AA1?$AA9?$AA?$AN?$AA?6?$AA?9?$AA?5?$AAu?$AAn?$AAa?$AAb?$AAl?$AAe?$AA?5?$AAt?$AAo?$AA?5?$AAo?$AAp?$AAe?$AAn?$AA?5?$AAc?$AAo?$AAn?$AAs?$AAo?$AAl?$AAe?$AA?5@ 1009ddd0     LIBCMT:crt0msg.obj
 0002:00004e28       ??_C@_1EC@JIBHAOPH@?$AAR?$AA6?$AA0?$AA1?$AA8?$AA?$AN?$AA?6?$AA?9?$AA?5?$AAu?$AAn?$AAe?$AAx?$AAp?$AAe?$AAc?$AAt?$AAe?$AAd?$AA?5?$AAh?$AAe?$AAa?$AAp?$AA?5?$AAe?$AAr?$AAr?$AAo?$AAr?$AA?$AN?$AA?6@ 1009de28     LIBCMT:crt0msg.obj
 0002:00004e70       ??_C@_1FK@BEOGODMC@?$AAR?$AA6?$AA0?$AA1?$AA7?$AA?$AN?$AA?6?$AA?9?$AA?5?$AAu?$AAn?$AAe?$AAx?$AAp?$AAe?$AAc?$AAt?$AAe?$AAd?$AA?5?$AAm?$AAu?$AAl?$AAt?$AAi?$AAt?$AAh?$AAr?$AAe?$AAa?$AAd?$AA?5@ 1009de70     LIBCMT:crt0msg.obj
 0002:00004ed0       ??_C@_1FI@LOGNIKDM@?$AAR?$AA6?$AA0?$AA1?$AA6?$AA?$AN?$AA?6?$AA?9?$AA?5?$AAn?$AAo?$AAt?$AA?5?$AAe?$AAn?$AAo?$AAu?$AAg?$AAh?$AA?5?$AAs?$AAp?$AAa?$AAc?$AAe?$AA?5?$AAf?$AAo?$AAr?$AA?5?$AAt?$AAh@ 1009ded0     LIBCMT:crt0msg.obj
 0002:00004f28       ??_C@_1EG@BEHAGFJD@?$AAR?$AA6?$AA0?$AA1?$AA0?$AA?$AN?$AA?6?$AA?9?$AA?5?$AAa?$AAb?$AAo?$AAr?$AAt?$AA?$CI?$AA?$CJ?$AA?5?$AAh?$AAa?$AAs?$AA?5?$AAb?$AAe?$AAe?$AAn?$AA?5?$AAc?$AAa?$AAl?$AAl?$AAe?$AAd@ 1009df28     LIBCMT:crt0msg.obj
 0002:00004f70       ??_C@_1FI@HONFMGBI@?$AAR?$AA6?$AA0?$AA0?$AA9?$AA?$AN?$AA?6?$AA?9?$AA?5?$AAn?$AAo?$AAt?$AA?5?$AAe?$AAn?$AAo?$AAu?$AAg?$AAh?$AA?5?$AAs?$AAp?$AAa?$AAc?$AAe?$AA?5?$AAf?$AAo?$AAr?$AA?5?$AAe?$AAn@ 1009df70     LIBCMT:crt0msg.obj
 0002:00004fc8       ??_C@_1FE@LLNEDJMD@?$AAR?$AA6?$AA0?$AA0?$AA8?$AA?$AN?$AA?6?$AA?9?$AA?5?$AAn?$AAo?$AAt?$AA?5?$AAe?$AAn?$AAo?$AAu?$AAg?$AAh?$AA?5?$AAs?$AAp?$AAa?$AAc?$AAe?$AA?5?$AAf?$AAo?$AAr?$AA?5?$AAa?$AAr@ 1009dfc8     LIBCMT:crt0msg.obj
 0002:00005020       ??_C@_1FK@PGACCAFB@?$AAR?$AA6?$AA0?$AA0?$AA2?$AA?$AN?$AA?6?$AA?9?$AA?5?$AAf?$AAl?$AAo?$AAa?$AAt?$AAi?$AAn?$AAg?$AA?5?$AAp?$AAo?$AAi?$AAn?$AAt?$AA?5?$AAs?$AAu?$AAp?$AAp?$AAo?$AAr?$AAt?$AA?5@ 1009e020     LIBCMT:crt0msg.obj
 0002:00005130       ??_C@_1EK@MBDPDCGA@?$AAM?$AAi?$AAc?$AAr?$AAo?$AAs?$AAo?$AAf?$AAt?$AA?5?$AAV?$AAi?$AAs?$AAu?$AAa?$AAl?$AA?5?$AAC?$AA?$CL?$AA?$CL?$AA?5?$AAR?$AAu?$AAn?$AAt?$AAi?$AAm?$AAe?$AA?5?$AAL?$AAi?$AAb@ 1009e130     LIBCMT:crt0msg.obj
 0002:0000517c       ??_C@_15IABLJNFO@?$AA?6?$AA?6?$AA?$AA@ 1009e17c     LIBCMT:crt0msg.obj
 0002:00005184       ??_C@_17LGKOMLJ@?$AA?4?$AA?4?$AA?4?$AA?$AA@ 1009e184     LIBCMT:crt0msg.obj
 0002:0000518c       ??_C@_1CO@EAEJAADC@?$AA?$DM?$AAp?$AAr?$AAo?$AAg?$AAr?$AAa?$AAm?$AA?5?$AAn?$AAa?$AAm?$AAe?$AA?5?$AAu?$AAn?$AAk?$AAn?$AAo?$AAw?$AAn?$AA?$DO?$AA?$AA@ 1009e18c     LIBCMT:crt0msg.obj
 0002:000051bc       ??_C@_1DE@JNGNBFGO@?$AAR?$AAu?$AAn?$AAt?$AAi?$AAm?$AAe?$AA?5?$AAE?$AAr?$AAr?$AAo?$AAr?$AA?$CB?$AA?6?$AA?6?$AAP?$AAr?$AAo?$AAg?$AAr?$AAa?$AAm?$AA?3?$AA?5?$AA?$AA@ 1009e1bc     LIBCMT:crt0msg.obj
 0002:000051f0       ??_C@_1O@CEDCILHN@?$AA?$CI?$AAn?$AAu?$AAl?$AAl?$AA?$CJ?$AA?$AA@ 1009e1f0     LIBCMT:output.obj
 0002:00005200       ??_C@_06OJHGLDPL@?$CInull?$CJ?$AA@ 1009e200     LIBCMT:output.obj
 0002:00005208       ___lookuptable             1009e208     LIBCMT:output.obj
 0002:00005264       ??_C@_0P@MIGLKIOC@CorExitProcess?$AA@ 1009e264     LIBCMT:crt0dat.obj
 0002:00005274       ??_C@_1BI@BGOHAHKC@?$AAm?$AAs?$AAc?$AAo?$AAr?$AAe?$AAe?$AA?4?$AAd?$AAl?$AAl?$AA?$AA@ 1009e274     LIBCMT:crt0dat.obj
 0002:0000528c       ??_C@_05KLBDPFGC@e?$CL000?$AA@ 1009e28c     LIBCMT:cvt.obj
 0002:00005298       __XcptActTab               1009e298     LIBCMT:winxfltr.obj
 0002:00005328       __First_FPE_Indx           1009e328     LIBCMT:winxfltr.obj
 0002:0000532c       __Num_FPE                  1009e32c     LIBCMT:winxfltr.obj
 0002:00005330       __XcptActTabSize           1009e330     LIBCMT:winxfltr.obj
 0002:00005334       __XcptActTabCount          1009e334     LIBCMT:winxfltr.obj
 0002:00005338       ??_C@_0BK@CFCOFLF@?5Complete?5Object?5Locator?8?$AA@ 1009e338     LIBCMT:undname.obj
 0002:00005354       ??_C@_0BN@MECKDCOJ@?5Class?5Hierarchy?5Descriptor?8?$AA@ 1009e354     LIBCMT:undname.obj
 0002:00005374       ??_C@_0BD@LGICGFMM@?5Base?5Class?5Array?8?$AA@ 1009e374     LIBCMT:undname.obj
 0002:00005388       ??_C@_0BM@LDKODKLH@?5Base?5Class?5Descriptor?5at?5?$CI?$AA@ 1009e388     LIBCMT:undname.obj
 0002:000053a4       ??_C@_0BC@DAFEJGAK@?5Type?5Descriptor?8?$AA@ 1009e3a4     LIBCMT:undname.obj
 0002:000053b8       ??_C@_0BM@PMGGMLDN@?$GAlocal?5static?5thread?5guard?8?$AA@ 1009e3b8     LIBCMT:undname.obj
 0002:000053d4       ??_C@_0CL@FGIJHLCE@?$GAmanaged?5vector?5copy?5constructor@ 1009e3d4     LIBCMT:undname.obj
 0002:00005400       ??_C@_0CJ@GJELGAMM@?$GAvector?5vbase?5copy?5constructor?5i@ 1009e400     LIBCMT:undname.obj
 0002:0000542c       ??_C@_0CD@CGAJBKEJ@?$GAvector?5copy?5constructor?5iterato@ 1009e42c     LIBCMT:undname.obj
 0002:00005450       ??_C@_0CB@PDBIFEP@?$GAdynamic?5atexit?5destructor?5for?5?8@ 1009e450     LIBCMT:undname.obj
 0002:00005474       ??_C@_0BL@CLIPGLGB@?$GAdynamic?5initializer?5for?5?8?$AA@ 1009e474     LIBCMT:undname.obj
 0002:00005490       ??_C@_0CM@FCBBDIGB@?$GAeh?5vector?5vbase?5copy?5constructo@ 1009e490     LIBCMT:undname.obj
 0002:000054bc       ??_C@_0CG@HLDDJMAG@?$GAeh?5vector?5copy?5constructor?5iter@ 1009e4bc     LIBCMT:undname.obj
 0002:000054e4       ??_C@_0CF@IMGKMJNO@?$GAmanaged?5vector?5destructor?5itera@ 1009e4e4     LIBCMT:undname.obj
 0002:0000550c       ??_C@_0CG@CFDHKGGD@?$GAmanaged?5vector?5constructor?5iter@ 1009e50c     LIBCMT:undname.obj
 0002:00005534       ??_C@_0BN@CKNJLHMB@?$GAplacement?5delete?$FL?$FN?5closure?8?$AA@ 1009e534     LIBCMT:undname.obj
 0002:00005554       ??_C@_0BL@CNOONJFP@?$GAplacement?5delete?5closure?8?$AA@ 1009e554     LIBCMT:undname.obj
 0002:00005570       ??_C@_0P@HJKNJFNN@?$GAomni?5callsig?8?$AA@ 1009e570     LIBCMT:undname.obj
 0002:00005580       ??_C@_09LBNFPBCA@?5delete?$FL?$FN?$AA@ 1009e580     LIBCMT:undname.obj
 0002:0000558c       ??_C@_06FHBGPFGH@?5new?$FL?$FN?$AA@ 1009e58c     LIBCMT:undname.obj
 0002:00005594       ??_C@_0CE@IIHCMGGL@?$GAlocal?5vftable?5constructor?5closu@ 1009e594     LIBCMT:undname.obj
 0002:000055b8       ??_C@_0BA@KKLDJDLB@?$GAlocal?5vftable?8?$AA@ 1009e5b8     LIBCMT:undname.obj
 0002:000055c8       ??_C@_05KHLCHHI@?$GARTTI?$AA@ 1009e5c8     LIBCMT:undname.obj
 0002:000055d0       ??_C@_03KLGMFNMG@?$GAEH?$AA@ 1009e5d0     LIBCMT:undname.obj
 0002:000055d4       ??_C@_0BA@KBCDOMBN@?$GAudt?5returning?8?$AA@ 1009e5d4     LIBCMT:undname.obj
 0002:000055e4       ??_C@_0BL@LLKPOHJI@?$GAcopy?5constructor?5closure?8?$AA@ 1009e5e4     LIBCMT:undname.obj
 0002:00005600       ??_C@_0CH@OOJPLCPH@?$GAeh?5vector?5vbase?5constructor?5ite@ 1009e600     LIBCMT:undname.obj
 0002:00005628       ??_C@_0CA@GCEOPDGL@?$GAeh?5vector?5destructor?5iterator?8?$AA@ 1009e628     LIBCMT:undname.obj
 0002:00005648       ??_C@_0CB@JONCMFFK@?$GAeh?5vector?5constructor?5iterator?8@ 1009e648     LIBCMT:undname.obj
 0002:0000566c       ??_C@_0BL@NILFHHPC@?$GAvirtual?5displacement?5map?8?$AA@ 1009e66c     LIBCMT:undname.obj
 0002:00005688       ??_C@_0CE@IKBNEHA@?$GAvector?5vbase?5constructor?5iterat@ 1009e688     LIBCMT:undname.obj
 0002:000056ac       ??_C@_0BN@LFPFMEDL@?$GAvector?5destructor?5iterator?8?$AA@ 1009e6ac     LIBCMT:undname.obj
 0002:000056cc       ??_C@_0BO@PFGOCPJJ@?$GAvector?5constructor?5iterator?8?$AA@ 1009e6cc     LIBCMT:undname.obj
 0002:000056ec       ??_C@_0BN@IMDCHIKM@?$GAscalar?5deleting?5destructor?8?$AA@ 1009e6ec     LIBCMT:undname.obj
 0002:0000570c       ??_C@_0BO@OBMKPJIG@?$GAdefault?5constructor?5closure?8?$AA@ 1009e70c     LIBCMT:undname.obj
 0002:0000572c       ??_C@_0BN@DEGPLNFK@?$GAvector?5deleting?5destructor?8?$AA@ 1009e72c     LIBCMT:undname.obj
 0002:0000574c       ??_C@_0BD@JDLKDPAB@?$GAvbase?5destructor?8?$AA@ 1009e74c     LIBCMT:undname.obj
 0002:00005760       ??_C@_08OBABFOLI@?$GAstring?8?$AA@ 1009e760     LIBCMT:undname.obj
 0002:0000576c       ??_C@_0BF@KDPPACIK@?$GAlocal?5static?5guard?8?$AA@ 1009e76c     LIBCMT:undname.obj
 0002:00005784       ??_C@_08LLFFHHDJ@?$GAtypeof?8?$AA@ 1009e784     LIBCMT:undname.obj
 0002:00005790       ??_C@_07FEEIOKP@?$GAvcall?8?$AA@ 1009e790     LIBCMT:undname.obj
 0002:00005798       ??_C@_09BLBHBJP@?$GAvbtable?8?$AA@ 1009e798     LIBCMT:undname.obj
 0002:000057a4       ??_C@_09IFPLHPGF@?$GAvftable?8?$AA@ 1009e7a4     LIBCMT:undname.obj
 0002:000057b0       ??_C@_02MHEGNOJ@?$FO?$DN?$AA@ 1009e7b0     LIBCMT:undname.obj
 0002:000057b4       ??_C@_02DHLNPPGH@?$HM?$DN?$AA@ 1009e7b4     LIBCMT:undname.obj
 0002:000057b8       ??_C@_02FGJGFEAB@?$CG?$DN?$AA@ 1009e7b8     LIBCMT:undname.obj
 0002:000057bc       ??_C@_03CDNPDDLA@?$DM?$DM?$DN?$AA@ 1009e7bc     LIBCMT:undname.obj
 0002:000057c0       ??_C@_03IKFCCPFF@?$DO?$DO?$DN?$AA@ 1009e7c0     LIBCMT:undname.obj
 0002:000057c4       ??_C@_02FENAOKFI@?$CF?$DN?$AA@ 1009e7c4     LIBCMT:undname.obj
 0002:000057c8       ??_C@_02FJEHGPIO@?1?$DN?$AA@ 1009e7c8     LIBCMT:undname.obj
 0002:000057cc       ??_C@_02FKMDLLOA@?9?$DN?$AA@ 1009e7cc     LIBCMT:undname.obj
 0002:000057d0       ??_C@_02FOEOMHFC@?$CL?$DN?$AA@ 1009e7d0     LIBCMT:undname.obj
 0002:000057d4       ??_C@_02FPIMKNGF@?$CK?$DN?$AA@ 1009e7d4     LIBCMT:undname.obj
 0002:000057d8       ??_C@_02NONPIBCD@?$HM?$HM?$AA@ 1009e7d8     LIBCMT:undname.obj
 0002:000057dc       ??_C@_02PPKAJPJL@?$CG?$CG?$AA@ 1009e7dc     LIBCMT:undname.obj
 0002:000057e0       ??_C@_01DNKMNLPK@?$HM?$AA@ 1009e7e0     LIBCMT:undname.obj
 0002:000057e4       ??_C@_01JKBOJNNK@?$FO?$AA@ 1009e7e4     LIBCMT:undname.obj
 0002:000057e8       ??_C@_01PJKLJHI@?$HO?$AA@  1009e7e8     LIBCMT:undname.obj
 0002:000057ec       ??_C@_02HCKGKOFO@?$CI?$CJ?$AA@ 1009e7ec     LIBCMT:undname.obj
 0002:000057f0       ??_C@_01IHBHIGKO@?0?$AA@   1009e7f0     LIBCMT:undname.obj
 0002:000057f4       ??_C@_02EEKDKGMJ@?$DO?$DN?$AA@ 1009e7f4     LIBCMT:undname.obj
 0002:000057f8       ??_C@_01PPODPGHN@?$DO?$AA@ 1009e7f8     LIBCMT:undname.obj
 0002:000057fc       ??_C@_02EHCHHCKH@?$DM?$DN?$AA@ 1009e7fc     LIBCMT:undname.obj
 0002:00005800       ??_C@_01MNNFJEPP@?$DM?$AA@ 1009e800     LIBCMT:undname.obj
 0002:00005804       ??_C@_01KMDKNFGN@?1?$AA@   1009e804     LIBCMT:undname.obj
 0002:00005808       ??_C@_03MNHNFDLC@?9?$DO?$CK?$AA@ 1009e808     LIBCMT:undname.obj
 0002:0000580c       ??_C@_01HNPIGOCE@?$CG?$AA@ 1009e80c     LIBCMT:undname.obj
 0002:00005810       ??_C@_01MIFGBAGJ@?$CL?$AA@ 1009e810     LIBCMT:undname.obj
 0002:00005814       ??_C@_01JOAMLHOP@?9?$AA@   1009e814     LIBCMT:undname.obj
 0002:00005818       ??_C@_02ECNGHCIF@?$CL?$CL?$AA@ 1009e818     LIBCMT:undname.obj
 0002:0000581c       ??_C@_01NBENCBCI@?$CK?$AA@ 1009e81c     LIBCMT:undname.obj
 0002:00005820       ??_C@_02GPECMEKF@?$FL?$FN?$AA@ 1009e820     LIBCMT:undname.obj
 0002:00005824       ??_C@_02FDNJECIE@?$CB?$DN?$AA@ 1009e824     LIBCMT:undname.obj
 0002:00005828       ??_C@_02EGOFBIJA@?$DN?$DN?$AA@ 1009e828     LIBCMT:undname.obj
 0002:0000582c       ??_C@_01DCLJPIOD@?$CB?$AA@ 1009e82c     LIBCMT:undname.obj
 0002:00005830       ??_C@_02FODMEDOG@?$DM?$DM?$AA@ 1009e830     LIBCMT:undname.obj
 0002:00005834       ??_C@_02GPIOPFAK@?$DO?$DO?$AA@ 1009e834     LIBCMT:undname.obj
 0002:00005838       ??_C@_07FPCDHGMM@?5delete?$AA@ 1009e838     LIBCMT:undname.obj
 0002:00005840       ??_C@_04NIHEBCM@?5new?$AA@ 1009e840     LIBCMT:undname.obj
 0002:00005848       ??_C@_0M@GFIIJFMG@__unaligned?$AA@ 1009e848     LIBCMT:undname.obj
 0002:00005854       ??_C@_0L@PILCLIHE@__restrict?$AA@ 1009e854     LIBCMT:undname.obj
 0002:00005860       ??_C@_07JOMMBBKO@__ptr64?$AA@ 1009e860     LIBCMT:undname.obj
 0002:00005868       ??_C@_06GHPCKEAG@__eabi?$AA@ 1009e868     LIBCMT:undname.obj
 0002:00005870       ??_C@_09HIJEGCPM@__clrcall?$AA@ 1009e870     LIBCMT:undname.obj
 0002:0000587c       ??_C@_0L@JMKHOMEK@__fastcall?$AA@ 1009e87c     LIBCMT:undname.obj
 0002:00005888       ??_C@_0L@NPHFGOKO@__thiscall?$AA@ 1009e888     LIBCMT:undname.obj
 0002:00005894       ??_C@_09IFJBGAPI@__stdcall?$AA@ 1009e894     LIBCMT:undname.obj
 0002:000058a0       ??_C@_08GHMPAG@__pascal?$AA@ 1009e8a0     LIBCMT:undname.obj
 0002:000058ac       ??_C@_07KOLFKCDI@__cdecl?$AA@ 1009e8ac     LIBCMT:undname.obj
 0002:000058b4       ??_C@_08EHJDFFNH@__based?$CI?$AA@ 1009e8b4     LIBCMT:undname.obj
 0002:00005a48       ___newctype                1009ea48     LIBCMT:ctype.obj
 0002:00005d48       __wctype                   1009ed48     LIBCMT:ctype.obj
 0002:00005f50       ___newclmap                1009ef50     LIBCMT:ctype.obj
 0002:000060d0       ___newcumap                1009f0d0     LIBCMT:ctype.obj
 0002:00006250       ??_C@_0BI@DFKBFLJE@GetProcessWindowStation?$AA@ 1009f250     LIBCMT:crtmboxw.obj
 0002:00006268       ??_C@_0BK@DEKFELLI@GetUserObjectInformationW?$AA@ 1009f268     LIBCMT:crtmboxw.obj
 0002:00006284       ??_C@_0BD@HHGDFDBJ@GetLastActivePopup?$AA@ 1009f284     LIBCMT:crtmboxw.obj
 0002:00006298       ??_C@_0BA@HNOPNCHB@GetActiveWindow?$AA@ 1009f298     LIBCMT:crtmboxw.obj
 0002:000062a8       ??_C@_0M@DLDCCGNP@MessageBoxW?$AA@ 1009f2a8     LIBCMT:crtmboxw.obj
 0002:000062b4       ??_C@_1BG@GOEBHBDC@?$AAU?$AAS?$AAE?$AAR?$AA3?$AA2?$AA?4?$AAD?$AAL?$AAL?$AA?$AA@ 1009f2b4     LIBCMT:crtmboxw.obj
 0002:000062d0       ___lookuptable_s           1009f2d0     LIBCMT:outputs.obj
 0002:0000632c       ??_C@_06IMKFLFPG@1?$CDQNAN?$AA@ 1009f32c     LIBCMT:_x10fout_.obj
 0002:00006334       ??_C@_05DNEBIAHO@1?$CDINF?$AA@ 1009f334     LIBCMT:_x10fout_.obj
 0002:0000633c       ??_C@_05PHHOCPM@1?$CDIND?$AA@ 1009f33c     LIBCMT:_x10fout_.obj
 0002:00006344       ??_C@_06PGGFOGJG@1?$CDSNAN?$AA@ 1009f344     LIBCMT:_x10fout_.obj
 0002:0000634c       ??_C@_1BA@BALFACEM@?$AAC?$AAO?$AAN?$AAO?$AAU?$AAT?$AA$?$AA?$AA@ 1009f34c     LIBCMT:initcon.obj
 0002:00006360       ??_7logic_error@std@@6B@   1009f360     libcpmt:xthrow.obj
 0002:0000636c       ??_7length_error@std@@6B@  1009f36c     libcpmt:xthrow.obj
 0002:00006378       ??_7out_of_range@std@@6B@  1009f378     libcpmt:xthrow.obj
 0002:00006380       __load_config_used         1009f380     LIBCMT:loadcfg.obj
 0002:000063c8       ??_R4Window@@6B@           1009f3c8     CallTip.obj
 0002:000063dc       ??_R3Window@@8             1009f3dc     CallTip.obj
 0002:000063ec       ??_R2Window@@8             1009f3ec     CallTip.obj
 0002:000063f4       ??_R1A@?0A@EA@Window@@8    1009f3f4     CallTip.obj
 0002:00006410       ??_R4ContractionState@@6B@ 1009f410     ContractionState.obj
 0002:00006424       ??_R3ContractionState@@8   1009f424     ContractionState.obj
 0002:00006434       ??_R2ContractionState@@8   1009f434     ContractionState.obj
 0002:0000643c       ??_R1A@?0A@EA@ContractionState@@8 1009f43c     ContractionState.obj
 0002:00006458       ??_R4bad_alloc@std@@6B@    1009f458     Document.obj
 0002:0000646c       ??_R3bad_alloc@std@@8      1009f46c     Document.obj
 0002:0000647c       ??_R2bad_alloc@std@@8      1009f47c     Document.obj
 0002:00006488       ??_R1A@?0A@EA@bad_alloc@std@@8 1009f488     Document.obj
 0002:000064a4       ??_R1A@?0A@EA@exception@std@@8 1009f4a4     Document.obj
 0002:000064c0       ??_R3exception@std@@8      1009f4c0     Document.obj
 0002:000064d0       ??_R2exception@std@@8      1009f4d0     Document.obj
 0002:000064d8       ??_R4PerLine@@6B@          1009f4d8     Document.obj
 0002:000064ec       ??_R3PerLine@@8            1009f4ec     Document.obj
 0002:000064fc       ??_R2PerLine@@8            1009f4fc     Document.obj
 0002:00006504       ??_R1A@?0A@EA@PerLine@@8   1009f504     Document.obj
 0002:00006520       ??_R4RegexSearchBase@@6B@  1009f520     Document.obj
 0002:00006534       ??_R3RegexSearchBase@@8    1009f534     Document.obj
 0002:00006544       ??_R2RegexSearchBase@@8    1009f544     Document.obj
 0002:0000654c       ??_R1A@?0A@EA@RegexSearchBase@@8 1009f54c     Document.obj
 0002:00006568       ??_R4CaseFolder@@6B@       1009f568     Document.obj
 0002:0000657c       ??_R3CaseFolder@@8         1009f57c     Document.obj
 0002:0000658c       ??_R2CaseFolder@@8         1009f58c     Document.obj
 0002:00006594       ??_R1A@?0A@EA@CaseFolder@@8 1009f594     Document.obj
 0002:000065b0       ??_R4Document@@6B@         1009f5b0     Document.obj
 0002:000065c4       ??_R3Document@@8           1009f5c4     Document.obj
 0002:000065d4       ??_R2Document@@8           1009f5d4     Document.obj
 0002:000065e0       ??_R1A@?0A@EA@Document@@8  1009f5e0     Document.obj
 0002:000065fc       ??_R1A@?0A@EN@PerLine@@8   1009f5fc     Document.obj
 0002:00006618       ??_R4CaseFolderTable@@6B@  1009f618     Document.obj
 0002:0000662c       ??_R3CaseFolderTable@@8    1009f62c     Document.obj
 0002:0000663c       ??_R2CaseFolderTable@@8    1009f63c     Document.obj
 0002:00006648       ??_R1A@?0A@EA@CaseFolderTable@@8 1009f648     Document.obj
 0002:00006664       ??_R4BuiltinRegex@@6B@     1009f664     Document.obj
 0002:00006678       ??_R3BuiltinRegex@@8       1009f678     Document.obj
 0002:00006688       ??_R2BuiltinRegex@@8       1009f688     Document.obj
 0002:00006694       ??_R1A@?0A@EA@BuiltinRegex@@8 1009f694     Document.obj
 0002:000066b0       ??_R4LineMarkers@@6B@      1009f6b0     Document.obj
 0002:000066c4       ??_R3LineMarkers@@8        1009f6c4     Document.obj
 0002:000066d4       ??_R2LineMarkers@@8        1009f6d4     Document.obj
 0002:000066e0       ??_R1A@?0A@EA@LineMarkers@@8 1009f6e0     Document.obj
 0002:000066fc       ??_R4LineState@@6B@        1009f6fc     Document.obj
 0002:00006710       ??_R3LineState@@8          1009f710     Document.obj
 0002:00006720       ??_R2LineState@@8          1009f720     Document.obj
 0002:0000672c       ??_R1A@?0A@EA@LineState@@8 1009f72c     Document.obj
 0002:00006748       ??_R4LineAnnotation@@6B@   1009f748     Document.obj
 0002:0000675c       ??_R3LineAnnotation@@8     1009f75c     Document.obj
 0002:0000676c       ??_R2LineAnnotation@@8     1009f76c     Document.obj
 0002:00006778       ??_R1A@?0A@EA@LineAnnotation@@8 1009f778     Document.obj
 0002:00006794       ??_R4LineLevels@@6B@       1009f794     Document.obj
 0002:000067a8       ??_R3LineLevels@@8         1009f7a8     Document.obj
 0002:000067b8       ??_R2LineLevels@@8         1009f7b8     Document.obj
 0002:000067c4       ??_R1A@?0A@EA@LineLevels@@8 1009f7c4     Document.obj
 0002:000067e0       ??_R4Accessor@@6B@         1009f7e0     DocumentAccessor.obj
 0002:000067f4       ??_R3Accessor@@8           1009f7f4     DocumentAccessor.obj
 0002:00006804       ??_R2Accessor@@8           1009f804     DocumentAccessor.obj
 0002:0000680c       ??_R1A@?0A@EA@Accessor@@8  1009f80c     DocumentAccessor.obj
 0002:00006828       ??_R4DocWatcher@@6B@       1009f828     Editor.obj
 0002:0000683c       ??_R3DocWatcher@@8         1009f83c     Editor.obj
 0002:0000684c       ??_R2DocWatcher@@8         1009f84c     Editor.obj
 0002:00006854       ??_R1A@?0A@EA@DocWatcher@@8 1009f854     Editor.obj
 0002:00006870       ??_R4CaseFolderASCII@@6B@  1009f870     Editor.obj
 0002:00006884       ??_R3CaseFolderASCII@@8    1009f884     Editor.obj
 0002:00006894       ??_R2CaseFolderASCII@@8    1009f894     Editor.obj
 0002:000068a4       ??_R1A@?0A@EA@CaseFolderASCII@@8 1009f8a4     Editor.obj
 0002:000068c0       ??_R4Editor@@6B@           1009f8c0     Editor.obj
 0002:000068d4       ??_R3Editor@@8             1009f8d4     Editor.obj
 0002:000068e4       ??_R2Editor@@8             1009f8e4     Editor.obj
 0002:000068f0       ??_R1A@?0A@EA@Editor@@8    1009f8f0     Editor.obj
 0002:0000690c       ??_R4LexerModule@@6B@      1009f90c     ExternalLexer.obj
 0002:00006920       ??_R3LexerModule@@8        1009f920     ExternalLexer.obj
 0002:00006930       ??_R2LexerModule@@8        1009f930     ExternalLexer.obj
 0002:00006938       ??_R1A@?0A@EA@LexerModule@@8 1009f938     ExternalLexer.obj
 0002:00006954       ??_R4ExternalLexerModule@@6B@ 1009f954     ExternalLexer.obj
 0002:00006968       ??_R3ExternalLexerModule@@8 1009f968     ExternalLexer.obj
 0002:00006978       ??_R2ExternalLexerModule@@8 1009f978     ExternalLexer.obj
 0002:00006984       ??_R1A@?0A@EA@ExternalLexerModule@@8 1009f984     ExternalLexer.obj
 0002:000069a0       ??_R1A@?0A@EN@LexerModule@@8 1009f9a0     ExternalLexer.obj
 0002:000069bc       ??_R4Surface@@6B@          1009f9bc     PlatWin.obj
 0002:000069d0       ??_R3Surface@@8            1009f9d0     PlatWin.obj
 0002:000069e0       ??_R2Surface@@8            1009f9e0     PlatWin.obj
 0002:000069e8       ??_R1A@?0A@EA@Surface@@8   1009f9e8     PlatWin.obj
 0002:00006a04       ??_R4DynamicLibrary@@6B@   1009fa04     PlatWin.obj
 0002:00006a18       ??_R3DynamicLibrary@@8     1009fa18     PlatWin.obj
 0002:00006a28       ??_R2DynamicLibrary@@8     1009fa28     PlatWin.obj
 0002:00006a30       ??_R1A@?0A@EA@DynamicLibrary@@8 1009fa30     PlatWin.obj
 0002:00006a4c       ??_R4Font@@6B@             1009fa4c     PlatWin.obj
 0002:00006a60       ??_R3Font@@8               1009fa60     PlatWin.obj
 0002:00006a70       ??_R2Font@@8               1009fa70     PlatWin.obj
 0002:00006a78       ??_R1A@?0A@EA@Font@@8      1009fa78     PlatWin.obj
 0002:00006a94       ??_R4SurfaceImpl@@6B@      1009fa94     PlatWin.obj
 0002:00006aa8       ??_R3SurfaceImpl@@8        1009faa8     PlatWin.obj
 0002:00006ab8       ??_R2SurfaceImpl@@8        1009fab8     PlatWin.obj
 0002:00006ac4       ??_R1A@?0A@EA@SurfaceImpl@@8 1009fac4     PlatWin.obj
 0002:00006ae0       ??_R4ListBox@@6B@          1009fae0     PlatWin.obj
 0002:00006af4       ??_R3ListBox@@8            1009faf4     PlatWin.obj
 0002:00006b04       ??_R2ListBox@@8            1009fb04     PlatWin.obj
 0002:00006b10       ??_R1A@?0A@EA@ListBox@@8   1009fb10     PlatWin.obj
 0002:00006b2c       ??_R4FontCached@@6B@       1009fb2c     PlatWin.obj
 0002:00006b40       ??_R3FontCached@@8         1009fb40     PlatWin.obj
 0002:00006b50       ??_R2FontCached@@8         1009fb50     PlatWin.obj
 0002:00006b5c       ??_R1A@?0A@EA@FontCached@@8 1009fb5c     PlatWin.obj
 0002:00006b78       ??_R1A@?0A@EN@Font@@8      1009fb78     PlatWin.obj
 0002:00006b94       ??_R4ListBoxX@@6B@         1009fb94     PlatWin.obj
 0002:00006ba8       ??_R3ListBoxX@@8           1009fba8     PlatWin.obj
 0002:00006bb8       ??_R2ListBoxX@@8           1009fbb8     PlatWin.obj
 0002:00006bc8       ??_R1A@?0A@EA@ListBoxX@@8  1009fbc8     PlatWin.obj
 0002:00006be4       ??_R4DynamicLibraryImpl@@6B@ 1009fbe4     PlatWin.obj
 0002:00006bf8       ??_R3DynamicLibraryImpl@@8 1009fbf8     PlatWin.obj
 0002:00006c08       ??_R2DynamicLibraryImpl@@8 1009fc08     PlatWin.obj
 0002:00006c14       ??_R1A@?0A@EA@DynamicLibraryImpl@@8 1009fc14     PlatWin.obj
 0002:00006c30       ??_R4LineLayout@@6B@       1009fc30     PositionCache.obj
 0002:00006c44       ??_R3LineLayout@@8         1009fc44     PositionCache.obj
 0002:00006c54       ??_R2LineLayout@@8         1009fc54     PositionCache.obj
 0002:00006c5c       ??_R1A@?0A@EA@LineLayout@@8 1009fc5c     PositionCache.obj
 0002:00006c78       ??_R4LineLayoutCache@@6B@  1009fc78     PositionCache.obj
 0002:00006c8c       ??_R3LineLayoutCache@@8    1009fc8c     PositionCache.obj
 0002:00006c9c       ??_R2LineLayoutCache@@8    1009fc9c     PositionCache.obj
 0002:00006ca4       ??_R1A@?0A@EA@LineLayoutCache@@8 1009fca4     PositionCache.obj
 0002:00006cc0       ??_R4PropertyGet@@6B@      1009fcc0     PropSet.obj
 0002:00006cd4       ??_R3PropertyGet@@8        1009fcd4     PropSet.obj
 0002:00006ce4       ??_R2PropertyGet@@8        1009fce4     PropSet.obj
 0002:00006cec       ??_R1A@?0A@EA@PropertyGet@@8 1009fcec     PropSet.obj
 0002:00006d08       ??_R4PropSetSimple@@6B@    1009fd08     PropSet.obj
 0002:00006d1c       ??_R3PropSetSimple@@8      1009fd1c     PropSet.obj
 0002:00006d2c       ??_R2PropSetSimple@@8      1009fd2c     PropSet.obj
 0002:00006d38       ??_R1A@?0A@EA@PropSetSimple@@8 1009fd38     PropSet.obj
 0002:00006d54       ??_R4DocumentAccessor@@6B@ 1009fd54     ScintillaBase.obj
 0002:00006d68       ??_R3DocumentAccessor@@8   1009fd68     ScintillaBase.obj
 0002:00006d78       ??_R2DocumentAccessor@@8   1009fd78     ScintillaBase.obj
 0002:00006d84       ??_R1A@?0A@EA@DocumentAccessor@@8 1009fd84     ScintillaBase.obj
 0002:00006da0       ??_R4ScintillaBase@@6B@    1009fda0     ScintillaBase.obj
 0002:00006db4       ??_R3ScintillaBase@@8      1009fdb4     ScintillaBase.obj
 0002:00006dc4       ??_R2ScintillaBase@@8      1009fdc4     ScintillaBase.obj
 0002:00006dd4       ??_R1A@?0A@EA@ScintillaBase@@8 1009fdd4     ScintillaBase.obj
 0002:00006df0       ??_R4ScintillaWin@@6B@     1009fdf0     ScintillaWin.obj
 0002:00006e04       ??_R3ScintillaWin@@8       1009fe04     ScintillaWin.obj
 0002:00006e14       ??_R2ScintillaWin@@8       1009fe14     ScintillaWin.obj
 0002:00006e28       ??_R1A@?0A@EA@ScintillaWin@@8 1009fe28     ScintillaWin.obj
 0002:00006e44       ??_R4CaseFolderUTF8@@6B@   1009fe44     ScintillaWin.obj
 0002:00006e58       ??_R3CaseFolderUTF8@@8     1009fe58     ScintillaWin.obj
 0002:00006e68       ??_R2CaseFolderUTF8@@8     1009fe68     ScintillaWin.obj
 0002:00006e78       ??_R1A@?0A@EA@CaseFolderUTF8@@8 1009fe78     ScintillaWin.obj
 0002:00006e94       ??_R4type_info@@6B@        1009fe94     LIBCMT:typinfo.obj
 0002:00006ea8       ??_R3type_info@@8          1009fea8     LIBCMT:typinfo.obj
 0002:00006eb8       ??_R2type_info@@8          1009feb8     LIBCMT:typinfo.obj
 0002:00006ec0       ??_R1A@?0A@EA@type_info@@8 1009fec0     LIBCMT:typinfo.obj
 0002:00006edc       ??_R4exception@std@@6B@    1009fedc     LIBCMT:stdexcpt.obj
 0002:00006ef0       ??_R4bad_exception@std@@6B@ 1009fef0     LIBCMT:frame.obj
 0002:00006f04       ??_R3bad_exception@std@@8  1009ff04     LIBCMT:frame.obj
 0002:00006f14       ??_R2bad_exception@std@@8  1009ff14     LIBCMT:frame.obj
 0002:00006f20       ??_R1A@?0A@EA@bad_exception@std@@8 1009ff20     LIBCMT:frame.obj
 0002:00006f3c       ??_R4logic_error@std@@6B@  1009ff3c     libcpmt:xthrow.obj
 0002:00006f50       ??_R3logic_error@std@@8    1009ff50     libcpmt:xthrow.obj
 0002:00006f60       ??_R2logic_error@std@@8    1009ff60     libcpmt:xthrow.obj
 0002:00006f6c       ??_R1A@?0A@EA@logic_error@std@@8 1009ff6c     libcpmt:xthrow.obj
 0002:00006f88       ??_R4length_error@std@@6B@ 1009ff88     libcpmt:xthrow.obj
 0002:00006f9c       ??_R3length_error@std@@8   1009ff9c     libcpmt:xthrow.obj
 0002:00006fac       ??_R2length_error@std@@8   1009ffac     libcpmt:xthrow.obj
 0002:00006fbc       ??_R1A@?0A@EA@length_error@std@@8 1009ffbc     libcpmt:xthrow.obj
 0002:00006fd8       ??_R4out_of_range@std@@6B@ 1009ffd8     libcpmt:xthrow.obj
 0002:00006fec       ??_R3out_of_range@std@@8   1009ffec     libcpmt:xthrow.obj
 0002:00006ffc       ??_R2out_of_range@std@@8   1009fffc     libcpmt:xthrow.obj
 0002:0000700c       ??_R1A@?0A@EA@out_of_range@std@@8 100a000c     libcpmt:xthrow.obj
 0002:00007030       ___safe_se_handler_table   100a0030     <linker-defined>
 0002:000072a8       ___rtc_iaa                 100a02a8     LIBCMT:_initsect_.obj
 0002:000072ac       ___rtc_izz                 100a02ac     LIBCMT:_initsect_.obj
 0002:000072b0       ___rtc_taa                 100a02b0     LIBCMT:_initsect_.obj
 0002:000072b4       ___rtc_tzz                 100a02b4     LIBCMT:_initsect_.obj
 0002:00007608       __TI2?AVbad_alloc@std@@    100a0608     Document.obj
 0002:00007618       __CTA2?AVbad_alloc@std@@   100a0618     Document.obj
 0002:00007624       __CT??_R0?AVbad_alloc@std@@@8??0bad_alloc@std@@QAE@ABV01@@Z12 100a0624     Document.obj
 0002:00007640       __CT??_R0?AVexception@std@@@8??0exception@std@@QAE@ABV01@@Z12 100a0640     Document.obj
 0002:000096dc       __TI2?AVbad_exception@std@@ 100a26dc     LIBCMT:frame.obj
 0002:000096ec       __CTA2?AVbad_exception@std@@ 100a26ec     LIBCMT:frame.obj
 0002:000096f8       __CT??_R0?AVbad_exception@std@@@8??0bad_exception@std@@QAE@ABV01@@Z12 100a26f8     LIBCMT:frame.obj
 0002:000099ac       __CT??_R0?AVlogic_error@std@@@8??0logic_error@std@@QAE@ABV01@@Z12 100a29ac     libcpmt:xthrow.obj
 0002:000099c8       __TI3?AVlength_error@std@@ 100a29c8     libcpmt:xthrow.obj
 0002:000099d8       __CTA3?AVlength_error@std@@ 100a29d8     libcpmt:xthrow.obj
 0002:000099e8       __CT??_R0?AVlength_error@std@@@8??0length_error@std@@QAE@ABV01@@Z12 100a29e8     libcpmt:xthrow.obj
 0002:00009a04       __TI3?AVout_of_range@std@@ 100a2a04     libcpmt:xthrow.obj
 0002:00009a14       __CTA3?AVout_of_range@std@@ 100a2a14     libcpmt:xthrow.obj
 0002:00009a24       __CT??_R0?AVout_of_range@std@@@8??0out_of_range@std@@QAE@ABV01@@Z12 100a2a24     libcpmt:xthrow.obj
 0002:00009a40       __IMPORT_DESCRIPTOR_IMM32  100a2a40     imm32:IMM32.dll
 0002:00009a54       __IMPORT_DESCRIPTOR_pcre   100a2a54     pcre:pcre.dll
 0002:00009a68       __IMPORT_DESCRIPTOR_KERNEL32 100a2a68     kernel32:KERNEL32.dll
 0002:00009a7c       __IMPORT_DESCRIPTOR_USER32 100a2a7c     user32:USER32.dll
 0002:00009a90       __IMPORT_DESCRIPTOR_GDI32  100a2a90     gdi32:GDI32.dll
 0002:00009aa4       __IMPORT_DESCRIPTOR_ole32  100a2aa4     ole32:ole32.dll
 0002:00009ab8       __NULL_IMPORT_DESCRIPTOR   100a2ab8     imm32:IMM32.dll
 0003:00000000       ??_R0?AVWindow@@@8         100a4000     CallTip.obj
 0003:00000018       ??_R0?AVContractionState@@@8 100a4018     ContractionState.obj
 0003:00000038       ??_R0?AVbad_alloc@std@@@8  100a4038     Document.obj
 0003:00000054       ??_R0?AVexception@std@@@8  100a4054     Document.obj
 0003:00000070       ??_R0?AVPerLine@@@8        100a4070     Document.obj
 0003:00000088       ??_R0?AVRegexSearchBase@@@8 100a4088     Document.obj
 0003:000000a8       ??_R0?AVCaseFolder@@@8     100a40a8     Document.obj
 0003:000000c4       ??_R0?AVDocument@@@8       100a40c4     Document.obj
 0003:000000dc       ??_R0?AVCaseFolderTable@@@8 100a40dc     Document.obj
 0003:000000fc       ??_R0?AVBuiltinRegex@@@8   100a40fc     Document.obj
 0003:00000118       ??_R0?AVLineMarkers@@@8    100a4118     Document.obj
 0003:00000134       ??_R0?AVLineState@@@8      100a4134     Document.obj
 0003:0000014c       ??_R0?AVLineAnnotation@@@8 100a414c     Document.obj
 0003:0000016c       ??_R0?AVLineLevels@@@8     100a416c     Document.obj
 0003:00000188       ??_R0?AVAccessor@@@8       100a4188     DocumentAccessor.obj
 0003:000001a0       ??_R0?AVDocWatcher@@@8     100a41a0     Editor.obj
 0003:000001bc       ??_R0?AVCaseFolderASCII@@@8 100a41bc     Editor.obj
 0003:000001dc       ??_R0?AVEditor@@@8         100a41dc     Editor.obj
 0003:000001f4       ??_R0?AVLexerModule@@@8    100a41f4     ExternalLexer.obj
 0003:00000210       ??_R0?AVExternalLexerModule@@@8 100a4210     ExternalLexer.obj
 0003:00000234       ?nextLanguage@LexerModule@@1HA 100a4234     KeyWords.obj
 0003:00000c64       ?TextInset@ListBoxX@@0VPoint@@B 100a4c64     PlatWin.obj
 0003:00000c6c       ?ImageInset@ListBoxX@@0VPoint@@B 100a4c6c     PlatWin.obj
 0003:00000c74       ??_R0?AVSurface@@@8        100a4c74     PlatWin.obj
 0003:00000c8c       ??_R0?AVDynamicLibrary@@@8 100a4c8c     PlatWin.obj
 0003:00000cac       ??_R0?AVFont@@@8           100a4cac     PlatWin.obj
 0003:00000cc0       ??_R0?AVSurfaceImpl@@@8    100a4cc0     PlatWin.obj
 0003:00000cdc       ??_R0?AVListBox@@@8        100a4cdc     PlatWin.obj
 0003:00000cf4       ??_R0?AVFontCached@@@8     100a4cf4     PlatWin.obj
 0003:00000d10       ??_R0?AVListBoxX@@@8       100a4d10     PlatWin.obj
 0003:00000d28       ??_R0?AVDynamicLibraryImpl@@@8 100a4d28     PlatWin.obj
 0003:00000d4c       ??_R0?AVLineLayout@@@8     100a4d4c     PositionCache.obj
 0003:00000d68       ??_R0?AVLineLayoutCache@@@8 100a4d68     PositionCache.obj
 0003:00000d88       ??_R0?AVPropertyGet@@@8    100a4d88     PropSet.obj
 0003:00000da4       ??_R0?AVPropSetSimple@@@8  100a4da4     PropSet.obj
 0003:00000dc0       ??_R0?AVDocumentAccessor@@@8 100a4dc0     ScintillaBase.obj
 0003:00000de0       ??_R0?AVScintillaBase@@@8  100a4de0     ScintillaBase.obj
 0003:00000e78       ??_R0?AVScintillaWin@@@8   100a4e78     ScintillaWin.obj
 0003:00000e94       ??_R0?AVCaseFolderUTF8@@@8 100a4e94     ScintillaWin.obj
 0003:00000ec0       ___security_cookie         100a4ec0     LIBCMT:gs_cookie.obj
 0003:00000ec4       ___security_cookie_complement 100a4ec4     LIBCMT:gs_cookie.obj
 0003:00000ec8       ??_R0?AVtype_info@@@8      100a4ec8     LIBCMT:typinfo.obj
 0003:00000ee0       __fltused                  100a4ee0     LIBCMT:_fpinit_.obj
 0003:00000ee4       __ldused                   100a4ee4     LIBCMT:_fpinit_.obj
 0003:00000ee8       ___abort_behavior          100a4ee8     LIBCMT:abort.obj
 0003:00000ef0       ??_R0?AVbad_exception@std@@@8 100a4ef0     LIBCMT:frame.obj
 0003:00000f10       ___flsindex                100a4f10     LIBCMT:tidtable.obj
 0003:00000f14       ___getvalueindex           100a4f14     LIBCMT:tidtable.obj
 0003:00000f20       ___initialmbcinfo          100a4f20     LIBCMT:mbctype.obj
 0003:00001140       __mbctype                  100a5140     LIBCMT:mbctype.obj
 0003:00001248       __mbcasemap                100a5248     LIBCMT:mbctype.obj
 0003:00001348       ___ptmbcinfo               100a5348     LIBCMT:mbctype.obj
 0003:00001440       ___globallocalestatus      100a5440     LIBCMT:glstatus.obj
 0003:00001444       ___clocalestr              100a5444     LIBCMT:nlsdata2.obj
 0003:00001448       ___lc_time_c               100a5448     LIBCMT:nlsdata2.obj
 0003:000015b0       ___initiallocinfo          100a55b0     LIBCMT:nlsdata2.obj
 0003:00001688       ___ptlocinfo               100a5688     LIBCMT:nlsdata2.obj
 0003:0000168c       ___initiallocalestructinfo 100a568c     LIBCMT:nlsdata2.obj
 0003:000016a0       ___nullstring              100a56a0     LIBCMT:output.obj
 0003:000016a4       ___wnullstring             100a56a4     LIBCMT:output.obj
 0003:00001820       __cfltcvt_tab              100a5820     LIBCMT:cmiscdat.obj
 0003:00001848       ___badioinfo               100a5848     LIBCMT:ioinit.obj
 0003:000019b0       __NLG_Destination          100a59b0     LIBCMT:exsup.obj
 0003:000019c0       ___lconv_static_decimal    100a59c0     LIBCMT:lconv.obj
 0003:000019c4       ___lconv_static_W_decimal  100a59c4     LIBCMT:lconv.obj
 0003:000019c8       ___lconv_c                 100a59c8     LIBCMT:lconv.obj
 0003:00001a18       ___lconv                   100a5a18     LIBCMT:lconv.obj
 0003:00001a1c       __pctype                   100a5a1c     LIBCMT:ctype.obj
 0003:00001a20       __pwctype                  100a5a20     LIBCMT:ctype.obj
 0003:00001a24       ___mb_cur_max              100a5a24     LIBCMT:nlsdata1.obj
 0003:00001a28       ___decimal_point           100a5a28     LIBCMT:nlsdata1.obj
 0003:00001a2c       ___decimal_point_length    100a5a2c     LIBCMT:nlsdata1.obj
 0003:00001a30       __iob                      100a5a30     LIBCMT:_file.obj
 0003:00001ce0       __confh                    100a5ce0     LIBCMT:initcon.obj
 0003:00001ce8       __pow10pos                 100a5ce8     LIBCMT:_constpow_.obj
 0003:00001e48       __pow10neg                 100a5e48     LIBCMT:_constpow_.obj
 0003:00001fc0       ??_R0?AVlogic_error@std@@@8 100a5fc0     libcpmt:xthrow.obj
 0003:00001fe0       ??_R0?AVlength_error@std@@@8 100a5fe0     libcpmt:xthrow.obj
 0003:00002000       ??_R0?AVout_of_range@std@@@8 100a6000     libcpmt:xthrow.obj
 0003:00002020       ?theInstance@LexerManager@@0PAV1@A 100a6020     ExternalLexer.obj
 0003:00002024       ?minder@@3VLMMinder@@A     100a6024     ExternalLexer.obj
 0003:00002028       ?base@LexerModule@@1PBV1@B 100a6028     KeyWords.obj
 0003:00012030       ?lmAbaqus@@3VLexerModule@@A 100b6030     LexAbaqus.obj
 0003:00022050       ?lmAda@@3VLexerModule@@A   100c6050     LexAda.obj
 0003:00032070       ?lmAPDL@@3VLexerModule@@A  100d6070     LexAPDL.obj
 0003:00042090       ?lmAsm@@3VLexerModule@@A   100e6090     LexAsm.obj
 0003:000520b0       ?lmAns1@@3VLexerModule@@A  100f60b0     LexAsn1.obj
 0003:000620d0       ?lmASY@@3VLexerModule@@A   101060d0     LexASY.obj
 0003:000720f0       ?lmAU3@@3VLexerModule@@A   101160f0     LexAU3.obj
 0003:00082110       ?lmAVE@@3VLexerModule@@A   10126110     LexAVE.obj
 0003:00092130       ?lmBaan@@3VLexerModule@@A  10136130     LexBaan.obj
 0003:000a2150       ?lmBash@@3VLexerModule@@A  10146150     LexBash.obj
 0003:000b2170       ?lmBlitzBasic@@3VLexerModule@@A 10156170     LexBasic.obj
 0003:000b2190       ?lmPureBasic@@3VLexerModule@@A 10156190     LexBasic.obj
 0003:000b21b0       ?lmFreeBasic@@3VLexerModule@@A 101561b0     LexBasic.obj
 0003:000b21d0       ?lmBullant@@3VLexerModule@@A 101561d0     LexBullant.obj
 0003:000c21f0       ?lmCaml@@3VLexerModule@@A  101661f0     LexCaml.obj
 0003:000d2210       ?lmClw@@3VLexerModule@@A   10176210     LexCLW.obj
 0003:000d2230       ?lmClwNoCase@@3VLexerModule@@A 10176230     LexCLW.obj
 0003:000d2250       ?lmCmake@@3VLexerModule@@A 10176250     LexCmake.obj
 0003:000e2270       ?lmCOBOL@@3VLexerModule@@A 10186270     LexCOBOL.obj
 0003:000e2290       ?lmConf@@3VLexerModule@@A  10186290     LexConf.obj
 0003:000f22b0       ?lmCPP@@3VLexerModule@@A   101962b0     LexCPP.obj
 0003:000f22d0       ?lmCPPNoCase@@3VLexerModule@@A 101962d0     LexCPP.obj
 0003:000f22f0       ?lmNncrontab@@3VLexerModule@@A 101962f0     LexCrontab.obj
 0003:00102310       ?lmCsound@@3VLexerModule@@A 101a6310     LexCsound.obj
 0003:00112330       ?lmCss@@3VLexerModule@@A   101b6330     LexCSS.obj
 0003:00122350       ?lmD@@3VLexerModule@@A     101c6350     LexD.obj
 0003:00132370       ?lmEiffelkw@@3VLexerModule@@A 101d6370     LexEiffel.obj
 0003:00132390       ?lmEiffel@@3VLexerModule@@A 101d6390     LexEiffel.obj
 0003:001423b0       ?lmErlang@@3VLexerModule@@A 101e63b0     LexErlang.obj
 0003:001523d0       ?lmESCRIPT@@3VLexerModule@@A 101f63d0     LexEScript.obj
 0003:001623f0       ?lmFlagShip@@3VLexerModule@@A 102063f0     LexFlagship.obj
 0003:00172410       ?lmForth@@3VLexerModule@@A 10216410     LexForth.obj
 0003:00182430       ?lmFortran@@3VLexerModule@@A 10226430     LexFortran.obj
 0003:00182450       ?lmF77@@3VLexerModule@@A   10226450     LexFortran.obj
 0003:00192600       ?lmGAP@@3VLexerModule@@A   10236600     LexGAP.obj
 0003:001a2620       ?lmGui4Cli@@3VLexerModule@@A 10246620     LexGui4Cli.obj
 0003:001b2640       ?lmHaskell@@3VLexerModule@@A 10256640     LexHaskell.obj
 0003:001c2660       ?lmHTML@@3VLexerModule@@A  10266660     LexHTML.obj
 0003:001c2680       ?lmPHPSCRIPT@@3VLexerModule@@A 10266680     LexHTML.obj
 0003:001c26a0       ?lmXML@@3VLexerModule@@A   102666a0     LexHTML.obj
 0003:001d26c0       ?lmInno@@3VLexerModule@@A  102766c0     LexInno.obj
 0003:001e26e0       ?lmKix@@3VLexerModule@@A   102866e0     LexKix.obj
 0003:001f2700       ?lmLISP@@3VLexerModule@@A  10296700     LexLisp.obj
 0003:00202720       ?lmLout@@3VLexerModule@@A  102a6720     LexLout.obj
 0003:00212740       ?lmLua@@3VLexerModule@@A   102b6740     LexLua.obj
 0003:00222760       ?lmMagikSF@@3VLexerModule@@A 102c6760     LexMagik.obj
 0003:00232780       ?lmMarkdown@@3VLexerModule@@A 102d6780     LexMarkdown.obj
 0003:002427a0       ?lmOctave@@3VLexerModule@@A 102e67a0     LexMatlab.obj
 0003:002427c0       ?lmMatlab@@3VLexerModule@@A 102e67c0     LexMatlab.obj
 0003:002527e0       ?lmMETAPOST@@3VLexerModule@@A 102f67e0     LexMetapost.obj
 0003:00262800       ?lmMMIXAL@@3VLexerModule@@A 10306800     LexMMIXAL.obj
 0003:00262820       ?lmLot@@3VLexerModule@@A   10306820     LexMPT.obj
 0003:00262840       ?lmMSSQL@@3VLexerModule@@A 10306840     LexMSSQL.obj
 0003:00272860       ?lmMySQL@@3VLexerModule@@A 10316860     LexMySQL.obj
 0003:00282880       ?lmNimrod@@3VLexerModule@@A 10326880     LexNimrod.obj
 0003:002828a0       ?lmNsis@@3VLexerModule@@A  103268a0     LexNsis.obj
 0003:002928c0       ?lmOpal@@3VLexerModule@@A  103368c0     LexOpal.obj
 0003:002928e4       ?lmErrorList@@3VLexerModule@@A 103368e4     LexOthers.obj
 0003:00292904       ?lmMake@@3VLexerModule@@A  10336904     LexOthers.obj
 0003:00292924       ?lmNull@@3VLexerModule@@A  10336924     LexOthers.obj
 0003:00292944       ?lmLatex@@3VLexerModule@@A 10336944     LexOthers.obj
 0003:00292964       ?lmDiff@@3VLexerModule@@A  10336964     LexOthers.obj
 0003:00292984       ?lmPo@@3VLexerModule@@A    10336984     LexOthers.obj
 0003:002929a4       ?lmBatch@@3VLexerModule@@A 103369a4     LexOthers.obj
 0003:002929c4       ?lmProps@@3VLexerModule@@A 103369c4     LexOthers.obj
 0003:002a29e8       ?lmPascal@@3VLexerModule@@A 103469e8     LexPascal.obj
 0003:002b2a08       ?lmPB@@3VLexerModule@@A    10356a08     LexPB.obj
 0003:002c2a28       ?lmPerl@@3VLexerModule@@A  10366a28     LexPerl.obj
 0003:002d2a48       ?lmPLM@@3VLexerModule@@A   10376a48     LexPLM.obj
 0003:002e2a68       ?lmPOV@@3VLexerModule@@A   10386a68     LexPOV.obj
 0003:002f2a88       ?lmPowerPro@@3VLexerModule@@A 10396a88     LexPowerPro.obj
 0003:00302aa8       ?lmPowerShell@@3VLexerModule@@A 103a6aa8     LexPowerShell.obj
 0003:00312ac8       ?lmProgress@@3VLexerModule@@A 103b6ac8     LexProgress.obj
 0003:00322ae8       ?lmPS@@3VLexerModule@@A    103c6ae8     LexPS.obj
 0003:00332b08       ?lmPython@@3VLexerModule@@A 103d6b08     LexPython.obj
 0003:00342b28       ?lmR@@3VLexerModule@@A     103e6b28     LexR.obj
 0003:00352b48       ?lmREBOL@@3VLexerModule@@A 103f6b48     LexRebol.obj
 0003:00352b68       ?lmRuby@@3VLexerModule@@A  103f6b68     LexRuby.obj
 0003:00352b88       ?lmScriptol@@3VLexerModule@@A 103f6b88     LexScriptol.obj
 0003:00362ba8       ?lmSmalltalk@@3VLexerModule@@A 10406ba8     LexSmalltalk.obj
 0003:00372bc8       ?lmSML@@3VLexerModule@@A   10416bc8     LexSML.obj
 0003:00382be8       ?lmSorc@@3VLexerModule@@A  10426be8     LexSorcus.obj
 0003:00392c08       ?lmSpecman@@3VLexerModule@@A 10436c08     LexSpecman.obj
 0003:003a2c28       ?lmSpice@@3VLexerModule@@A 10446c28     LexSpice.obj
 0003:003b2c48       ?lmSQL@@3VLexerModule@@A   10456c48     LexSQL.obj
 0003:003c2c68       ?lmTACL@@3VLexerModule@@A  10466c68     LexTACL.obj
 0003:003d2c88       ?lmTADS3@@3VLexerModule@@A 10476c88     LexTADS3.obj
 0003:003e2ca8       ?lmTAL@@3VLexerModule@@A   10486ca8     LexTAL.obj
 0003:003f2cc8       ?lmTCL@@3VLexerModule@@A   10496cc8     LexTCL.obj
 0003:00402ce8       ?lmTeX@@3VLexerModule@@A   104a6ce8     LexTeX.obj
 0003:00412d08       ?lmVB@@3VLexerModule@@A    104b6d08     LexVB.obj
 0003:00412d28       ?lmVBScript@@3VLexerModule@@A 104b6d28     LexVB.obj
 0003:00422d48       ?lmVerilog@@3VLexerModule@@A 104c6d48     LexVerilog.obj
 0003:00432d68       ?lmVHDL@@3VLexerModule@@A  104d6d68     LexVHDL.obj
 0003:00442d88       ?lmYAML@@3VLexerModule@@A  104e6d88     LexYAML.obj
 0003:00442dd8       ?first@FontCached@@0PAV1@A 104e6dd8     PlatWin.obj
 0003:00442ddc       ?ItemInset@ListBoxX@@0VPoint@@B 104e6ddc     PlatWin.obj
 0003:00442de4       ?hInstance@ScintillaWin@@0PAUHINSTANCE__@@A 104e6de4     ScintillaWin.obj
 0003:00442e00       ___fastflag                104e6e00     LIBCMT:_fpinit_.obj
 0003:00442e08       __aenvptr                  104e6e08     LIBCMT:dllcrt0.obj
 0003:00442e0c       __wenvptr                  104e6e0c     LIBCMT:dllcrt0.obj
 0003:00442e10       ___error_mode              104e6e10     LIBCMT:dllcrt0.obj
 0003:00442e14       ___app_type                104e6e14     LIBCMT:dllcrt0.obj
 0003:00443144       _gpFlsAlloc                104e7144     LIBCMT:tidtable.obj
 0003:00443148       _gpFlsGetValue             104e7148     LIBCMT:tidtable.obj
 0003:0044314c       _gpFlsSetValue             104e714c     LIBCMT:tidtable.obj
 0003:00443150       _gpFlsFree                 104e7150     LIBCMT:tidtable.obj
 0003:00443154       ?__pInconsistency@@3P6AXXZA 104e7154     LIBCMT:hooks.obj
 0003:00443158       ?_pnhHeap@@3P6AHI@ZA       104e7158     LIBCMT:handler.obj
 0003:00443160       ___mbulinfo                104e7160     LIBCMT:mbctype.obj
 0003:0044316c       ___mbcodepage              104e716c     LIBCMT:mbctype.obj
 0003:00443170       ___ismbcodepage            104e7170     LIBCMT:mbctype.obj
 0003:00443174       ___mblcid                  104e7174     LIBCMT:mbctype.obj
 0003:00443178       ___locale_changed          104e7178     LIBCMT:setlocal.obj
 0003:004437a8       ___pPurecall               104e77a8     LIBCMT:inithelp.obj
 0003:004437ac       ___pInvalidArgHandler      104e77ac     LIBCMT:invarg.obj
 0003:004437b0       __maxwait                  104e77b0     LIBCMT:crtheap.obj
 0003:004437b4       __umaskval                 104e77b4     LIBCMT:crt0dat.obj
 0003:004437b8       ___argc                    104e77b8     LIBCMT:crt0dat.obj
 0003:004437bc       ___argv                    104e77bc     LIBCMT:crt0dat.obj
 0003:004437c0       ___wargv                   104e77c0     LIBCMT:crt0dat.obj
 0003:004437c4       __environ                  104e77c4     LIBCMT:crt0dat.obj
 0003:004437c8       ___initenv                 104e77c8     LIBCMT:crt0dat.obj
 0003:004437cc       __wenviron                 104e77cc     LIBCMT:crt0dat.obj
 0003:004437d0       ___winitenv                104e77d0     LIBCMT:crt0dat.obj
 0003:004437d4       __pgmptr                   104e77d4     LIBCMT:crt0dat.obj
 0003:004437d8       __wpgmptr                  104e77d8     LIBCMT:crt0dat.obj
 0003:004437dc       __exitflag                 104e77dc     LIBCMT:crt0dat.obj
 0003:004437e0       __C_Termination_Done       104e77e0     LIBCMT:crt0dat.obj
 0003:004437e4       __C_Exit_Done              104e77e4     LIBCMT:crt0dat.obj
 0003:00443908       __crtheap                  104e7908     LIBCMT:heapinit.obj
 0003:00443a74       ?pArgList@UnDecorator@@0PAVReplicator@@A 104e7a74     LIBCMT:undname.obj
 0003:00443a78       ?pZNameList@UnDecorator@@0PAVReplicator@@A 104e7a78     LIBCMT:undname.obj
 0003:00443a7c       ?pTemplateArgList@UnDecorator@@0PAVReplicator@@A 104e7a7c     LIBCMT:undname.obj
 0003:00443a80       ?gName@UnDecorator@@0PBDB  104e7a80     LIBCMT:undname.obj
 0003:00443a84       ?name@UnDecorator@@0PBDB   104e7a84     LIBCMT:undname.obj
 0003:00443a88       ?outputString@UnDecorator@@0PADA 104e7a88     LIBCMT:undname.obj
 0003:00443a8c       ?maxStringLength@UnDecorator@@0HA 104e7a8c     LIBCMT:undname.obj
 0003:00443a90       ?disableFlags@UnDecorator@@0KA 104e7a90     LIBCMT:undname.obj
 0003:00443a94       ?m_pGetParameter@UnDecorator@@0P6APADJ@ZA 104e7a94     LIBCMT:undname.obj
 0003:00443a98       ?fExplicitTemplateParams@UnDecorator@@0_NA 104e7a98     LIBCMT:undname.obj
 0003:00443a99       ?fGetTemplateArgumentList@UnDecorator@@0_NA 104e7a99     LIBCMT:undname.obj
 0003:00443a9c       __newmode                  104e7a9c     LIBCMT:_newmode.obj
 0003:00443aa0       ___lconv_static_null       104e7aa0     LIBCMT:lconv.obj
 0003:00443aa4       ___lconv_static_W_null     104e7aa4     LIBCMT:lconv.obj
 0003:00443abc       __cflush                   104e7abc     LIBCMT:_file.obj
 0003:00443ac8       __outputformat             104e7ac8     LIBCMT:outputformat.obj
 0003:00443acc       __stdbuf                   104e7acc     LIBCMT:_sftbuf.obj
 0003:00443ad4       ___piob                    104e7ad4     <common>
 0003:00443ae0       __bufin                    104e7ae0     <common>
 0003:00444ae0       __nstream                  104e8ae0     <common>
 0003:00444ae4       __debugger_hook_dummy      104e8ae4     <common>
 0003:00444ae8       __nhandle                  104e8ae8     <common>
 0003:00444b00       ___pioinfo                 104e8b00     <common>
 0003:00444c00       ___env_initialized         104e8c00     <common>
 0003:00444c04       ___onexitend               104e8c04     <common>
 0003:00444c08       ___onexitbegin             104e8c08     <common>
 0003:00444c0c       ___mbctype_initialized     104e8c0c     <common>
 0003:00444c10       ___dyn_tls_init_callback   104e8c10     <common>
 0003:00444c14       ___sse2_available          104e8c14     <common>
 0003:00444c18       __acmdln                   104e8c18     <common>

 entry point at        0001:00089af5

 Static symbols

 0001:00000680       ?IsArrowCharacter@@YA_ND@Z 10001680 f   CallTip.obj
 0001:00003e10       ?isspacechar@@YA_NE@Z      10004e10 f   Document.obj
 0001:00003e30       ?IsPunctuation@@YA_ND@Z    10004e30 f   Document.obj
 0001:00003e50       ?IsADigit@@YA_ND@Z         10004e50 f   Document.obj
 0001:00003e70       ?IsLowerCase@@YA_ND@Z      10004e70 f   Document.obj
 0001:00003e90       ?IsUpperCase@@YA_ND@Z      10004e90 f   Document.obj
 0001:000040d0       ?IsSubordinate@@YA_NHH@Z   100050d0 f   Document.obj
 0001:00004350       ?IsTrailByte@@YA_NH@Z      10005350 f   Document.obj
 0001:00004360       ?BytesFromLead@@YAHH@Z     10005360 f   Document.obj
 0001:00004680       ?isindentchar@@YA_ND@Z     10005680 f   Document.obj
 0001:000046a0       ?NextTab@@YAHHH@Z          100056a0 f   Document.obj
 0001:000046b0       ?CreateIndentation@@YAXPADHHH_N@Z 100056b0 f   Document.obj
 0001:00004e00       ?MakeLowerCase@@YADD@Z     10005e00 f   Document.obj
 0001:00004e10       ?GoodTrailByte@@YA_NH@Z    10005e10 f   Document.obj
 0001:00005ae0       ?BraceOpposite@@YADD@Z     10006ae0 f   Document.obj
 0001:000094a0       ?IsEOLChar@@YA_ND@Z        1000a4a0 f   Editor.obj
 0001:000094c0       ?CanDeferToLastStep@@YA_NABVDocModification@@@Z 1000a4c0 f   Editor.obj
 0001:000094e0       ?CanEliminate@@YA_NABVDocModification@@@Z 1000a4e0 f   Editor.obj
 0001:000094f0       ?IsLastStep@@YA_NABVDocModification@@@Z 1000a4f0 f   Editor.obj
 0001:00009550       ?IsControlCharacter@@YA_NH@Z 1000a550 f   Editor.obj
 0001:0000a630       ?istrlen@@YAHPBD@Z         1000b630 f   Editor.obj
 0001:0000a6b0       ?WidthStyledText@@YAHPAVSurface@@AAVViewStyle@@HPBDPBEI@Z 1000b6b0 f   Editor.obj
 0001:0000a730       ?WidestLineWidth@@YAHPAVSurface@@AAVViewStyle@@HABUStyledText@@@Z 1000b730 f   Editor.obj
 0001:0000b290       ?GoodTrailByte@@YA_NH@Z    1000c290 f   Editor.obj
 0001:0000b5d0       ?MoveTo@Relative@?1??DrawWrapMarker@Editor@@IAEXPAVSurface@@VPRectangle@@_NVColourAllocated@@@Z@QAEXHH@Z 1000c5d0 f   Editor.obj
 0001:0000b600       ?LineTo@Relative@?1??DrawWrapMarker@Editor@@IAEXPAVSurface@@VPRectangle@@_NVColourAllocated@@@Z@QAEXHH@Z 1000c600 f   Editor.obj
 0001:0000b630       ?SimpleAlphaRectangle@@YAXPAVSurface@@VPRectangle@@VColourAllocated@@H@Z 1000c630 f   Editor.obj
 0001:0000c4f0       ?MovePositionForInsertion@@YAHHHH@Z 1000d4f0 f   Editor.obj
 0001:0000c500       ?MovePositionForDeletion@@YAHHHH@Z 1000d500 f   Editor.obj
 0001:0000ce00       ?Close@@YA_NVPoint@@0@Z    1000de00 f   Editor.obj
 0001:0000d010       ?AllowVirtualSpace@@YA_NH_N@Z 1000e010 f   Editor.obj
 0001:0000d830       ?ValidMargin@@YA_NK@Z      1000e830 f   Editor.obj
 0001:0000d840       ?CharPtrFromSPtr@@YAPADJ@Z 1000e840 f   Editor.obj
 0001:00021133       __catch$?_Copy@?$basic_string@DU?$char_traits@D@std@@V?$allocator@D@2@@std@@QAEXII@Z$0 10022133 f i Editor.obj
 0001:000211bb       __catch$?_Copy@?$basic_string@DU?$char_traits@D@std@@V?$allocator@D@2@@std@@QAEXII@Z$1 100221bb f i Editor.obj
 0001:00022041       __catch$??0?$vector@USelectionRange@@V?$allocator@USelectionRange@@@std@@@std@@QAE@ABV01@@Z$0 10023041 f i Editor.obj
 0001:00023040       ?ArrayFromWordList@@YAPAPADPADPAH_N@Z 10024040 f   KeyWords.obj
 0001:00023270       ?SortWordList@@YAXPAPADI@Z 10024270 f   KeyWords.obj
 0001:00023950       ?SetupArrays@@YAXXZ        10024950 f   LexAbaqus.obj
 0001:00023970       ?IsAKeywordChar@@YA_NH@Z   10024970 f   LexAbaqus.obj
 0001:000239a0       ?IsASetChar@@YA_NH@Z       100249a0 f   LexAbaqus.obj
 0001:000239d0       ?ColouriseABAQUSDoc@@YAXIHHQAPAVWordList@@AAVAccessor@@@Z 100249d0 f   LexAbaqus.obj
 0001:00023fb0       ?IsSpace@@YA_NH@Z          10024fb0 f   LexAbaqus.obj
 0001:00023fd0       ?IsIdentifier@@YA_NH@Z     10024fd0 f   LexAbaqus.obj
 0001:00023ff0       ?LowerCase@@YAHH@Z         10024ff0 f   LexAbaqus.obj
 0001:00024000       ?LineEnd@@YAHHAAVAccessor@@@Z 10025000 f   LexAbaqus.obj
 0001:00024030       ?LineStart@@YAHHAAVAccessor@@@Z 10025030 f   LexAbaqus.obj
 0001:00024040       ?LineType@@YAHHAAVAccessor@@@Z 10025040 f   LexAbaqus.obj
 0001:00024430       ?SafeSetLevel@@YAXHHAAVAccessor@@@Z 10025430 f   LexAbaqus.obj
 0001:00024460       ?FoldABAQUSDoc@@YAXIHHQAPAVWordList@@AAVAccessor@@@Z 10025460 f   LexAbaqus.obj
 0001:00024a40       ?SetupArrays@@YAXXZ        10025a40 f   LexAda.obj
 0001:00024a60       ?ColouriseContext@@YAXAAVStyleContext@@DH@Z 10025a60 f   LexAda.obj
 0001:00024af0       ?ColouriseComment@@YAXAAVStyleContext@@AA_N@Z 10025af0 f   LexAda.obj
 0001:00024b70       ?ColouriseDelimiter@@YAXAAVStyleContext@@AA_N@Z 10025b70 f   LexAda.obj
 0001:00024ba0       ?ColouriseString@@YAXAAVStyleContext@@AA_N@Z 10025ba0 f   LexAda.obj
 0001:00024c30       ?ColouriseWhiteSpace@@YAXAAVStyleContext@@AA_N@Z 10025c30 f   LexAda.obj
 0001:00024c60       ?IsDelimiterCharacter@@YA_NH@Z 10025c60 f   LexAda.obj
 0001:00024ce0       ?IsSeparatorOrDelimiterCharacter@@YA_NH@Z 10025ce0 f   LexAda.obj
 0001:00024d70       ?IsWordStartCharacter@@YA_NH@Z 10025d70 f   LexAda.obj
 0001:00024da0       ?ColouriseCharacter@@YAXAAVStyleContext@@AA_N@Z 10025da0 f   LexAda.obj
 0001:00024e90       ?IsWordCharacter@@YA_NH@Z  10025e90 f   LexAda.obj
 0001:00024ec0       ?IsValidIdentifier@@YA_NABV?$basic_string@DU?$char_traits@D@std@@V?$allocator@D@2@@std@@@Z 10025ec0 f   LexAda.obj
 0001:00024f90       ?IsValidNumber@@YA_NABV?$basic_string@DU?$char_traits@D@std@@V?$allocator@D@2@@std@@@Z 10025f90 f   LexAda.obj
 0001:00025250       ?ColouriseLabel@@YAXAAVStyleContext@@AAVWordList@@AA_N@Z 10026250 f   LexAda.obj
 0001:00025570       ?ColouriseNumber@@YAXAAVStyleContext@@AA_N@Z 10026570 f   LexAda.obj
 0001:00025930       ?ColouriseWord@@YAXAAVStyleContext@@AAVWordList@@AA_N@Z 10026930 f   LexAda.obj
 0001:00025bd0       ?ColouriseDocument@@YAXIHHQAPAVWordList@@AAVAccessor@@@Z 10026bd0 f   LexAda.obj
 0001:00026060       ?SetupArrays@@YAXXZ        10027060 f   LexAPDL.obj
 0001:00026080       ?IsAWordChar@@YA_NH@Z      10027080 f   LexAPDL.obj
 0001:000260b0       ?IsAnOperator@@YA_ND@Z     100270b0 f   LexAPDL.obj
 0001:00026110       ?ColouriseAPDLDoc@@YAXIHHQAPAVWordList@@AAVAccessor@@@Z 10027110 f   LexAPDL.obj
 0001:000265b0       ?IsSpace@@YA_NH@Z          100275b0 f   LexAPDL.obj
 0001:000265d0       ?IsIdentifier@@YA_NH@Z     100275d0 f   LexAPDL.obj
 0001:000265f0       ?LowerCase@@YAHH@Z         100275f0 f   LexAPDL.obj
 0001:00026600       ?CheckAPDLFoldPoint@@YAHPBDAAH@Z 10027600 f   LexAPDL.obj
 0001:00026710       ?FoldAPDLDoc@@YAXIHHQAPAVWordList@@AAVAccessor@@@Z 10027710 f   LexAPDL.obj
 0001:000269e0       ?SetupArrays@@YAXXZ        100279e0 f   LexAsm.obj
 0001:00026a00       ?IsAWordChar@@YA_NH@Z      10027a00 f   LexAsm.obj
 0001:00026a30       ?IsAWordStart@@YA_NH@Z     10027a30 f   LexAsm.obj
 0001:00026a70       ?IsAsmOperator@@YA_NH@Z    10027a70 f   LexAsm.obj
 0001:00026af0       ?ColouriseAsmDoc@@YAXIHHQAPAVWordList@@AAVAccessor@@@Z 10027af0 f   LexAsm.obj
 0001:00027020       ?SetupArrays@@YAXXZ        10028020 f   LexAsn1.obj
 0001:00027040       ?isAsn1Number@@YA_NH@Z     10028040 f   LexAsn1.obj
 0001:00027050       ?isAsn1Letter@@YA_NH@Z     10028050 f   LexAsn1.obj
 0001:00027070       ?isAsn1Char@@YA_NH@Z       10028070 f   LexAsn1.obj
 0001:000270a0       ?ColouriseAsn1Doc@@YAXIHHQAPAVWordList@@AAVAccessor@@@Z 100280a0 f   LexAsn1.obj
 0001:00027520       ?FoldAsn1Doc@@YAXIHHQAPAVWordList@@AAVAccessor@@@Z 10028520 f   LexAsn1.obj
 0001:00027540       ?SetupArrays@@YAXXZ        10028540 f   LexASY.obj
 0001:00027560       ?IsAsyCommentStyle@@YA_NH@Z 10028560 f   LexASY.obj
 0001:00027570       ?isASYidentifier@@YA_NH@Z  10028570 f   LexASY.obj
 0001:00027590       ?ParseASYWord@@YAHIAAVAccessor@@PAD@Z 10028590 f   LexASY.obj
 0001:00027660       ?IsASYDrawingLine@@YA_NHAAVAccessor@@@Z 10028660 f   LexASY.obj
 0001:00027760       ?FoldAsyDoc@@YAXIHHQAPAVWordList@@AAVAccessor@@@Z 10028760 f   LexASY.obj
 0001:00027a10       ?ColouriseAsyDoc@@YAXIHHQAPAVWordList@@AAVAccessor@@@Z 10028a10 f   LexASY.obj
 0001:00028290       ?SetupArrays@@YAXXZ        10029290 f   LexAU3.obj
 0001:000282b0       ?IsTypeCharacter@@YA_NH@Z  100292b0 f   LexAU3.obj
 0001:000282c0       ?IsAWordChar@@YA_NH@Z      100292c0 f   LexAU3.obj
 0001:000282f0       ?IsAWordStart@@YA_NH@Z     100292f0 f   LexAU3.obj
 0001:00028330       ?IsAOperator@@YA_ND@Z      10029330 f   LexAU3.obj
 0001:000283a0       ?GetSendKey@@YAHPBDPAD@Z   100293a0 f   LexAU3.obj
 0001:00028570       ?IsContinuationLine@@YA_NIAAVAccessor@@@Z 10029570 f   LexAU3.obj
 0001:00028600       ?ColouriseAU3Doc@@YAXIHHQAPAVWordList@@AAVAccessor@@@Z 10029600 f   LexAU3.obj
 0001:00029860       ?IsStreamCommentStyle@@YA_NH@Z 1002a860 f   LexAU3.obj
 0001:00029880       ?GetStyleFirstWord@@YAHIAAVAccessor@@@Z 1002a880 f   LexAU3.obj
 0001:00029900       ?FoldAU3Doc@@YAXIHHQAPAVWordList@@AAVAccessor@@@Z 1002a900 f   LexAU3.obj
 0001:0002a270       ?SetupArrays@@YAXXZ        1002b270 f   LexAVE.obj
 0001:0002a290       ?IsAWordChar@@YA_NH@Z      1002b290 f   LexAVE.obj
 0001:0002a2c0       ?IsEnumChar@@YA_NH@Z       1002b2c0 f   LexAVE.obj
 0001:0002a2f0       ?IsANumberChar@@YA_NH@Z    1002b2f0 f   LexAVE.obj
 0001:0002a320       ?ColouriseAveDoc@@YAXIHHQAPAVWordList@@AAVAccessor@@@Z 1002b320 f   LexAVE.obj
 0001:0002a7c0       ?FoldAveDoc@@YAXIHHQAPAVWordList@@AAVAccessor@@@Z 1002b7c0 f   LexAVE.obj
 0001:0002ac80       ?SetupArrays@@YAXXZ        1002bc80 f   LexBaan.obj
 0001:0002aca0       ?IsAWordChar@@YA_NH@Z      1002bca0 f   LexBaan.obj
 0001:0002ace0       ?IsAWordStart@@YA_NH@Z     1002bce0 f   LexBaan.obj
 0001:0002ad10       ?ColouriseBaanDoc@@YAXIHHQAPAVWordList@@AAVAccessor@@@Z 1002bd10 f   LexBaan.obj
 0001:0002b260       ?FoldBaanDoc@@YAXIHHQAPAVWordList@@AAVAccessor@@@Z 1002c260 f   LexBaan.obj
 0001:0002b570       ?SetupArrays@@YAXXZ        1002c570 f   LexBash.obj
 0001:0002b590       ?translateBashDigit@@YAHH@Z 1002c590 f   LexBash.obj
 0001:0002b5d0       ?getBashNumberBase@@YAHPAD@Z 1002c5d0 f   LexBash.obj
 0001:0002b610       ?opposite@@YAHH@Z          1002c610 f   LexBash.obj
 0001:0002b640       ??0HereDocCls@?1??ColouriseBashDoc@@YAXIHHQAPAVWordList@@AAVAccessor@@@Z@QAE@XZ 1002c640 f   LexBash.obj
 0001:0002b670       ?Append@HereDocCls@?1??ColouriseBashDoc@@YAXIHHQAPAVWordList@@AAVAccessor@@@Z@QAEXH@Z 1002c670 f   LexBash.obj
 0001:0002b6a0       ??1HereDocCls@?1??ColouriseBashDoc@@YAXIHHQAPAVWordList@@AAVAccessor@@@Z@QAE@XZ 1002c6a0 f   LexBash.obj
 0001:0002b6b0       ??0QuoteCls@?2??ColouriseBashDoc@@YAXIHHQAPAVWordList@@AAVAccessor@@@Z@QAE@XZ 1002c6b0 f   LexBash.obj
 0001:0002b6c0       ?Open@QuoteCls@?2??ColouriseBashDoc@@YAXIHHQAPAVWordList@@AAVAccessor@@@Z@QAEXH@Z 1002c6c0 f   LexBash.obj
 0001:0002b700       ?Start@QuoteCls@?2??ColouriseBashDoc@@YAXIHHQAPAVWordList@@AAVAccessor@@@Z@QAEXH@Z 1002c700 f   LexBash.obj
 0001:0002b750       ?IsCommentLine@@YA_NHAAVAccessor@@@Z 1002c750 f   LexBash.obj
 0001:0002b7c0       ?FoldBashDoc@@YAXIHHQAPAVWordList@@AAVAccessor@@@Z 1002c7c0 f   LexBash.obj
 0001:0002ba20       ?ColouriseBashDoc@@YAXIHHQAPAVWordList@@AAVAccessor@@@Z 1002ca20 f   LexBash.obj
 0001:0002cc10       ?SetupArrays@@YAXXZ        1002dc10 f   LexBasic.obj
 0001:0002cc30       ?IsSpace@@YA_NH@Z          1002dc30 f   LexBasic.obj
 0001:0002cc50       ?IsOperator@@YA_NH@Z       1002dc50 f   LexBasic.obj
 0001:0002cc70       ?IsIdentifier@@YA_NH@Z     1002dc70 f   LexBasic.obj
 0001:0002cc90       ?IsDigit@@YA_NH@Z          1002dc90 f   LexBasic.obj
 0001:0002ccb0       ?IsHexDigit@@YA_NH@Z       1002dcb0 f   LexBasic.obj
 0001:0002ccd0       ?IsBinDigit@@YA_NH@Z       1002dcd0 f   LexBasic.obj
 0001:0002ccf0       ?LowerCase@@YAHH@Z         1002dcf0 f   LexBasic.obj
 0001:0002cd00       ?ColouriseBasicDoc@@YAXIHHQAPAVWordList@@AAVAccessor@@D@Z 1002dd00 f   LexBasic.obj
 0001:0002d320       ?CheckBlitzFoldPoint@@YAHPBDAAH@Z 1002e320 f   LexBasic.obj
 0001:0002d410       ?CheckPureFoldPoint@@YAHPBDAAH@Z 1002e410 f   LexBasic.obj
 0001:0002d5d0       ?CheckFreeFoldPoint@@YAHPBDAAH@Z 1002e5d0 f   LexBasic.obj
 0001:0002d730       ?FoldBasicDoc@@YAXIHAAVAccessor@@P6AHPBDAAH@Z@Z 1002e730 f   LexBasic.obj
 0001:0002d9a0       ?ColouriseBlitzBasicDoc@@YAXIHHQAPAVWordList@@AAVAccessor@@@Z 1002e9a0 f   LexBasic.obj
 0001:0002d9d0       ?ColourisePureBasicDoc@@YAXIHHQAPAVWordList@@AAVAccessor@@@Z 1002e9d0 f   LexBasic.obj
 0001:0002da00       ?ColouriseFreeBasicDoc@@YAXIHHQAPAVWordList@@AAVAccessor@@@Z 1002ea00 f   LexBasic.obj
 0001:0002da30       ?FoldBlitzBasicDoc@@YAXIHHQAPAVWordList@@AAVAccessor@@@Z 1002ea30 f   LexBasic.obj
 0001:0002da50       ?FoldPureBasicDoc@@YAXIHHQAPAVWordList@@AAVAccessor@@@Z 1002ea50 f   LexBasic.obj
 0001:0002da70       ?FoldFreeBasicDoc@@YAXIHHQAPAVWordList@@AAVAccessor@@@Z 1002ea70 f   LexBasic.obj
 0001:0002da90       ?classifyWordBullant@@YAHIIAAVWordList@@AAVAccessor@@@Z 1002ea90 f   LexBullant.obj
 0001:0002de20       ?ColouriseBullantDoc@@YAXIHHQAPAVWordList@@AAVAccessor@@@Z 1002ee20 f   LexBullant.obj
 0001:0002e3e0       ?SetupArrays@@YAXXZ        1002f3e0 f   LexCaml.obj
 0001:0002ec40       ?SetupArrays@@YAXXZ        1002fc40 f   LexCLW.obj
 0001:0002ec60       ?CharacterUpper@@YADD@Z    1002fc60 f   LexCLW.obj
 0001:0002ec70       ?StringUpper@@YAXPAD@Z     1002fc70 f   LexCLW.obj
 0001:0002ec90       ?ColouriseClarionDoc@@YAXIHHQAPAVWordList@@AAVAccessor@@_N@Z 1002fc90 f   LexCLW.obj
 0001:0002f6d0       ?ColouriseClarionDocSensitive@@YAXIHHQAPAVWordList@@AAVAccessor@@@Z 100306d0 f   LexCLW.obj
 0001:0002f700       ?ColouriseClarionDocInsensitive@@YAXIHHQAPAVWordList@@AAVAccessor@@@Z 10030700 f   LexCLW.obj
 0001:0002f730       ?FillBuffer@@YAXIIAAVAccessor@@PADI@Z 10030730 f   LexCLW.obj
 0001:0002f7c0       ?ClassifyClarionFoldPoint@@YAHHPBD@Z 100307c0 f   LexCLW.obj
 0001:0002ff60       ?FoldClarionDoc@@YAXIHHQAPAVWordList@@AAVAccessor@@@Z 10030f60 f   LexCLW.obj
 0001:00030370       ?isCmakeNumber@@YA_ND@Z    10031370 f   LexCmake.obj
 0001:00030380       ?isCmakeChar@@YA_ND@Z      10031380 f   LexCmake.obj
 0001:000303b0       ?isCmakeLetter@@YA_ND@Z    100313b0 f   LexCmake.obj
 0001:000303d0       ?CmakeNextLineHasElse@@YA_NIIAAVAccessor@@@Z 100313d0 f   LexCmake.obj
 0001:000304a0       ?calculateFoldCmake@@YAHIIHAAVAccessor@@_N@Z 100314a0 f   LexCmake.obj
 0001:000306a0       ?classifyWordCmake@@YAHIIQAPAVWordList@@AAVAccessor@@@Z 100316a0 f   LexCmake.obj
 0001:000309c0       ?ColouriseCmakeDoc@@YAXIHHQAPAVWordList@@AAVAccessor@@@Z 100319c0 f   LexCmake.obj
 0001:00031050       ?FoldCmakeDoc@@YAXIHHQAPAVWordList@@AAVAccessor@@@Z 10032050 f   LexCmake.obj
 0001:00031270       ?CountBits@@YAHH@Z         10032270 f   LexCOBOL.obj
 0001:000312c0       ?getRange@@YAXIIAAVAccessor@@PADI@Z 100322c0 f   LexCOBOL.obj
 0001:00031350       ?ColourTo@@YAXAAVAccessor@@II@Z 10032350 f   LexCOBOL.obj
 0001:00031370       ?classifyWordCOBOL@@YAHIIQAPAVWordList@@AAVAccessor@@HPA_N@Z 10032370 f   LexCOBOL.obj
 0001:000315b0       ?ColouriseCOBOLDoc@@YAXIHHQAPAVWordList@@AAVAccessor@@@Z 100325b0 f   LexCOBOL.obj
 0001:00031b30       ?FoldCOBOLDoc@@YAXIHHQAPAVWordList@@AAVAccessor@@@Z 10032b30 f   LexCOBOL.obj
 0001:00031dd0       ?ColouriseConfDoc@@YAXIHHQAPAVWordList@@AAVAccessor@@@Z 10032dd0 f   LexConf.obj
 0001:00032290       ?SetupArrays@@YAXXZ        10033290 f   LexCPP.obj
 0001:000322b0       ?IsSpaceEquiv@@YA_NH@Z     100332b0 f   LexCPP.obj
 0001:000322d0       ?FollowsPostfixOperator@@YA_NAAVStyleContext@@AAVAccessor@@@Z 100332d0 f   LexCPP.obj
 0001:00032350       ?IsStreamCommentStyle@@YA_NH@Z 10033350 f   LexCPP.obj
 0001:00032370       ?FoldCppDoc@@YAXIHHQAPAVWordList@@AAVAccessor@@@Z 10033370 f   LexCPP.obj
 0001:00032760       ?ColouriseCppDoc@@YAXIHHQAPAVWordList@@AAVAccessor@@_N@Z 10033760 f   LexCPP.obj
 0001:000337e0       ?ColouriseCppDocSensitive@@YAXIHHQAPAVWordList@@AAVAccessor@@@Z 100347e0 f   LexCPP.obj
 0001:00033810       ?ColouriseCppDocInsensitive@@YAXIHHQAPAVWordList@@AAVAccessor@@@Z 10034810 f   LexCPP.obj
 0001:00033910       ?ColouriseNncrontabDoc@@YAXIHHQAPAVWordList@@AAVAccessor@@@Z 10034910 f   LexCrontab.obj
 0001:00033ef0       ?SetupArrays@@YAXXZ        10034ef0 f   LexCsound.obj
 0001:00033f10       ?IsAWordChar@@YA_NH@Z      10034f10 f   LexCsound.obj
 0001:00033f40       ?IsAWordStart@@YA_NH@Z     10034f40 f   LexCsound.obj
 0001:00033f80       ?IsCsoundOperator@@YA_ND@Z 10034f80 f   LexCsound.obj
 0001:00034000       ?ColouriseCsoundDoc@@YAXIHHQAPAVWordList@@AAVAccessor@@@Z 10035000 f   LexCsound.obj
 0001:00034510       ?FoldCsoundInstruments@@YAXIHHQAPAVWordList@@AAVAccessor@@@Z 10035510 f   LexCsound.obj
 0001:00034820       ?SetupArrays@@YAXXZ        10035820 f   LexCSS.obj
 0001:00034840       ?IsAWordChar@@YA_NI@Z      10035840 f   LexCSS.obj
 0001:00034870       ?ColouriseCssDoc@@YAXIHHQAPAVWordList@@AAVAccessor@@@Z 10035870 f   LexCSS.obj
 0001:00035480       ?FoldCSSDoc@@YAXIHHQAPAVWordList@@AAVAccessor@@@Z 10036480 f   LexCSS.obj
 0001:00035730       ?SetupArrays@@YAXXZ        10036730 f   LexD.obj
 0001:00035750       ?IsWordStart@@YA_NH@Z      10036750 f   LexD.obj
 0001:00035780       ?IsWord@@YA_NH@Z           10036780 f   LexD.obj
 0001:000357b0       ?IsDoxygen@@YA_NH@Z        100367b0 f   LexD.obj
 0001:00035810       ?IsStringSuffix@@YA_NH@Z   10036810 f   LexD.obj
 0001:00035830       ?ColouriseDoc@@YAXIHHQAPAVWordList@@AAVAccessor@@_N@Z 10036830 f   LexD.obj
 0001:00036290       ?IsStreamCommentStyle@@YA_NH@Z 10037290 f   LexD.obj
 0001:000362b0       ?FoldDoc@@YAXIHHAAVAccessor@@@Z 100372b0 f   LexD.obj
 0001:00036560       ?FoldDDoc@@YAXIHHQAPAVWordList@@AAVAccessor@@@Z 10037560 f   LexD.obj
 0001:00036580       ?ColouriseDDoc@@YAXIHHQAPAVWordList@@AAVAccessor@@@Z 10037580 f   LexD.obj
 0001:000365b0       ?SetupArrays@@YAXXZ        100375b0 f   LexEiffel.obj
 0001:000365d0       ?isEiffelOperator@@YA_NI@Z 100375d0 f   LexEiffel.obj
 0001:00036660       ?IsAWordChar@@YA_NI@Z      10037660 f   LexEiffel.obj
 0001:00036690       ?IsAWordStart@@YA_NI@Z     10037690 f   LexEiffel.obj
 0001:000366c0       ?ColouriseEiffelDoc@@YAXIHHQAPAVWordList@@AAVAccessor@@@Z 100376c0 f   LexEiffel.obj
 0001:00036a50       ?IsEiffelComment@@YA_NAAVAccessor@@HH@Z 10037a50 f   LexEiffel.obj
 0001:00036ac0       ?FoldEiffelDocIndent@@YAXIHHQAPAVWordList@@AAVAccessor@@@Z 10037ac0 f   LexEiffel.obj
 0001:00036c70       ?FoldEiffelDocKeyWords@@YAXIHHQAPAVWordList@@AAVAccessor@@@Z 10037c70 f   LexEiffel.obj
 0001:00037170       ?SetupArrays@@YAXXZ        10038170 f   LexErlang.obj
 0001:00037190       ?is_radix@@YAHHH@Z         10038190 f   LexErlang.obj
 0001:000371e0       ?IsAWordChar@@YA_NH@Z      100381e0 f   LexErlang.obj
 0001:00037210       ?ColouriseErlangDoc@@YAXIHHQAPAVWordList@@AAVAccessor@@@Z 10038210 f   LexErlang.obj
 0001:00037d50       ?ClassifyErlangFoldPoint@@YAHAAVAccessor@@HH@Z 10038d50 f   LexErlang.obj
 0001:00037df0       ?FoldErlangDoc@@YAXIHHPAPAVWordList@@AAVAccessor@@@Z 10038df0 f   LexErlang.obj
 0001:00038020       ?SetupArrays@@YAXXZ        10039020 f   LexEScript.obj
 0001:00038040       ?IsAWordChar@@YA_NH@Z      10039040 f   LexEScript.obj
 0001:00038070       ?IsAWordStart@@YA_NH@Z     10039070 f   LexEScript.obj
 0001:000380a0       ?ColouriseESCRIPTDoc@@YAXIHHQAPAVWordList@@AAVAccessor@@@Z 100390a0 f   LexEScript.obj
 0001:00038580       ?classifyFoldPointESCRIPT@@YAHPBD0@Z 10039580 f   LexEScript.obj
 0001:00038940       ?IsStreamCommentStyle@@YA_NH@Z 10039940 f   LexEScript.obj
 0001:00038960       ?FoldESCRIPTDoc@@YAXIHHQAPAVWordList@@AAVAccessor@@@Z 10039960 f   LexEScript.obj
 0001:00038d30       ?SetupArrays@@YAXXZ        10039d30 f   LexFlagship.obj
 0001:00038d50       ?IsAWordChar@@YA_NH@Z      10039d50 f   LexFlagship.obj
 0001:00038d80       ?FoldFlagShipDoc@@YAXIHHQAPAVWordList@@AAVAccessor@@@Z 10039d80 f   LexFlagship.obj
 0001:00038f30       ?ColouriseFlagShipDoc@@YAXIHHQAPAVWordList@@AAVAccessor@@@Z 10039f30 f   LexFlagship.obj
 0001:00039f40       ?SetupArrays@@YAXXZ        1003af40 f   LexForth.obj
 0001:00039f60       ?IsAWordStart@@YA_NH@Z     1003af60 f   LexForth.obj
 0001:00039f90       ?IsANumChar@@YA_NH@Z       1003af90 f   LexForth.obj
 0001:00039fc0       ?IsASpaceChar@@YA_NH@Z     1003afc0 f   LexForth.obj
 0001:00039fe0       ?ColouriseForthDoc@@YAXIHHQAPAVWordList@@AAVAccessor@@@Z 1003afe0 f   LexForth.obj
 0001:0003a6c0       ?FoldForthDoc@@YAXIHHQAPAVWordList@@AAVAccessor@@@Z 1003b6c0 f   LexForth.obj
 0001:0003a6d0       ?SetupArrays@@YAXXZ        1003b6d0 f   LexFortran.obj
 0001:0003a6f0       ?IsAWordChar@@YA_NH@Z      1003b6f0 f   LexFortran.obj
 0001:0003a720       ?IsAWordStart@@YA_NH@Z     1003b720 f   LexFortran.obj
 0001:0003a8b0       ?ColouriseFortranDoc@@YAXIHHQAPAVWordList@@AAVAccessor@@_N@Z 1003b8b0 f   LexFortran.obj
 0001:0003b340       ?classifyFoldPointFortran@@YAHPBD0D@Z 1003c340 f   LexFortran.obj
 0001:0003bb00       ?FoldFortranDoc@@YAXIHHAAVAccessor@@_N@Z 1003cb00 f   LexFortran.obj
 0001:0003c330       ?ColouriseFortranDocFreeFormat@@YAXIHHQAPAVWordList@@AAVAccessor@@@Z 1003d330 f   LexFortran.obj
 0001:0003c360       ?ColouriseFortranDocFixFormat@@YAXIHHQAPAVWordList@@AAVAccessor@@@Z 1003d360 f   LexFortran.obj
 0001:0003c390       ?FoldFortranDocFreeFormat@@YAXIHHQAPAVWordList@@AAVAccessor@@@Z 1003d390 f   LexFortran.obj
 0001:0003c3b0       ?FoldFortranDocFixFormat@@YAXIHHQAPAVWordList@@AAVAccessor@@@Z 1003d3b0 f   LexFortran.obj
 0001:0003c3d0       ?SetupArrays@@YAXXZ        1003d3d0 f   LexGAP.obj
 0001:0003c3f0       ?IsGAPOperator@@YA_ND@Z    1003d3f0 f   LexGAP.obj
 0001:0003c470       ?GetRange@@YAXIIAAVAccessor@@PADI@Z 1003d470 f   LexGAP.obj
 0001:0003c4f0       ?ColouriseGAPDoc@@YAXIHHQAPAVWordList@@AAVAccessor@@@Z 1003d4f0 f   LexGAP.obj
 0001:0003cab0       ?ClassifyFoldPointGAP@@YAHPBD@Z 1003dab0 f   LexGAP.obj
 0001:0003cc60       ?FoldGAPDoc@@YAXIHHPAPAVWordList@@AAVAccessor@@@Z 1003dc60 f   LexGAP.obj
 0001:0003cec0       ?SetupArrays@@YAXXZ        1003dec0 f   LexGui4Cli.obj
 0001:0003cee0       ?IsAWordChar@@YA_NH@Z      1003dee0 f   LexGui4Cli.obj
 0001:0003cf10       ?colorFirstWord@@YAXQAPAVWordList@@AAVAccessor@@PAVStyleContext@@PADHH@Z 1003df10 f   LexGui4Cli.obj
 0001:0003d1f0       ?ColouriseGui4CliDoc@@YAXIHHQAPAVWordList@@AAVAccessor@@@Z 1003e1f0 f   LexGui4Cli.obj
 0001:0003d670       ?FoldGui4Cli@@YAXIHHQAPAVWordList@@AAVAccessor@@@Z 1003e670 f   LexGui4Cli.obj
 0001:0003d830       ?SetupArrays@@YAXXZ        1003e830 f   LexHaskell.obj
 0001:0003d850       ?IsNewline@@YA_NH@Z        1003e850 f   LexHaskell.obj
 0001:0003d870       ?IsAWordStart@@YA_NH@Z     1003e870 f   LexHaskell.obj
 0001:0003d8a0       ?IsAWordChar@@YA_NH@Z      1003e8a0 f   LexHaskell.obj
 0001:0003d8d0       ?ColorizeHaskellDoc@@YAXIHHQAPAVWordList@@AAVAccessor@@@Z 1003e8d0 f   LexHaskell.obj
 0001:0003df30       ?IsAWordChar@@YA_NH@Z      1003ef30 f   LexHTML.obj
 0001:0003df60       ?IsAWordStart@@YA_NH@Z     1003ef60 f   LexHTML.obj
 0001:0003df90       ?MakeLowerCase@@YAHH@Z     1003ef90 f   LexHTML.obj
 0001:0003dfa0       ?GetTextSegment@@YAXAAVAccessor@@IIPADI@Z 1003efa0 f   LexHTML.obj
 0001:0003e030       ?GetNextWord@@YAPBDAAVAccessor@@IPADI@Z 1003f030 f   LexHTML.obj
 0001:0003e0e0       ?segIsScriptingIndicator@@YA?AW4script_type@@AAVAccessor@@IIW41@@Z 1003f0e0 f   LexHTML.obj
 0001:0003e250       ?PrintScriptingIndicatorOffset@@YAHAAVAccessor@@II@Z 1003f250 f   LexHTML.obj
 0001:0003e2a0       ?ScriptOfState@@YA?AW4script_type@@H@Z 1003f2a0 f   LexHTML.obj
 0001:0003e300       ?statePrintForState@@YAHHW4script_mode@@@Z 1003f300 f   LexHTML.obj
 0001:0003e330       ?stateForPrintState@@YAHH@Z 1003f330 f   LexHTML.obj
 0001:0003e350       ?IsNumber@@YA_NIAAVAccessor@@@Z 1003f350 f   LexHTML.obj
 0001:0003e410       ?isStringState@@YA_NH@Z    1003f410 f   LexHTML.obj
 0001:0003e490       ?stateAllowsTermination@@YA_NH@Z 1003f490 f   LexHTML.obj
 0001:0003e570       ?isCommentASPState@@YA_NH@Z 1003f570 f   LexHTML.obj
 0001:0003e5f0       ?classifyAttribHTML@@YAXIIAAVWordList@@AAVAccessor@@@Z 1003f5f0 f   LexHTML.obj
 0001:0003e670       ?classifyTagHTML@@YAHIIAAVWordList@@AAVAccessor@@AA_N_N33@Z 1003f670 f   LexHTML.obj
 0001:0003e8b0       ?classifyWordHTJS@@YAXIIAAVWordList@@AAVAccessor@@W4script_mode@@@Z 1003f8b0 f   LexHTML.obj
 0001:0003ea00       ?classifyWordHTVB@@YAHIIAAVWordList@@AAVAccessor@@W4script_mode@@@Z 1003fa00 f   LexHTML.obj
 0001:0003eb40       ?classifyWordHTPy@@YAXIIAAVWordList@@AAVAccessor@@PADW4script_mode@@@Z 1003fb40 f   LexHTML.obj
 0001:0003ecf0       ?classifyWordHTPHP@@YAXIIAAVWordList@@AAVAccessor@@@Z 1003fcf0 f   LexHTML.obj
 0001:0003edf0       ?isWordHSGML@@YA_NIIAAVWordList@@AAVAccessor@@@Z 1003fdf0 f   LexHTML.obj
 0001:0003ee80       ?isWordCdata@@YA_NIIAAVAccessor@@@Z 1003fe80 f   LexHTML.obj
 0001:0003ef40       ?StateForScript@@YAHW4script_type@@@Z 1003ff40 f   LexHTML.obj
 0001:0003efa0       ?issgmlwordchar@@YA_NH@Z   1003ffa0 f   LexHTML.obj
 0001:0003efe0       ?IsPhpWordStart@@YA_NH@Z   1003ffe0 f   LexHTML.obj
 0001:0003f010       ?IsPhpWordChar@@YA_NH@Z    10040010 f   LexHTML.obj
 0001:0003f050       ?InTagState@@YA_NH@Z       10040050 f   LexHTML.obj
 0001:0003f090       ?IsCommentState@@YA_NH@Z   10040090 f   LexHTML.obj
 0001:0003f0b0       ?IsScriptCommentState@@YA_NH@Z 100400b0 f   LexHTML.obj
 0001:0003f0e0       ?isLineEnd@@YA_NH@Z        100400e0 f   LexHTML.obj
 0001:0003f100       ?isOKBeforeRE@@YA_NH@Z     10040100 f   LexHTML.obj
 0001:0003f120       ?isMakoBlockEnd@@YA_NHHPBD@Z 10040120 f   LexHTML.obj
 0001:0003f2d0       ?isDjangoBlockEnd@@YA_NHHPBD@Z 100402d0 f   LexHTML.obj
 0001:0003f390       ?isPHPStringState@@YA_NH@Z 10040390 f   LexHTML.obj
 0001:0003f3b0       ?FindPhpStringDelimiter@@YAHPADHHHAAVAccessor@@AA_N@Z 100403b0 f   LexHTML.obj
 0001:0003f6a0       ?ColouriseHyperTextDoc@@YAXIHHQAPAVWordList@@AAVAccessor@@_N@Z 100406a0 f   LexHTML.obj
 0001:000436d0       ?ColouriseXMLDoc@@YAXIHHQAPAVWordList@@AAVAccessor@@@Z 100446d0 f   LexHTML.obj
 0001:00043700       ?ColouriseHTMLDoc@@YAXIHHQAPAVWordList@@AAVAccessor@@@Z 10044700 f   LexHTML.obj
 0001:00043730       ?ColourisePHPScriptDoc@@YAXIHHQAPAVWordList@@AAVAccessor@@@Z 10044730 f   LexHTML.obj
 0001:00043800       ?ColouriseInnoDoc@@YAXIHHQAPAVWordList@@AAVAccessor@@@Z 10044800 f   LexInno.obj
 0001:00043d90       ?FoldInnoDoc@@YAXIHHQAPAVWordList@@AAVAccessor@@@Z 10044d90 f   LexInno.obj
 0001:00043ee0       ?SetupArrays@@YAXXZ        10044ee0 f   LexKix.obj
 0001:00043f00       ?IsAWordChar@@YA_NH@Z      10044f00 f   LexKix.obj
 0001:00043f30       ?IsOperator@@YA_NH@Z       10044f30 f   LexKix.obj
 0001:00043f70       ?ColouriseKixDoc@@YAXIHHQAPAVWordList@@AAVAccessor@@@Z 10044f70 f   LexKix.obj
 0001:00044380       ?isLispoperator@@YA_ND@Z   10045380 f   LexLisp.obj
 0001:000443d0       ?isLispwordstart@@YA_ND@Z  100453d0 f   LexLisp.obj
 0001:00044410       ?classifyWordLisp@@YAXIIAAVWordList@@0AAVAccessor@@@Z 10045410 f   LexLisp.obj
 0001:00044540       ?ColouriseLispDoc@@YAXIHHQAPAVWordList@@AAVAccessor@@@Z 10045540 f   LexLisp.obj
 0001:00044c90       ?FoldLispDoc@@YAXIHHQAPAVWordList@@AAVAccessor@@@Z 10045c90 f   LexLisp.obj
 0001:00044e70       ?SetupArrays@@YAXXZ        10045e70 f   LexLout.obj
 0001:00044e90       ?IsAWordChar@@YA_NH@Z      10045e90 f   LexLout.obj
 0001:00044ec0       ?IsAnOther@@YA_NH@Z        10045ec0 f   LexLout.obj
 0001:00044f60       ?ColouriseLoutDoc@@YAXIHHQAPAVWordList@@AAVAccessor@@@Z 10045f60 f   LexLout.obj
 0001:00045390       ?FoldLoutDoc@@YAXIHHQAPAVWordList@@AAVAccessor@@@Z 10046390 f   LexLout.obj
 0001:000456e0       ?SetupArrays@@YAXXZ        100466e0 f   LexLua.obj
 0001:00045700       ?LongDelimCheck@@YAHAAVStyleContext@@@Z 10046700 f   LexLua.obj
 0001:000457c0       ?FoldLuaDoc@@YAXIHHQAPAVWordList@@AAVAccessor@@@Z 100467c0 f   LexLua.obj
 0001:00045c40       ?ColouriseLuaDoc@@YAXIHHQAPAVWordList@@AAVAccessor@@@Z 10046c40 f   LexLua.obj
 0001:00046820       ?SetupArrays@@YAXXZ        10047820 f   LexMagik.obj
 0001:00046840       ?IsAlphaCore@@YA_NH@Z      10047840 f   LexMagik.obj
 0001:00046860       ?IsAlpha@@YA_NH@Z          10047860 f   LexMagik.obj
 0001:00046890       ?IsAlphaSym@@YA_NH@Z       10047890 f   LexMagik.obj
 0001:000468c0       ?IsAlNum@@YA_NH@Z          100478c0 f   LexMagik.obj
 0001:000468f0       ?IsAlNumSym@@YA_NH@Z       100478f0 f   LexMagik.obj
 0001:00046930       ?ColouriseMagikDoc@@YAXIHHQAPAVWordList@@AAVAccessor@@@Z 10047930 f   LexMagik.obj
 0001:00047600       ?IsFoldingContainer@@YAHAAVWordList@@PAD@Z 10048600 f   LexMagik.obj
 0001:00047650       ?FoldMagikDoc@@YAXIHHQAPAVWordList@@AAVAccessor@@@Z 10048650 f   LexMagik.obj
 0001:00047980       ?SetupArrays@@YAXXZ        10048980 f   LexMarkdown.obj
 0001:000479a0       ?IsNewline@@YA_NH@Z        100489a0 f   LexMarkdown.obj
 0001:000479c0       ?FollowToLineEnd@@YA_NHHIAAVStyleContext@@@Z 100489c0 f   LexMarkdown.obj
 0001:00047b10       ?SetStateAndZoom@@YAXHHHAAVStyleContext@@@Z 10048b10 f   LexMarkdown.obj
 0001:00047ca0       ?HasPrevLineContent@@YA_NAAVStyleContext@@@Z 10048ca0 f   LexMarkdown.obj
 0001:00047de0       ?IsValidHrule@@YA_NIAAVStyleContext@@@Z 10048de0 f   LexMarkdown.obj
 0001:00047f10       ?ColorizeMarkdownDoc@@YAXIHHPAPAVWordList@@AAVAccessor@@@Z 10048f10 f   LexMarkdown.obj
 0001:00048c50       ?SetupArrays@@YAXXZ        10049c50 f   LexMatlab.obj
 0001:00048c70       ?IsMatlabCommentChar@@YA_NH@Z 10049c70 f   LexMatlab.obj
 0001:00048c80       ?IsOctaveCommentChar@@YA_NH@Z 10049c80 f   LexMatlab.obj
 0001:00048ca0       ?IsMatlabComment@@YA_NAAVAccessor@@HH@Z 10049ca0 f   LexMatlab.obj
 0001:00048cf0       ?IsOctaveComment@@YA_NAAVAccessor@@HH@Z 10049cf0 f   LexMatlab.obj
 0001:00048d40       ?ColouriseMatlabOctaveDoc@@YAXIHHQAPAVWordList@@AAVAccessor@@P6A_NH@Z@Z 10049d40 f   LexMatlab.obj
 0001:000491c0       ?ColouriseMatlabDoc@@YAXIHHQAPAVWordList@@AAVAccessor@@@Z 1004a1c0 f   LexMatlab.obj
 0001:000491f0       ?ColouriseOctaveDoc@@YAXIHHQAPAVWordList@@AAVAccessor@@@Z 1004a1f0 f   LexMatlab.obj
 0001:00049220       ?FoldMatlabOctaveDoc@@YAXIHHQAPAVWordList@@AAVAccessor@@P6A_N1HH@Z@Z 1004a220 f   LexMatlab.obj
 0001:000493c0       ?FoldMatlabDoc@@YAXIHHQAPAVWordList@@AAVAccessor@@@Z 1004a3c0 f   LexMatlab.obj
 0001:000493e0       ?FoldOctaveDoc@@YAXIHHQAPAVWordList@@AAVAccessor@@@Z 1004a3e0 f   LexMatlab.obj
 0001:00049400       ?SetupArrays@@YAXXZ        1004a400 f   LexMetapost.obj
 0001:00049420       ?endOfLine@@YA_NAAVAccessor@@I@Z 1004a420 f   LexMetapost.obj
 0001:000494c0       ?isMETAPOSTcomment@@YA_NH@Z 1004a4c0 f   LexMetapost.obj
 0001:000494d0       ?isMETAPOSTone@@YA_NH@Z    1004a4d0 f   LexMetapost.obj
 0001:00049520       ?isMETAPOSTtwo@@YA_NH@Z    1004a520 f   LexMetapost.obj
 0001:00049540       ?isMETAPOSTthree@@YA_NH@Z  1004a540 f   LexMetapost.obj
 0001:00049590       ?isMETAPOSTidentifier@@YA_NH@Z 1004a590 f   LexMetapost.obj
 0001:000495c0       ?isMETAPOSTnumber@@YA_NH@Z 1004a5c0 f   LexMetapost.obj
 0001:000495d0       ?isMETAPOSTstring@@YA_NH@Z 1004a5d0 f   LexMetapost.obj
 0001:000495e0       ?isMETAPOSTcolon@@YA_NH@Z  1004a5e0 f   LexMetapost.obj
 0001:000495f0       ?isMETAPOSTequal@@YA_NH@Z  1004a5f0 f   LexMetapost.obj
 0001:00049600       ?CheckMETAPOSTInterface@@YAHIHAAVAccessor@@H@Z 1004a600 f   LexMetapost.obj
 0001:000497b0       ?ColouriseMETAPOSTDoc@@YAXIHHQAPAVWordList@@AAVAccessor@@@Z 1004a7b0 f   LexMetapost.obj
 0001:00049d00       ?classifyFoldPointMetapost@@YAHPBDQAPAVWordList@@@Z 1004ad00 f   LexMetapost.obj
 0001:00049d30       ?ParseMetapostWord@@YAHIAAVAccessor@@PAD@Z 1004ad30 f   LexMetapost.obj
 0001:00049e20       ?FoldMetapostDoc@@YAXIHHQAPAVWordList@@AAVAccessor@@@Z 1004ae20 f   LexMetapost.obj
 0001:0004a090       ?SetupArrays@@YAXXZ        1004b090 f   LexMMIXAL.obj
 0001:0004a0b0       ?IsAWordChar@@YA_NH@Z      1004b0b0 f   LexMMIXAL.obj
 0001:0004a0e0       ?ColouriseMMIXALDoc@@YAXIHHQAPAVWordList@@AAVAccessor@@@Z 1004b0e0 f   LexMMIXAL.obj
 0001:0004a7a0       ?FoldLotDoc@@YAXIHHQAPAVWordList@@AAVAccessor@@@Z 1004b7a0 f   LexMPT.obj
 0001:0004a9a0       ?GetLotLineState@@YAHAAV?$basic_string@DU?$char_traits@D@std@@V?$allocator@D@2@@std@@@Z 1004b9a0 f   LexMPT.obj
 0001:0004ab00       ?ColourizeLotDoc@@YAXIHHQAPAVWordList@@AAVAccessor@@@Z 1004bb00 f   LexMPT.obj
 0001:0004adb0       ?isMSSQLOperator@@YA_ND@Z  1004bdb0 f   LexMSSQL.obj
 0001:0004ae20       ?classifyWordSQL@@YADIIQAPAVWordList@@AAVAccessor@@II@Z 1004be20 f   LexMSSQL.obj
 0001:0004b150       ?ColouriseMSSQLDoc@@YAXIHHQAPAVWordList@@AAVAccessor@@@Z 1004c150 f   LexMSSQL.obj
 0001:0004b700       ?FoldMSSQLDoc@@YAXIHHQAPAVWordList@@AAVAccessor@@@Z 1004c700 f   LexMSSQL.obj
 0001:0004ba90       ?SetupArrays@@YAXXZ        1004ca90 f   LexMySQL.obj
 0001:0004bab0       ?IsAWordChar@@YA_NH@Z      1004cab0 f   LexMySQL.obj
 0001:0004bae0       ?IsAWordStart@@YA_NH@Z     1004cae0 f   LexMySQL.obj
 0001:0004bb10       ?IsANumberChar@@YA_NH@Z    1004cb10 f   LexMySQL.obj
 0001:0004bb50       ?CheckForKeyword@@YAXAAVStyleContext@@QAPAVWordList@@@Z 1004cb50 f   LexMySQL.obj
 0001:0004bc90       ?ColouriseMySQLDoc@@YAXIHHQAPAVWordList@@AAVAccessor@@@Z 1004cc90 f   LexMySQL.obj
 0001:0004c290       ?IsStreamCommentStyle@@YA_NH@Z 1004d290 f   LexMySQL.obj
 0001:0004c330       ?FoldMySQLDoc@@YAXIHHQAPAVWordList@@AAVAccessor@@@Z 1004d330 f   LexMySQL.obj
 0001:0004c790       ?IsAWordChar@@YA_NH@Z      1004d790 f   LexNimrod.obj
 0001:0004c7c0       ?tillEndOfTripleQuote@@YAHAAVAccessor@@HH@Z 1004d7c0 f   LexNimrod.obj
 0001:0004c820       ?isNewLine@@YA_NH@Z        1004d820 f   LexNimrod.obj
 0001:0004c840       ?scanString@@YAHAAVAccessor@@HH_N@Z 1004d840 f   LexNimrod.obj
 0001:0004c8b0       ?scanChar@@YAHAAVAccessor@@HH@Z 1004d8b0 f   LexNimrod.obj
 0001:0004c970       ?scanIdent@@YAHAAVAccessor@@HAAVWordList@@@Z 1004d970 f   LexNimrod.obj
 0001:0004ca60       ?scanNumber@@YAHAAVAccessor@@H@Z 1004da60 f   LexNimrod.obj
 0001:0004cd90       ?ColouriseNimrodDoc@@YAXIHHQAPAVWordList@@AAVAccessor@@@Z 1004dd90 f   LexNimrod.obj
 0001:0004d150       ?IsCommentLine@@YA_NHAAVAccessor@@@Z 1004e150 f   LexNimrod.obj
 0001:0004d1c0       ?IsQuoteLine@@YA_NHAAVAccessor@@@Z 1004e1c0 f   LexNimrod.obj
 0001:0004d1f0       ?FoldNimrodDoc@@YAXIHHQAPAVWordList@@AAVAccessor@@@Z 1004e1f0 f   LexNimrod.obj
 0001:0004d5e0       ?isNsisNumber@@YA_ND@Z     1004e5e0 f   LexNsis.obj
 0001:0004d5f0       ?isNsisChar@@YA_ND@Z       1004e5f0 f   LexNsis.obj
 0001:0004d620       ?isNsisLetter@@YA_ND@Z     1004e620 f   LexNsis.obj
 0001:0004d640       ?NsisNextLineHasElse@@YA_NIIAAVAccessor@@@Z 1004e640 f   LexNsis.obj
 0001:0004d700       ?NsisCmp@@YAHPBD0_N@Z      1004e700 f   LexNsis.obj
 0001:0004d740       ?calculateFoldNsis@@YAHIIHAAVAccessor@@_N1@Z 1004e740 f   LexNsis.obj
 0001:0004dbf0       ?classifyWordNsis@@YAHIIQAPAVWordList@@AAVAccessor@@@Z 1004ebf0 f   LexNsis.obj
 0001:0004e200       ?ColouriseNsisDoc@@YAXIHHQAPAVWordList@@AAVAccessor@@@Z 1004f200 f   LexNsis.obj
 0001:0004e910       ?FoldNsisDoc@@YAXIHHQAPAVWordList@@AAVAccessor@@@Z 1004f910 f   LexNsis.obj
 0001:0004ec00       ?getRange@@YAXIIAAVAccessor@@PADI@Z 1004fc00 f   LexOpal.obj
 0001:0004ec80       ?ColouriseOpalDoc@@YAXIHHQAPAVWordList@@AAVAccessor@@@Z 1004fc80 f   LexOpal.obj
 0001:0004f650       ?strstart@@YA_NPBD0@Z      10050650 f   LexOthers.obj
 0001:0004f680       ?Is0To9@@YA_ND@Z           10050680 f   LexOthers.obj
 0001:0004f690       ?Is1To9@@YA_ND@Z           10050690 f   LexOthers.obj
 0001:0004f6a0       ?IsAlphabetic@@YA_NH@Z     100506a0 f   LexOthers.obj
 0001:0004f6c0       ?AtEOL@@YA_NAAVAccessor@@I@Z 100506c0 f   LexOthers.obj
 0001:0004f760       ?IsBOperator@@YA_ND@Z      10050760 f   LexOthers.obj
 0001:0004f790       ?IsBSeparator@@YA_ND@Z     10050790 f   LexOthers.obj
 0001:0004f7c0       ?ColouriseBatchLine@@YAXPADIIIQAPAVWordList@@AAVAccessor@@@Z 100507c0 f   LexOthers.obj
 0001:000502c0       ?ColouriseBatchDoc@@YAXIHHQAPAVWordList@@AAVAccessor@@@Z 100512c0 f   LexOthers.obj
 0001:000503e0       ?ColouriseDiffLine@@YAXPADHAAVAccessor@@@Z 100513e0 f   LexOthers.obj
 0001:000505c0       ?ColouriseDiffDoc@@YAXIHHQAPAVWordList@@AAVAccessor@@@Z 100515c0 f   LexOthers.obj
 0001:00050690       ?FoldDiffDoc@@YAXIHHQAPAVWordList@@AAVAccessor@@@Z 10051690 f   LexOthers.obj
 0001:000507a0       ?ColourisePoLine@@YAXPADIIIAAVAccessor@@@Z 100517a0 f   LexOthers.obj
 0001:000508f0       ?ColourisePoDoc@@YAXIHHQAPAVWordList@@AAVAccessor@@@Z 100518f0 f   LexOthers.obj
 0001:00050a30       ?isassignchar@@YA_NE@Z     10051a30 f   LexOthers.obj
 0001:00050a50       ?ColourisePropsLine@@YAXPADIIIAAVAccessor@@_N@Z 10051a50 f   LexOthers.obj
 0001:00050ba0       ?ColourisePropsDoc@@YAXIHHQAPAVWordList@@AAVAccessor@@@Z 10051ba0 f   LexOthers.obj
 0001:00050cf0       ?FoldPropsDoc@@YAXIHHQAPAVWordList@@AAVAccessor@@@Z 10051cf0 f   LexOthers.obj
 0001:00050ef0       ?ColouriseMakeLine@@YAXPADIIIAAVAccessor@@@Z 10051ef0 f   LexOthers.obj
 0001:000510f0       ?ColouriseMakeDoc@@YAXIHHQAPAVWordList@@AAVAccessor@@@Z 100520f0 f   LexOthers.obj
 0001:000511f0       ?RecogniseErrorListLine@@YAHPBDIAAH@Z 100521f0 f   LexOthers.obj
 0001:000519d0       ?ColouriseErrorListLine@@YAXPADIIAAVAccessor@@_N@Z 100529d0 f   LexOthers.obj
 0001:00051a30       ?ColouriseErrorListDoc@@YAXIHHQAPAVWordList@@AAVAccessor@@@Z 10052a30 f   LexOthers.obj
 0001:00051bb0       ?isSpecial@@YAHD@Z         10052bb0 f   LexOthers.obj
 0001:00051be0       ?isTag@@YAHHAAVAccessor@@@Z 10052be0 f   LexOthers.obj
 0001:00051cf0       ?ColouriseLatexDoc@@YAXIHHQAPAVWordList@@AAVAccessor@@@Z 10052cf0 f   LexOthers.obj
 0001:00051fe0       ?ColouriseNullDoc@@YAXIHHQAPAVWordList@@AAVAccessor@@@Z 10052fe0 f   LexOthers.obj
 0001:00052020       ?SetupArrays@@YAXXZ        10053020 f   LexPascal.obj
 0001:00052040       ?GetRangeLowered@@YAXIIAAVAccessor@@PADI@Z 10053040 f   LexPascal.obj
 0001:000520d0       ?GetForwardRangeLowered@@YAXIAAVCharacterSet@@AAVAccessor@@PADI@Z 100530d0 f   LexPascal.obj
 0001:000521c0       ?ClassifyPascalWord@@YAXQAPAVWordList@@AAVStyleContext@@AAH_N@Z 100531c0 f   LexPascal.obj
 0001:00052620       ?IsStreamCommentStyle@@YA_NH@Z 10053620 f   LexPascal.obj
 0001:00052640       ?IsCommentLine@@YA_NHAAVAccessor@@@Z 10053640 f   LexPascal.obj
 0001:00052730       ?GetFoldInPreprocessorLevelFlag@@YAIH@Z 10053730 f   LexPascal.obj
 0001:00052740       ?SetFoldInPreprocessorLevelFlag@@YAXAAHI@Z 10053740 f   LexPascal.obj
 0001:00052750       ?ColourisePascalDoc@@YAXIHHQAPAVWordList@@AAVAccessor@@@Z 10053750 f   LexPascal.obj
 0001:00052e40       ?ClassifyPascalPreprocessorFoldPoint@@YAXAAH0IAAVAccessor@@@Z 10053e40 f   LexPascal.obj
 0001:00053110       ?SkipWhiteSpace@@YAIIIAAVAccessor@@_N@Z 10054110 f   LexPascal.obj
 0001:000532d0       ?ClassifyPascalWordFoldPoint@@YAXAAH0HIIIAAVAccessor@@@Z 100542d0 f   LexPascal.obj
 0001:000538b0       ?FoldPascalDoc@@YAXIHHQAPAVWordList@@AAVAccessor@@@Z 100548b0 f   LexPascal.obj
 0001:00053d60       ?SetupArrays@@YAXXZ        10054d60 f   LexPB.obj
 0001:00053d80       ?IsTypeCharacter@@YA_NH@Z  10054d80 f   LexPB.obj
 0001:00053db0       ?IsAWordChar@@YA_NH@Z      10054db0 f   LexPB.obj
 0001:00053de0       ?IsAWordStart@@YA_NH@Z     10054de0 f   LexPB.obj
 0001:00053e90       ?ColourisePBDoc@@YAXIHHQAPAVWordList@@AAVAccessor@@@Z 10054e90 f   LexPB.obj
 0001:00054380       ?FoldPBDoc@@YAXIHHQAPAVWordList@@AAVAccessor@@@Z 10055380 f   LexPB.obj
 0001:00054730       ?SetupArrays@@YAXXZ        10055730 f   LexPerl.obj
 0001:00054750       ?isPerlKeyword@@YA_NIIAAVWordList@@AAVAccessor@@@Z 10055750 f   LexPerl.obj
 0001:000547e0       ?disambiguateBareword@@YAHAAVAccessor@@IIHII@Z 100557e0 f   LexPerl.obj
 0001:00054960       ?skipWhitespaceComment@@YAXAAVAccessor@@AAI@Z 10055960 f   LexPerl.obj
 0001:00054990       ?styleBeforeBracePair@@YAHAAVAccessor@@I@Z 10055990 f   LexPerl.obj
 0001:00054a40       ?styleCheckIdentifier@@YAHAAVAccessor@@I@Z 10055a40 f   LexPerl.obj
 0001:00054b00       ?inputsymbolScan@@YAHAAVAccessor@@II@Z 10055b00 f   LexPerl.obj
 0001:00054b80       ?podLineScan@@YAHAAVAccessor@@AAII@Z 10055b80 f   LexPerl.obj
 0001:00054c90       ?styleCheckSubPrototype@@YA_NAAVAccessor@@I@Z 10055c90 f   LexPerl.obj
 0001:00054d40       ?isMatch@@YA_NPBDPAD@Z     10055d40 f   LexPerl.obj
 0001:00054db0       ?actualNumStyle@@YAHH@Z    10055db0 f   LexPerl.obj
 0001:00054dd0       ?opposite@@YAHH@Z          10055dd0 f   LexPerl.obj
 0001:00054e00       ??0HereDocCls@?1??ColourisePerlDoc@@YAXIHHQAPAVWordList@@AAVAccessor@@@Z@QAE@XZ 10055e00 f   LexPerl.obj
 0001:00054e30       ?Append@HereDocCls@?1??ColourisePerlDoc@@YAXIHHQAPAVWordList@@AAVAccessor@@@Z@QAEXH@Z 10055e30 f   LexPerl.obj
 0001:00054e60       ??1HereDocCls@?1??ColourisePerlDoc@@YAXIHHQAPAVWordList@@AAVAccessor@@@Z@QAE@XZ 10055e60 f   LexPerl.obj
 0001:00054e70       ?New@QuoteCls@?2??ColourisePerlDoc@@YAXIHHQAPAVWordList@@AAVAccessor@@@Z@QAEXH@Z 10055e70 f   LexPerl.obj
 0001:00054e80       ?Open@QuoteCls@?2??ColourisePerlDoc@@YAXIHHQAPAVWordList@@AAVAccessor@@@Z@QAEXH@Z 10055e80 f   LexPerl.obj
 0001:00054ec0       ?IsCommentLine@@YA_NHAAVAccessor@@@Z 10055ec0 f   LexPerl.obj
 0001:00054f50       ?FoldPerlDoc@@YAXIHHQAPAVWordList@@AAVAccessor@@@Z 10055f50 f   LexPerl.obj
 0001:000553a0       ??0QuoteCls@?2??ColourisePerlDoc@@YAXIHHQAPAVWordList@@AAVAccessor@@@Z@QAE@XZ 100563a0 f   LexPerl.obj
 0001:000553c0       ?ColourisePerlDoc@@YAXIHHQAPAVWordList@@AAVAccessor@@@Z 100563c0 f   LexPerl.obj
 0001:00057f50       ?GetRange@@YAXIIAAVAccessor@@PADI@Z 10058f50 f   LexPLM.obj
 0001:00057fe0       ?ColourisePlmDoc@@YAXIHHQAPAVWordList@@AAVAccessor@@@Z 10058fe0 f   LexPLM.obj
 0001:00058410       ?FoldPlmDoc@@YAXIHHQAPAVWordList@@AAVAccessor@@@Z 10059410 f   LexPLM.obj
 0001:000587e0       ?SetupArrays@@YAXXZ        100597e0 f   LexPOV.obj
 0001:00058800       ?IsAWordChar@@YA_NH@Z      10059800 f   LexPOV.obj
 0001:00058830       ?IsAWordStart@@YA_NH@Z     10059830 f   LexPOV.obj
 0001:00058850       ?IsANumberChar@@YA_NH@Z    10059850 f   LexPOV.obj
 0001:00058890       ?ColourisePovDoc@@YAXIHHQAPAVWordList@@AAVAccessor@@@Z 10059890 f   LexPOV.obj
 0001:00058f50       ?FoldPovDoc@@YAXIHHQAPAVWordList@@AAVAccessor@@@Z 10059f50 f   LexPOV.obj
 0001:00059260       ?SetupArrays@@YAXXZ        1005a260 f   LexPowerPro.obj
 0001:00059280       ?IsStreamCommentStyle@@YA_NH@Z 1005a280 f   LexPowerPro.obj
 0001:00059290       ?IsContinuationLine@@YA_NIAAVAccessor@@@Z 1005a290 f   LexPowerPro.obj
 0001:00059400       ?GetStyleFirstWord@@YAHIAAVAccessor@@@Z 1005a400 f   LexPowerPro.obj
 0001:000594b0       ?HasFunction@@YA_NAAVAccessor@@I@Z 1005a4b0 f   LexPowerPro.obj
 0001:00059690       ?ColourisePowerProDoc@@YAXIHHQAPAVWordList@@AAVAccessor@@_N@Z 1005a690 f   LexPowerPro.obj
 0001:0005a0b0       ?FoldPowerProDoc@@YAXIHHQAPAVWordList@@AAVAccessor@@@Z 1005b0b0 f   LexPowerPro.obj
 0001:0005a8a0       ?ColourisePowerProDocWrapper@@YAXIHHQAPAVWordList@@AAVAccessor@@@Z 1005b8a0 f   LexPowerPro.obj
 0001:0005a8d0       ?SetupArrays@@YAXXZ        1005b8d0 f   LexPowerShell.obj
 0001:0005a8f0       ?IsAWordChar@@YA_NH@Z      1005b8f0 f   LexPowerShell.obj
 0001:0005a920       ?ColourisePowerShellDoc@@YAXIHHQAPAVWordList@@AAVAccessor@@@Z 1005b920 f   LexPowerShell.obj
 0001:0005acc0       ?FoldPowerShellDoc@@YAXIHHQAPAVWordList@@AAVAccessor@@@Z 1005bcc0 f   LexPowerShell.obj
 0001:0005aec0       ?SetupArrays@@YAXXZ        1005bec0 f   LexProgress.obj
 0001:0005aee0       ?IsAWordChar@@YA_NH@Z      1005bee0 f   LexProgress.obj
 0001:0005af10       ?IsAWordStart@@YA_NH@Z     1005bf10 f   LexProgress.obj
 0001:0005af40       ?Colourise4glDoc@@YAXIHHQAPAVWordList@@AAVAccessor@@@Z 1005bf40 f   LexProgress.obj
 0001:0005b740       ?IsStreamCommentStyle@@YA_NH@Z 1005c740 f   LexProgress.obj
 0001:0005b750       ?FoldNoBox4glDoc@@YAXIHHAAVAccessor@@@Z 1005c750 f   LexProgress.obj
 0001:0005b9d0       ?Fold4glDoc@@YAXIHHQAPAVWordList@@AAVAccessor@@@Z 1005c9d0 f   LexProgress.obj
 0001:0005b9f0       ?SetupArrays@@YAXXZ        1005c9f0 f   LexPS.obj
 0001:0005ba10       ?IsASelfDelimitingChar@@YA_NH@Z 1005ca10 f   LexPS.obj
 0001:0005ba50       ?IsAWhitespaceChar@@YA_NH@Z 1005ca50 f   LexPS.obj
 0001:0005ba80       ?IsABaseNDigit@@YA_NHH@Z   1005ca80 f   LexPS.obj
 0001:0005bad0       ?IsABase85Char@@YA_NH@Z    1005cad0 f   LexPS.obj
 0001:0005baf0       ?ColourisePSDoc@@YAXIHHQAPAVWordList@@AAVAccessor@@@Z 1005caf0 f   LexPS.obj
 0001:0005c5d0       ?FoldPSDoc@@YAXIHHQAPAVWordList@@AAVAccessor@@@Z 1005d5d0 f   LexPS.obj
 0001:0005c7e0       ?SetupArrays@@YAXXZ        1005d7e0 f   LexPython.obj
 0001:0005c800       ?IsPyComment@@YA_NAAVAccessor@@HH@Z 1005d800 f   LexPython.obj
 0001:0005c850       ?IsPyStringTypeChar@@YA_NHW4literalsAllowed@@@Z 1005d850 f   LexPython.obj
 0001:0005c880       ?IsPyStringStart@@YA_NHHHW4literalsAllowed@@@Z 1005d880 f   LexPython.obj
 0001:0005c8f0       ?GetPyStringState@@YAHAAVAccessor@@HPAIW4literalsAllowed@@@Z 1005d8f0 f   LexPython.obj
 0001:0005caf0       ?IsAWordChar@@YA_NH@Z      1005daf0 f   LexPython.obj
 0001:0005cb20       ?IsAWordStart@@YA_NH@Z     1005db20 f   LexPython.obj
 0001:0005cb50       ?ColourisePyDoc@@YAXIHHQAPAVWordList@@AAVAccessor@@@Z 1005db50 f   LexPython.obj
 0001:0005d6f0       ?IsCommentLine@@YA_NHAAVAccessor@@@Z 1005e6f0 f   LexPython.obj
 0001:0005d760       ?IsQuoteLine@@YA_NHAAVAccessor@@@Z 1005e760 f   LexPython.obj
 0001:0005d790       ?FoldPyDoc@@YAXIHHQAPAVWordList@@AAVAccessor@@@Z 1005e790 f   LexPython.obj
 0001:0005dbd0       ?SetupArrays@@YAXXZ        1005ebd0 f   LexR.obj
 0001:0005dbf0       ?IsAWordChar@@YA_NH@Z      1005ebf0 f   LexR.obj
 0001:0005dc20       ?IsAWordStart@@YA_NH@Z     1005ec20 f   LexR.obj
 0001:0005dc50       ?IsAnOperator@@YA_NH@Z     1005ec50 f   LexR.obj
 0001:0005dce0       ?ColouriseRDoc@@YAXIHHQAPAVWordList@@AAVAccessor@@@Z 1005ece0 f   LexR.obj
 0001:0005e0f0       ?FoldRDoc@@YAXIHHQAPAVWordList@@AAVAccessor@@@Z 1005f0f0 f   LexR.obj
 0001:0005e2f0       ?SetupArrays@@YAXXZ        1005f2f0 f   LexRebol.obj
 0001:0005e310       ?IsAWordChar@@YA_NH@Z      1005f310 f   LexRebol.obj
 0001:0005e360       ?IsAWordStart@@YA_NHH@Z    1005f360 f   LexRebol.obj
 0001:0005e3c0       ?IsAnOperator@@YA_NHHH@Z   1005f3c0 f   LexRebol.obj
 0001:0005e460       ?IsBinaryStart@@YA_NHHHH@Z 1005f460 f   LexRebol.obj
 0001:0005e4c0       ?ColouriseRebolDoc@@YAXIHHQAPAVWordList@@AAVAccessor@@@Z 1005f4c0 f   LexRebol.obj
 0001:0005eee0       ?FoldRebolDoc@@YAXIHHQAPAVWordList@@AAVAccessor@@@Z 1005fee0 f   LexRebol.obj
 0001:0005f0b0       ?isEOLChar@@YA_ND@Z        100600b0 f   LexRuby.obj
 0001:0005f0d0       ?isSafeAlpha@@YA_ND@Z      100600d0 f   LexRuby.obj
 0001:0005f100       ?isSafeAlnum@@YA_ND@Z      10060100 f   LexRuby.obj
 0001:0005f130       ?isSafeAlnumOrHigh@@YA_ND@Z 10060130 f   LexRuby.obj
 0001:0005f160       ?isSafeDigit@@YA_ND@Z      10060160 f   LexRuby.obj
 0001:0005f180       ?isSafeWordcharOrHigh@@YA_ND@Z 10060180 f   LexRuby.obj
 0001:0005f1b0       ?iswhitespace@@YA_ND@Z     100601b0 f   LexRuby.obj
 0001:0005f1d0       ?followsDot@@YA_NIAAVAccessor@@@Z 100601d0 f   LexRuby.obj
 0001:0005f260       ?isMatch@@YA_NAAVAccessor@@HHPBD@Z 10060260 f   LexRuby.obj
 0001:0005f2d0       ?lookingAtHereDocDelim@@YA_NAAVAccessor@@HHPBD@Z 100602d0 f   LexRuby.obj
 0001:0005f340       ?opposite@@YADD@Z          10060340 f   LexRuby.obj
 0001:0005f360       ?redo_char@@YAXAAHAAD110@Z 10060360 f   LexRuby.obj
 0001:0005f380       ?advance_char@@YAXAAHAAD11@Z 10060380 f   LexRuby.obj
 0001:0005f3a0       ?currLineContainsHereDelims@@YA_NAAHAAVAccessor@@@Z 100603a0 f   LexRuby.obj
 0001:0005f420       ?enterInnerExpression@@YAXPAH0PAVQuoteCls@@AAH22V1@@Z 10060420 f   LexRuby.obj
 0001:0005f470       ?exitInnerExpression@@YAXPAH0PAVQuoteCls@@AAH22AAV1@@Z 10060470 f   LexRuby.obj
 0001:0005f4b0       ?isEmptyLine@@YA_NHAAVAccessor@@@Z 100604b0 f   LexRuby.obj
 0001:0005f4e0       ?RE_CanFollowKeyword@@YA_NPBD@Z 100604e0 f   LexRuby.obj
 0001:0005f800       ?skipWhitespace@@YAHHHAAVAccessor@@@Z 10060800 f   LexRuby.obj
 0001:0005f850       ?sureThisIsHeredoc@@YA_NHAAVAccessor@@PAD@Z 10060850 f   LexRuby.obj
 0001:0005f9a0       ?haveTargetMatch@@YA_NHHHHAAVAccessor@@@Z 100609a0 f   LexRuby.obj
 0001:0005fa40       ?sureThisIsNotHeredoc@@YA_NHAAVAccessor@@@Z 10060a40 f   LexRuby.obj
 0001:0005fe50       ?synchronizeDocStart@@YAXAAIAAH1AAVAccessor@@_N@Z 10060e50 f   LexRuby.obj
 0001:00060010       ??0HereDocCls@?1??ColouriseRbDoc@@YAXIHHQAPAVWordList@@AAVAccessor@@@Z@QAE@XZ 10061010 f   LexRuby.obj
 0001:00060030       ?getPrevWord@@YAXHPADAAVAccessor@@H@Z 10061030 f   LexRuby.obj
 0001:000600b0       ?keywordIsAmbiguous@@YA_NPBD@Z 100610b0 f   LexRuby.obj
 0001:000601c0       ?keywordDoStartsLoop@@YA_NHAAVAccessor@@@Z 100611c0 f   LexRuby.obj
 0001:00060370       ?FoldRbDoc@@YAXIHHQAPAVWordList@@AAVAccessor@@@Z 10061370 f   LexRuby.obj
 0001:00060a20       ?keywordIsModifier@@YA_NPBDHAAVAccessor@@@Z 10061a20 f   LexRuby.obj
 0001:00060c20       ?ClassifyWordRb@@YAHIIAAVWordList@@AAVAccessor@@PAD@Z 10061c20 f   LexRuby.obj
 0001:00060e30       ?ColouriseRbDoc@@YAXIHHQAPAVWordList@@AAVAccessor@@@Z 10061e30 f   LexRuby.obj
 0001:000627b0       ?ClassifyWordSol@@YAXIIAAVWordList@@AAVAccessor@@PAD@Z 100637b0 f   LexScriptol.obj
 0001:00062950       ?IsSolComment@@YA_NAAVAccessor@@HH@Z 10063950 f   LexScriptol.obj
 0001:000629c0       ?IsSolStringStart@@YA_ND@Z 100639c0 f   LexScriptol.obj
 0001:000629d0       ?IsSolWordStart@@YA_ND@Z   100639d0 f   LexScriptol.obj
 0001:00062a10       ?GetSolStringState@@YAHAAVAccessor@@HPAH@Z 10063a10 f   LexScriptol.obj
 0001:00062b30       ?ColouriseSolDoc@@YAXIHHQAPAVWordList@@AAVAccessor@@@Z 10063b30 f   LexScriptol.obj
 0001:00063250       ?FoldSolDoc@@YAXIHHQAPAVWordList@@AAVAccessor@@@Z 10064250 f   LexScriptol.obj
 0001:00063460       ?SetupArrays@@YAXXZ        10064460 f   LexSmalltalk.obj
 0001:00063480       ?isDecDigit@@YA_NH@Z       10064480 f   LexSmalltalk.obj
 0001:000634a0       ?isLetter@@YA_NH@Z         100644a0 f   LexSmalltalk.obj
 0001:000634c0       ?isSpecial@@YA_NH@Z        100644c0 f   LexSmalltalk.obj
 0001:000634e0       ?isUpper@@YA_NH@Z          100644e0 f   LexSmalltalk.obj
 0001:00063500       ?isBinSel@@YA_NH@Z         10064500 f   LexSmalltalk.obj
 0001:00063520       ?isAlphaNumeric@@YA_NH@Z   10064520 f   LexSmalltalk.obj
 0001:00063550       ?isDigitOfRadix@@YA_NHH@Z  10064550 f   LexSmalltalk.obj
 0001:00063590       ?skipComment@@YAXAAVStyleContext@@@Z 10064590 f   LexSmalltalk.obj
 0001:00063600       ?skipString@@YAXAAVStyleContext@@@Z 10064600 f   LexSmalltalk.obj
 0001:000636c0       ?handleHash@@YAXAAVStyleContext@@@Z 100646c0 f   LexSmalltalk.obj
 0001:00063810       ?handleSpecial@@YAXAAVStyleContext@@@Z 10064810 f   LexSmalltalk.obj
 0001:00063880       ?skipInt@@YAXAAVStyleContext@@H@Z 10064880 f   LexSmalltalk.obj
 0001:00063920       ?handleNumeric@@YAXAAVStyleContext@@@Z 10064920 f   LexSmalltalk.obj
 0001:00063bc0       ?handleBinSel@@YAXAAVStyleContext@@@Z 10064bc0 f   LexSmalltalk.obj
 0001:00063c50       ?handleLetter@@YAXAAVStyleContext@@PAVWordList@@@Z 10064c50 f   LexSmalltalk.obj
 0001:00063f50       ?colorizeSmalltalkDoc@@YAXIHHQAPAVWordList@@AAVAccessor@@@Z 10064f50 f   LexSmalltalk.obj
 0001:00064200       ?SetupArrays@@YAXXZ        10065200 f   LexSML.obj
 0001:000648e0       ?SetupArrays@@YAXXZ        100658e0 f   LexSorcus.obj
 0001:00064900       ?IsSWordStart@@YA_NHH@Z    10065900 f   LexSorcus.obj
 0001:00064930       ?IsSorcusNumber@@YA_NHH@Z  10065930 f   LexSorcus.obj
 0001:00064950       ?IsSorcusOperator@@YA_NH@Z 10065950 f   LexSorcus.obj
 0001:00064960       ?ColouriseSorcusDoc@@YAXIHHQAPAVWordList@@AAVAccessor@@@Z 10065960 f   LexSorcus.obj
 0001:00064d00       ?SetupArrays@@YAXXZ        10065d00 f   LexSpecman.obj
 0001:00064d20       ?IsAWordChar@@YA_NH@Z      10065d20 f   LexSpecman.obj
 0001:00064d50       ?IsANumberChar@@YA_NH@Z    10065d50 f   LexSpecman.obj
 0001:00064d80       ?IsAWordStart@@YA_NH@Z     10065d80 f   LexSpecman.obj
 0001:00064db0       ?ColouriseSpecmanDoc@@YAXIHHQAPAVWordList@@AAVAccessor@@_N@Z 10065db0 f   LexSpecman.obj
 0001:00065440       ?FoldNoBoxSpecmanDoc@@YAXIHHAAVAccessor@@@Z 10066440 f   LexSpecman.obj
 0001:000656e0       ?FoldSpecmanDoc@@YAXIHHQAPAVWordList@@AAVAccessor@@@Z 100666e0 f   LexSpecman.obj
 0001:00065700       ?ColouriseSpecmanDocSensitive@@YAXIHHQAPAVWordList@@AAVAccessor@@@Z 10066700 f   LexSpecman.obj
 0001:00065730       ?SetupArrays@@YAXXZ        10066730 f   LexSpice.obj
 0001:00065750       ?ColouriseComment@@YAXAAVStyleContext@@AA_N@Z 10066750 f   LexSpice.obj
 0001:000657d0       ?ColouriseDelimiter@@YAXAAVStyleContext@@AA_N@Z 100667d0 f   LexSpice.obj
 0001:00065800       ?ColouriseWhiteSpace@@YAXAAVStyleContext@@AA_N@Z 10066800 f   LexSpice.obj
 0001:00065830       ?IsDelimiterCharacter@@YA_NH@Z 10066830 f   LexSpice.obj
 0001:000658b0       ?IsSeparatorOrDelimiterCharacter@@YA_NH@Z 100668b0 f   LexSpice.obj
 0001:00065940       ?ColouriseNumber@@YAXAAVStyleContext@@AA_N@Z 10066940 f   LexSpice.obj
 0001:00065cf0       ?ColouriseWord@@YAXAAVStyleContext@@AAVWordList@@11AA_N@Z 10066cf0 f   LexSpice.obj
 0001:00065fd0       ?ColouriseDocument@@YAXIHHQAPAVWordList@@AAVAccessor@@@Z 10066fd0 f   LexSpice.obj
 0001:00066220       ?SetupArrays@@YAXXZ        10067220 f   LexSQL.obj
 0001:00066240       ?IsAWordChar@@YA_NH@Z      10067240 f   LexSQL.obj
 0001:00066270       ?IsAWordStart@@YA_NH@Z     10067270 f   LexSQL.obj
 0001:000662a0       ?IsADoxygenChar@@YA_NH@Z   100672a0 f   LexSQL.obj
 0001:000662f0       ?IsANumberChar@@YA_NH@Z    100672f0 f   LexSQL.obj
 0001:00066330       ?ColouriseSQLDoc@@YAXIHHQAPAVWordList@@AAVAccessor@@@Z 10067330 f   LexSQL.obj
 0001:00066b50       ?IsStreamCommentStyle@@YA_NH@Z 10067b50 f   LexSQL.obj
 0001:00066b70       ?FoldSQLDoc@@YAXIHHQAPAVWordList@@AAVAccessor@@@Z 10067b70 f   LexSQL.obj
 0001:00067120       ?getRange@@YAXIIAAVAccessor@@PADI@Z 10068120 f   LexTACL.obj
 0001:000671b0       ?IsStreamCommentStyle@@YA_NH@Z 100681b0 f   LexTACL.obj
 0001:000671d0       ?ColourTo@@YAXAAVAccessor@@II_N@Z 100681d0 f   LexTACL.obj
 0001:00067210       ?classifyWordTACL@@YAHIIQAPAVWordList@@AAVAccessor@@_N@Z 10068210 f   LexTACL.obj
 0001:000673f0       ?classifyFoldPointTACL@@YAHPBD@Z 100683f0 f   LexTACL.obj
 0001:00067410       ?ColouriseTACLDoc@@YAXIHHQAPAVWordList@@AAVAccessor@@@Z 10068410 f   LexTACL.obj
 0001:000679e0       ?FoldTACLDoc@@YAXIHHQAPAVWordList@@AAVAccessor@@@Z 100689e0 f   LexTACL.obj
 0001:00067f60       ?SetupArrays@@YAXXZ        10068f60 f   LexTADS3.obj
 0001:00067f80       ?IsEOL@@YA_NHH@Z           10068f80 f   LexTADS3.obj
 0001:00067fa0       ?IsEOLSkip@@YA_NAAVStyleContext@@@Z 10068fa0 f   LexTADS3.obj
 0001:00067fe0       ?IsASpaceOrTab@@YA_NH@Z    10068fe0 f   LexTADS3.obj
 0001:00068000       ?IsATADS3Operator@@YA_NH@Z 10069000 f   LexTADS3.obj
 0001:00068080       ?IsAWordChar@@YA_NH@Z      10069080 f   LexTADS3.obj
 0001:000680a0       ?IsAWordStart@@YA_NH@Z     100690a0 f   LexTADS3.obj
 0001:000680c0       ?IsAHexDigit@@YA_NH@Z      100690c0 f   LexTADS3.obj
 0001:00068100       ?IsAnHTMLChar@@YA_NH@Z     10069100 f   LexTADS3.obj
 0001:00068130       ?IsADirectiveChar@@YA_NH@Z 10069130 f   LexTADS3.obj
 0001:00068160       ?IsANumberStart@@YA_NAAVStyleContext@@@Z 10069160 f   LexTADS3.obj
 0001:000681a0       ?ColouriseTADS3Operator@@YAXAAVStyleContext@@@Z 100691a0 f   LexTADS3.obj
 0001:000681e0       ?ColouriseTADSHTMLString@@YAXAAVStyleContext@@AAH@Z 100691e0 f   LexTADS3.obj
 0001:00068400       ?ColouriseTADS3HTMLTagStart@@YAXAAVStyleContext@@@Z 10069400 f   LexTADS3.obj
 0001:00068500       ?ColouriseTADS3HTMLTag@@YAXAAVStyleContext@@AAH@Z 10069500 f   LexTADS3.obj
 0001:00068790       ?ColouriseTADS3Keyword@@YAXAAVStyleContext@@QAPAVWordList@@I@Z 10069790 f   LexTADS3.obj
 0001:00068ac0       ?ColouriseTADS3MsgParam@@YAXAAVStyleContext@@AAH@Z 10069ac0 f   LexTADS3.obj
 0001:00068c80       ?ColouriseTADS3LibDirective@@YAXAAVStyleContext@@AAH@Z 10069c80 f   LexTADS3.obj
 0001:00068e00       ?ColouriseTADS3String@@YAXAAVStyleContext@@AAH@Z 10069e00 f   LexTADS3.obj
 0001:00068ff0       ?ColouriseTADS3Comment@@YAXAAVStyleContext@@H@Z 10069ff0 f   LexTADS3.obj
 0001:000690d0       ?ColouriseToEndOfLine@@YAXAAVStyleContext@@HH@Z 1006a0d0 f   LexTADS3.obj
 0001:00069250       ?ColouriseTADS3Number@@YAXAAVStyleContext@@@Z 1006a250 f   LexTADS3.obj
 0001:000693d0       ?ColouriseTADS3Doc@@YAXIHHQAPAVWordList@@AAVAccessor@@@Z 1006a3d0 f   LexTADS3.obj
 0001:00069800       ?IsStringTransition@@YA_NHH@Z 1006a800 f   LexTADS3.obj
 0001:00069840       ?IsATADS3Punctuation@@YA_NH@Z 1006a840 f   LexTADS3.obj
 0001:00069860       ?IsAnIdentifier@@YA_NH@Z   1006a860 f   LexTADS3.obj
 0001:00069880       ?IsAnOperator@@YA_NH@Z     1006a880 f   LexTADS3.obj
 0001:00069890       ?IsSpaceEquivalent@@YA_NHH@Z 1006a890 f   LexTADS3.obj
 0001:000698c0       ?peekAhead@@YADIIAAVAccessor@@@Z 1006a8c0 f   LexTADS3.obj
 0001:00069990       ?FoldTADS3Doc@@YAXIHHQAPAVWordList@@AAVAccessor@@@Z 1006a990 f   LexTADS3.obj
 0001:00069e70       ?getRange@@YAXIIAAVAccessor@@PADI@Z 1006ae70 f   LexTAL.obj
 0001:00069f00       ?IsStreamCommentStyle@@YA_NH@Z 1006af00 f   LexTAL.obj
 0001:00069f20       ?ColourTo@@YAXAAVAccessor@@II_N@Z 1006af20 f   LexTAL.obj
 0001:00069f60       ?classifyWordTAL@@YAHIIQAPAVWordList@@AAVAccessor@@_N@Z 1006af60 f   LexTAL.obj
 0001:0006a0f0       ?classifyFoldPointTAL@@YAHPBD@Z 1006b0f0 f   LexTAL.obj
 0001:0006a1b0       ?ColouriseTALDoc@@YAXIHHQAPAVWordList@@AAVAccessor@@@Z 1006b1b0 f   LexTAL.obj
 0001:0006a7f0       ?FoldTALDoc@@YAXIHHQAPAVWordList@@AAVAccessor@@@Z 1006b7f0 f   LexTAL.obj
 0001:0006ada0       ?SetupArrays@@YAXXZ        1006bda0 f   LexTCL.obj
 0001:0006adc0       ?IsAWordChar@@YA_NH@Z      1006bdc0 f   LexTCL.obj
 0001:0006adf0       ?IsAWordStart@@YA_NH@Z     1006bdf0 f   LexTCL.obj
 0001:0006ae20       ?IsANumberChar@@YA_NH@Z    1006be20 f   LexTCL.obj
 0001:0006ae70       ?ColouriseTCLDoc@@YAXIHHQAPAVWordList@@AAVAccessor@@@Z 1006be70 f   LexTCL.obj
 0001:0006bf80       ?SetupArrays@@YAXXZ        1006cf80 f   LexTeX.obj
 0001:0006bfa0       ?endOfLine@@YA_NAAVAccessor@@I@Z 1006cfa0 f   LexTeX.obj
 0001:0006c040       ?isTeXzero@@YA_NH@Z        1006d040 f   LexTeX.obj
 0001:0006c050       ?isTeXone@@YA_NH@Z         1006d050 f   LexTeX.obj
 0001:0006c090       ?isTeXtwo@@YA_NH@Z         1006d090 f   LexTeX.obj
 0001:0006c0b0       ?isTeXthree@@YA_NH@Z       1006d0b0 f   LexTeX.obj
 0001:0006c0f0       ?isTeXfour@@YA_NH@Z        1006d0f0 f   LexTeX.obj
 0001:0006c100       ?isTeXfive@@YA_NH@Z        1006d100 f   LexTeX.obj
 0001:0006c130       ?isTeXsix@@YA_NH@Z         1006d130 f   LexTeX.obj
 0001:0006c140       ?isTeXseven@@YA_NH@Z       1006d140 f   LexTeX.obj
 0001:0006c150       ?CheckTeXInterface@@YAHIHAAVAccessor@@H@Z 1006d150 f   LexTeX.obj
 0001:0006c420       ?ColouriseTeXDoc@@YAXIHHQAPAVWordList@@AAVAccessor@@@Z 1006d420 f   LexTeX.obj
 0001:0006c970       ?isNumber@@YA_NH@Z         1006d970 f   LexTeX.obj
 0001:0006c9b0       ?isWordChar@@YA_NH@Z       1006d9b0 f   LexTeX.obj
 0001:0006c9d0       ?ParseTeXCommand@@YAHIAAVAccessor@@PAD@Z 1006d9d0 f   LexTeX.obj
 0001:0006cb20       ?classifyFoldPointTeXPaired@@YAHPBD@Z 1006db20 f   LexTeX.obj
 0001:0006ce00       ?classifyFoldPointTeXUnpaired@@YAHPBD@Z 1006de00 f   LexTeX.obj
 0001:0006d250       ?IsTeXCommentLine@@YA_NHAAVAccessor@@@Z 1006e250 f   LexTeX.obj
 0001:0006d2b0       ?FoldTexDoc@@YAXIHHQAPAVWordList@@AAVAccessor@@@Z 1006e2b0 f   LexTeX.obj
 0001:0006d6d0       ?SetupArrays@@YAXXZ        1006e6d0 f   LexVB.obj
 0001:0006d6f0       ?IsVBComment@@YA_NAAVAccessor@@HH@Z 1006e6f0 f   LexVB.obj
 0001:0006d740       ?IsTypeCharacter@@YA_NH@Z  1006e740 f   LexVB.obj
 0001:0006d770       ?IsAWordChar@@YA_NH@Z      1006e770 f   LexVB.obj
 0001:0006d7a0       ?IsAWordStart@@YA_NH@Z     1006e7a0 f   LexVB.obj
 0001:0006d7d0       ?IsANumberChar@@YA_NH@Z    1006e7d0 f   LexVB.obj
 0001:0006d810       ?ColouriseVBDoc@@YAXIHHQAPAVWordList@@AAVAccessor@@_N@Z 1006e810 f   LexVB.obj
 0001:0006dfd0       ?FoldVBDoc@@YAXIHHQAPAVWordList@@AAVAccessor@@@Z 1006efd0 f   LexVB.obj
 0001:0006e180       ?ColouriseVBNetDoc@@YAXIHHQAPAVWordList@@AAVAccessor@@@Z 1006f180 f   LexVB.obj
 0001:0006e1b0       ?ColouriseVBScriptDoc@@YAXIHHQAPAVWordList@@AAVAccessor@@@Z 1006f1b0 f   LexVB.obj
 0001:0006e1e0       ?SetupArrays@@YAXXZ        1006f1e0 f   LexVerilog.obj
 0001:0006e200       ?IsAWordChar@@YA_NH@Z      1006f200 f   LexVerilog.obj
 0001:0006e230       ?IsAWordStart@@YA_NH@Z     1006f230 f   LexVerilog.obj
 0001:0006e260       ?ColouriseVerilogDoc@@YAXIHHQAPAVWordList@@AAVAccessor@@@Z 1006f260 f   LexVerilog.obj
 0001:0006e7e0       ?IsStreamCommentStyle@@YA_NH@Z 1006f7e0 f   LexVerilog.obj
 0001:0006e7f0       ?IsCommentLine@@YA_NHAAVAccessor@@@Z 1006f7f0 f   LexVerilog.obj
 0001:0006e8e0       ?FoldNoBoxVerilogDoc@@YAXIHHAAVAccessor@@@Z 1006f8e0 f   LexVerilog.obj
 0001:0006eee0       ?FoldVerilogDoc@@YAXIHHQAPAVWordList@@AAVAccessor@@@Z 1006fee0 f   LexVerilog.obj
 0001:0006ef00       ?SetupArrays@@YAXXZ        1006ff00 f   LexVHDL.obj
 0001:0006ef20       ?IsAWordChar@@YA_NH@Z      1006ff20 f   LexVHDL.obj
 0001:0006ef50       ?IsAWordStart@@YA_NH@Z     1006ff50 f   LexVHDL.obj
 0001:0006ef80       ?ColouriseVHDLDoc@@YAXIHHQAPAVWordList@@AAVAccessor@@@Z 1006ff80 f   LexVHDL.obj
 0001:0006f3c0       ?IsCommentLine@@YA_NHAAVAccessor@@@Z 100703c0 f   LexVHDL.obj
 0001:0006f460       ?FoldNoBoxVHDLDoc@@YAXIHHAAVAccessor@@@Z 10070460 f   LexVHDL.obj
 0001:00070420       ?FoldVHDLDoc@@YAXIHHQAPAVWordList@@AAVAccessor@@@Z 10071420 f   LexVHDL.obj
 0001:00070440       ?AtEOL@@YA_NAAVAccessor@@I@Z 10071440 f   LexYAML.obj
 0001:000704e0       ?SpaceCount@@YAIPAD@Z      100714e0 f   LexYAML.obj
 0001:00070500       ?ColouriseYAMLLine@@YAXPADIIIIAAVWordList@@AAVAccessor@@@Z 10071500 f   LexYAML.obj
 0001:00070860       ?ColouriseYAMLDoc@@YAXIHHQAPAVWordList@@AAVAccessor@@@Z 10071860 f   LexYAML.obj
 0001:000709e0       ?IsCommentLine@@YA_NHAAVAccessor@@@Z 100719e0 f   LexYAML.obj
 0001:00070a20       ?FoldYAMLDoc@@YAXIHHQAPAVWordList@@AAVAccessor@@@Z 10071a20 f   LexYAML.obj
 0001:00070f30       ?DrawBox@@YAXPAVSurface@@HHHVColourAllocated@@1@Z 10071f30 f   LineMarker.obj
 0001:00070f80       ?DrawCircle@@YAXPAVSurface@@HHHVColourAllocated@@1@Z 10071f80 f   LineMarker.obj
 0001:00070fd0       ?DrawPlus@@YAXPAVSurface@@HHHVColourAllocated@@@Z 10071fd0 f   LineMarker.obj
 0001:00071040       ?DrawMinus@@YAXPAVSurface@@HHHVColourAllocated@@@Z 10072040 f   LineMarker.obj
 0001:00071dc0       ?NumberLines@@YAHPBD@Z     10072dc0 f   PerLine.obj
 0001:00071df0       ?AllocateAnnotation@@YAPADHH@Z 10072df0 f   PerLine.obj
 0001:000733d0       ?PointerFromWindow@@YAPAXPAUHWND__@@@Z 100743d0 f   PlatWin.obj
 0001:000733e0       ?SetWindowPointer@@YAXPAUHWND__@@PAX@Z 100743e0 f   PlatWin.obj
 0001:00073420       ?RectFromPRectangle@@YA?AUtagRECT@@VPRectangle@@@Z 10074420 f   PlatWin.obj
 0001:00073500       ?Win32MapFontQuality@@YAEH@Z 10074500 f   PlatWin.obj
 0001:00073520       ?SetLogFont@@YAXAAUtagLOGFONTA@@PBDHH_N2H@Z 10074520 f   PlatWin.obj
 0001:000735a0       ?HashFont@@YAHPBDHH_N1H@Z  100745a0 f   PlatWin.obj
 0001:00073d50       ?AllFour@@YAXPAKHHHHK@Z    10074d50 f   PlatWin.obj
 0001:00073db0       ?dwordFromBGRA@@YAKEEEE@Z  10074db0 f   PlatWin.obj
 0001:00074510       ?Window_SendMessage@@YAJPAVWindow@@IIJ@Z 10075510 f   PlatWin.obj
 0001:000752ef       __catch$?ControlWndProc@ListBoxX@@CGJPAUHWND__@@IIJ@Z$0 100762ef f   PlatWin.obj
 0001:000770d0       ?ListBoxX_Register@@YA_NXZ 100780d0 f   PlatWin.obj
 0001:00077af0       ?IsControlCharacter@@YA_NH@Z 10078af0 f   PositionCache.obj
 0001:00078080       ?NextBadU@@YAHPBDHHAAH@Z   10079080 f   PositionCache.obj
 0001:00078320       ?IsTrailByte@@YA_NH@Z      10079320 f   PositionCache.obj
 0001:00078ee0       ?IsASpaceCharacter@@YA_NI@Z 10079ee0 f   PropSet.obj
 0001:00079000       ?ExpandAllInPlace@@YAHABVPropSetSimple@@AAV?$basic_string@DU?$char_traits@D@std@@V?$allocator@D@2@@std@@HABUVarChain@@@Z 1007a000 f   PropSet.obj
 0001:0007aa1b       __catch$??$_Buynode@U?$pair@V?$basic_string@DU?$char_traits@D@std@@V?$allocator@D@2@@std@@V12@@std@@@?$_Tree_val@V?$_Tmap_traits@V?$basic_string@DU?$char_traits@D@std@@V?$allocator@D@2@@std@@V12@U?$less@V?$basic_string@DU?$char_traits@D@std@@V?$allocator@D@2@@std@@@2@V?$allocator@U?$pair@$$CBV?$basic_string@DU?$char_traits@D@std@@V?$allocator@D@2@@std@@V12@@std@@@2@$0A@@std@@@std@@QAEPAU_Node@?$_Tree_nod@V?$_Tmap_traits@V?$basic_string@DU?$char_traits@D@std@@V?$allocator@D@2@@std@@V12@U?$less@V?$basic_string@DU?$char_traits@D@std@@V?$allocator@D@2@@std@@@2@V?$allocator@U?$pair@$$CBV?$basic_string@DU?$char_traits@D@std@@V?$allocator@D@2@@std@@V12@@std@@@2@$0A@@std@@@1@$$QAU?$pair@V?$basic_string@DU?$char_traits@D@std@@V?$allocator@D@2@@std@@V12@@1@@Z$0 1007ba1b f i PropSet.obj
 0001:0007dd70       ?LoWord@@YAGK@Z            1007ed70 f   ScintillaWin.obj
 0001:0007dd80       ?HiWord@@YAGK@Z            1007ed80 f   ScintillaWin.obj
 0001:0007dd90       ?InputCodePage@@YAHXZ      1007ed90 f   ScintillaWin.obj
 0001:0007ddf0       ?KeyTranslate@@YAHH@Z      1007edf0 f   ScintillaWin.obj
 0001:0007e170       ?SciMessageFromEM@@YAII@Z  1007f170 f   ScintillaWin.obj
 0001:0007e390       ?CodePageFromCharSet@@YAIKI@Z 1007f390 f   ScintillaWin.obj
 0001:0007fbf0       ?CompareDevCap@@YA_NPAUHDC__@@0H@Z 10080bf0 f   ScintillaWin.obj
 0001:0007ff64       __catch$?DragOver@ScintillaWin@@QAGJKU_POINTL@@PAK@Z$0 10080f64 f   ScintillaWin.obj
 0001:00080001       __catch$?DragLeave@ScintillaWin@@QAGJXZ$0 10081001 f   ScintillaWin.obj
 0001:00080352       __catch$?Drop@ScintillaWin@@QAGJPAUIDataObject@@KU_POINTL@@PAK@Z$0 10081352 f   ScintillaWin.obj
 0001:00080620       ?PointerFromWindow@@YAPAXPAUHWND__@@@Z 10081620 f   ScintillaWin.obj
 0001:00080630       ?SetWindowPointer@@YAXPAUHWND__@@PAX@Z 10081630 f   ScintillaWin.obj
 0001:000807fa       __catch$?CTWndProc@ScintillaWin@@CGJPAUHWND__@@IIJ@Z$0 100817fa f   ScintillaWin.obj
 0001:00080c69       __catch$?FormatEnumerator_Clone@@YGJPAVFormatEnumerator@@PAPAUIEnumFORMATETC@@@Z$0 10081c69 f   ScintillaWin.obj
 0001:00080e82       __catch$?DataObject_EnumFormatEtc@@YGJPAVDataObject@@KPAPAUIEnumFORMATETC@@@Z$0 10081e82 f   ScintillaWin.obj
 0001:00080eb1       __catch$?DataObject_EnumFormatEtc@@YGJPAVDataObject@@KPAPAUIEnumFORMATETC@@@Z$1 10081eb1 f   ScintillaWin.obj
 0001:00080f74       __catch$?DropTarget_DragEnter@@YGJPAVDropTarget@@PAUIDataObject@@KU_POINTL@@PAK@Z$0 10081f74 f   ScintillaWin.obj
 0001:00081010       __catch$?DropTarget_DragOver@@YGJPAVDropTarget@@KU_POINTL@@PAK@Z$0 10082010 f   ScintillaWin.obj
 0001:00081090       __catch$?DropTarget_DragLeave@@YGJPAVDropTarget@@@Z$0 10082090 f   ScintillaWin.obj
 0001:00081124       __catch$?DropTarget_Drop@@YGJPAVDropTarget@@PAUIDataObject@@KU_POINTL@@PAK@Z$0 10082124 f   ScintillaWin.obj
 0001:00081237       __catch$?SWndProc@ScintillaWin@@CGJPAUHWND__@@IIJ@Z$0 10082237 f   ScintillaWin.obj
 0001:0008128d       __catch$?SWndProc@ScintillaWin@@CGJPAUHWND__@@IIJ@Z$2 1008228d f   ScintillaWin.obj
 0001:00081fcc       __catch$?WndProc@ScintillaWin@@UAEJIKJ@Z$0 10082fcc f   ScintillaWin.obj
 0001:00081fe4       __catch$?WndProc@ScintillaWin@@UAEJIKJ@Z$1 10082fe4 f   ScintillaWin.obj
 0001:00084088       __catch$?reserve@?$vector@USelectionRange@@V?$allocator@USelectionRange@@@std@@@std@@QAEXI@Z$0 10085088 f i Selection.obj
 0001:00084770       ?getRange@@YAXIIAAVAccessor@@PADI@Z 10085770 f   StyleContext.obj
 0001:00084820       ?getRangeLowered@@YAXIIAAVAccessor@@PADI@Z 10085820 f   StyleContext.obj
 0001:00086a70       ?NextField@@YAPBDPBD@Z     10087a70 f   XPM.obj
 0001:00086ac0       ?MeasureLength@@YAIPBD@Z   10087ac0 f   XPM.obj
 0001:00087952       ?CatchGuardHandler@@YA?AW4_EXCEPTION_DISPOSITION@@PAUEHExceptionRecord@@PAUCatchGuardRN@@PAX2@Z 10088952 f   LIBCMT:_trnsctrl_.obj
 0001:00087a5c       ?TranslatorGuardHandler@@YA?AW4_EXCEPTION_DISPOSITION@@PAUEHExceptionRecord@@PAUTranslatorGuardRN@@PAX2@Z 10088a5c f   LIBCMT:_trnsctrl_.obj
 0001:00089115       __onexit_nolock            1008a115 f   LIBCMT:onexit.obj
 0001:00089250       _shortsort                 1008a250 f   LIBCMT:qsort.obj
 0001:000899ff       ___DllMainCRTStartup       1008a9ff f   LIBCMT:dllcrt0.obj
 0001:00089f0e       ?ExFilterRethrow@@YAHPAU_EXCEPTION_POINTERS@@@Z 1008af0e f   LIBCMT:frame.obj
 0001:00089fd1       ?IsInExceptionSpec@@YAEPAUEHExceptionRecord@@PBU_s_ESTypeList@@@Z 1008afd1 f   LIBCMT:frame.obj
 0001:0008a04c       ?CallUnexpected@@YAXPBU_s_ESTypeList@@@Z 1008b04c f   LIBCMT:frame.obj
 0001:0008a07d       __catch$?CallUnexpected@@YAXPBU_s_ESTypeList@@@Z$0 1008b07d f   LIBCMT:frame.obj
 0001:0008a095       ?CallCatchBlock@@YAPAXPAUEHExceptionRecord@@PAUEHRegistrationNode@@PAU_CONTEXT@@PBU_s_FuncInfo@@PAXHK@Z 1008b095 f   LIBCMT:frame.obj
 0001:0008a442       ?CatchIt@@YAXPAUEHExceptionRecord@@PAUEHRegistrationNode@@PAU_CONTEXT@@PAXPBU_s_FuncInfo@@PBU_s_HandlerType@@PBU_s_CatchableType@@PBU_s_TryBlockMapEntry@@H1E@Z 1008b442 f   LIBCMT:frame.obj
 0001:0008a4b0       ?FindHandlerForForeignException@@YAXPAUEHExceptionRecord@@PAUEHRegistrationNode@@PAU_CONTEXT@@PAXPBU_s_FuncInfo@@HH1@Z 1008b4b0 f   LIBCMT:frame.obj
 0001:0008a5b7       ?FindHandler@@YAXPAUEHExceptionRecord@@PAUEHRegistrationNode@@PAU_CONTEXT@@PAXPBU_s_FuncInfo@@EH1@Z 1008b5b7 f   LIBCMT:frame.obj
 0001:0008b3cf       ?CPtoLCID@@YAHH@Z          1008c3cf f   LIBCMT:mbctype.obj
 0001:0008b3fe       ?setSBCS@@YAXPAUthreadmbcinfostruct@@@Z 1008c3fe f   LIBCMT:mbctype.obj
 0001:0008b462       ?setSBUpLow@@YAXPAUthreadmbcinfostruct@@@Z 1008c462 f   LIBCMT:mbctype.obj
 0001:0008b696       ?getSystemCP@@YAHH@Z       1008c696 f   LIBCMT:mbctype.obj
 0001:0008c3d6       _write_char                1008d3d6 f   LIBCMT:output.obj
 0001:0008c409       _write_string              1008d409 f   LIBCMT:output.obj
 0001:0008d26e       ?__crtLCMapStringA_stat@@YAHPAUlocaleinfo_struct@@KKPBDHPADHHH@Z 1008e26e f   LIBCMT:a_map.obj
 0001:0008d6f0       _doexit                    1008e6f0 f   LIBCMT:crt0dat.obj
 0001:0008d8c8       ?strtoxl@@YAKPAUlocaleinfo_struct@@PBDPAPBDHH@Z 1008e8c8 f   LIBCMT:strtol.obj
 0001:0008dcf6       __shift                    1008ecf6 f   LIBCMT:cvt.obj
 0001:0008dd3b       __cftoe2_l                 1008ed3b f   LIBCMT:cvt.obj
 0001:0008e2f9       __cftof2_l                 1008f2f9 f   LIBCMT:cvt.obj
 0001:0008e6be       _siglookup                 1008f6be f   LIBCMT:winsig.obj
 0001:0008ec19       _parse_cmdline             1008fc19 f   LIBCMT:stdargv.obj
 0001:0008f3d0       __unwind_handler4          100903d0 f   LIBCMT:exsup4.obj
 0001:0008f500       __unwind_handler           10090500 f   LIBCMT:exsup.obj
 0001:0008f76c       ?__crtGetStringTypeA_stat@@YAHPAUlocaleinfo_struct@@KPBDHPAGHHH@Z 1009076c f   LIBCMT:a_str.obj
 0001:000915f7       ?x_ismbbtype_l@@YAHPAUlocaleinfo_struct@@IHH@Z 100925f7 f   LIBCMT:ismbbyte.obj
 0001:00091ad5       _flsall                    10092ad5 f   LIBCMT:fflush.obj
 0001:0009362e       __hw_cw                    1009462e f   LIBCMT:_ieee87_.obj
 0001:000936bc       ___hw_cw_sse2              100946bc f   LIBCMT:_ieee87_.obj
 0001:00094190       __unwindfunclet$??1CallTip@@QAE@XZ$0 10095190 f   CallTip.obj
 0001:0009419b       __unwindfunclet$??1CallTip@@QAE@XZ$1 1009519b f   CallTip.obj
 0001:000941a6       __unwindfunclet$??1CallTip@@QAE@XZ$2 100951a6 f   CallTip.obj
 0001:000941b1       __ehhandler$??1CallTip@@QAE@XZ 100951b1 f   CallTip.obj
 0001:000941d0       __unwindfunclet$??0UndoHistory@@QAE@XZ$0 100951d0 f   CellBuffer.obj
 0001:000941db       __ehhandler$??0UndoHistory@@QAE@XZ 100951db f   CellBuffer.obj
 0001:000941f6       __unwindfunclet$?EnsureUndoRoom@UndoHistory@@AAEXXZ$0 100951f6 f   CellBuffer.obj
 0001:00094201       __ehhandler$?EnsureUndoRoom@UndoHistory@@AAEXXZ 10095201 f   CellBuffer.obj
 0001:0009421c       __unwindfunclet$??1LineVector@@QAE@XZ$0 1009521c f   CellBuffer.obj
 0001:00094224       __ehhandler$??1LineVector@@QAE@XZ 10095224 f   CellBuffer.obj
 0001:0009423f       __unwindfunclet$??1CellBuffer@@QAE@XZ$0 1009523f f   CellBuffer.obj
 0001:00094247       __unwindfunclet$??1CellBuffer@@QAE@XZ$1 10095247 f   CellBuffer.obj
 0001:00094252       __unwindfunclet$??1CellBuffer@@QAE@XZ$2 10095252 f   CellBuffer.obj
 0001:0009425d       __ehhandler$??1CellBuffer@@QAE@XZ 1009525d f   CellBuffer.obj
 0001:00094278       __unwindfunclet$??0LineVector@@QAE@XZ$0 10095278 f   CellBuffer.obj
 0001:00094280       __ehhandler$??0LineVector@@QAE@XZ 10095280 f   CellBuffer.obj
 0001:0009429b       __unwindfunclet$??0CellBuffer@@QAE@XZ$0 1009529b f   CellBuffer.obj
 0001:000942a3       __unwindfunclet$??0CellBuffer@@QAE@XZ$1 100952a3 f   CellBuffer.obj
 0001:000942ae       __unwindfunclet$??0CellBuffer@@QAE@XZ$2 100952ae f   CellBuffer.obj
 0001:000942b9       __unwindfunclet$??0CellBuffer@@QAE@XZ$4 100952b9 f   CellBuffer.obj
 0001:000942c1       __ehhandler$??0CellBuffer@@QAE@XZ 100952c1 f   CellBuffer.obj
 0001:000942e0       __unwindfunclet$?Allocate@Partitioning@@AAEXH@Z$0 100952e0 f   CellBuffer.obj
 0001:000942eb       __unwindfunclet$?Allocate@Partitioning@@AAEXH@Z$1 100952eb f   CellBuffer.obj
 0001:000942f3       __ehhandler$?Allocate@Partitioning@@AAEXH@Z 100952f3 f   CellBuffer.obj
 0001:00094310       __unwindfunclet$?EnsureData@ContractionState@@AAEXXZ$0 10095310 f   ContractionState.obj
 0001:0009431b       __unwindfunclet$?EnsureData@ContractionState@@AAEXXZ$1 1009531b f   ContractionState.obj
 0001:00094326       __unwindfunclet$?EnsureData@ContractionState@@AAEXXZ$2 10095326 f   ContractionState.obj
 0001:00094331       __unwindfunclet$?EnsureData@ContractionState@@AAEXXZ$3 10095331 f   ContractionState.obj
 0001:0009433c       __ehhandler$?EnsureData@ContractionState@@AAEXXZ 1009533c f   ContractionState.obj
 0001:00094360       __unwindfunclet$?Create@DecorationList@@AAEPAVDecoration@@HH@Z$0 10095360 f   Decoration.obj
 0001:0009436b       __ehhandler$?Create@DecorationList@@AAEPAVDecoration@@HH@Z 1009536b f   Decoration.obj
 0001:00094390       __unwindfunclet$??1Document@@UAE@XZ$0 10095390 f   Document.obj
 0001:00094398       __unwindfunclet$??1Document@@UAE@XZ$1 10095398 f   Document.obj
 0001:000943a3       __unwindfunclet$??1Document@@UAE@XZ$2 100953a3 f   Document.obj
 0001:000943b1       __ehhandler$??1Document@@UAE@XZ 100953b1 f   Document.obj
 0001:000943cc       __unwindfunclet$?SetLineIndentation@Document@@QAEXHH@Z$0 100953cc f   Document.obj
 0001:000943d7       __ehhandler$?SetLineIndentation@Document@@QAEXHH@Z 100953d7 f   Document.obj
 0001:000943ff       __unwindfunclet$?ConvertLineEnds@Document@@QAEXH@Z$0 100953ff f   Document.obj
 0001:00094407       __ehhandler$?ConvertLineEnds@Document@@QAEXH@Z 10095407 f   Document.obj
 0001:00094422       __unwindfunclet$?CreateRegexSearch@@YAPAVRegexSearchBase@@PAVCharClassify@@@Z$0 10095422 f   Document.obj
 0001:0009442d       __unwindfunclet$?CreateRegexSearch@@YAPAVRegexSearchBase@@PAVCharClassify@@@Z$1 1009542d f   Document.obj
 0001:00094435       __ehhandler$?CreateRegexSearch@@YAPAVRegexSearchBase@@PAVCharClassify@@@Z 10095435 f   Document.obj
 0001:00094450       __unwindfunclet$??0Document@@QAE@XZ$0 10095450 f   Document.obj
 0001:00094458       __unwindfunclet$??0Document@@QAE@XZ$1 10095458 f   Document.obj
 0001:00094463       __unwindfunclet$??0Document@@QAE@XZ$2 10095463 f   Document.obj
 0001:00094471       __ehhandler$??0Document@@QAE@XZ 10095471 f   Document.obj
 0001:0009448c       __unwindfunclet$?FindText@Document@@QAEJHHPBD_N111HPAHPAVCaseFolder@@@Z$0 1009548c f   Document.obj
 0001:00094497       __unwindfunclet$?FindText@Document@@QAEJHHPBD_N111HPAHPAVCaseFolder@@@Z$1 10095497 f   Document.obj
 0001:000944a2       __unwindfunclet$?FindText@Document@@QAEJHHPBD_N111HPAHPAVCaseFolder@@@Z$2 100954a2 f   Document.obj
 0001:000944ad       __ehhandler$?FindText@Document@@QAEJHHPBD_N111HPAHPAVCaseFolder@@@Z 100954ad f   Document.obj
 0001:000944e0       __unwindfunclet$??_GBuiltinRegex@@UAEPAXI@Z$0 100954e0 f   Document.obj
 0001:000944e8       __ehhandler$??_GBuiltinRegex@@UAEPAXI@Z 100954e8 f   Document.obj
 0001:00094510       __unwindfunclet$?LinesJoin@Editor@@IAEXXZ$0 10095510 f   Editor.obj
 0001:00094518       __ehhandler$?LinesJoin@Editor@@IAEXXZ 10095518 f   Editor.obj
 0001:00094533       __unwindfunclet$?Indent@Editor@@IAEX_N@Z$0 10095533 f   Editor.obj
 0001:0009453b       __unwindfunclet$?Indent@Editor@@IAEX_N@Z$1 1009553b f   Editor.obj
 0001:00094543       __unwindfunclet$?Indent@Editor@@IAEX_N@Z$2 10095543 f   Editor.obj
 0001:0009454b       __ehhandler$?Indent@Editor@@IAEX_N@Z 1009554b f   Editor.obj
 0001:00094569       __unwindfunclet$?CaseFolderForEncoding@Editor@@MAEPAVCaseFolder@@XZ$0 10095569 f   Editor.obj
 0001:00094574       __unwindfunclet$?CaseFolderForEncoding@Editor@@MAEPAVCaseFolder@@XZ$1 10095574 f   Editor.obj
 0001:0009457c       __ehhandler$?CaseFolderForEncoding@Editor@@MAEPAVCaseFolder@@XZ 1009557c f   Editor.obj
 0001:00094597       __unwindfunclet$?ReplaceTarget@Editor@@IAEH_NPBDH@Z$0 10095597 f   Editor.obj
 0001:0009459f       __ehhandler$?ReplaceTarget@Editor@@IAEH_NPBDH@Z 1009559f f   Editor.obj
 0001:000945ba       __unwindfunclet$?DrawLine@Editor@@IAEXPAVSurface@@AAVViewStyle@@HHHVPRectangle@@PAVLineLayout@@H@Z$0 100955ba f   Editor.obj
 0001:000945c5       __unwindfunclet$?DrawLine@Editor@@IAEXPAVSurface@@AAVViewStyle@@HHHVPRectangle@@PAVLineLayout@@H@Z$1 100955c5 f   Editor.obj
 0001:000945d0       __ehhandler$?DrawLine@Editor@@IAEXPAVSurface@@AAVViewStyle@@HHHVPRectangle@@PAVLineLayout@@H@Z 100955d0 f   Editor.obj
 0001:000945ee       __unwindfunclet$?FormatRange@Editor@@IAEJ_NPAUSci_RangeToFormat@@@Z$0 100955ee f   Editor.obj
 0001:000945f9       __unwindfunclet$?FormatRange@Editor@@IAEJ_NPAUSci_RangeToFormat@@@Z$1 100955f9 f   Editor.obj
 0001:00094604       __unwindfunclet$?FormatRange@Editor@@IAEJ_NPAUSci_RangeToFormat@@@Z$2 10095604 f   Editor.obj
 0001:0009460f       __unwindfunclet$?FormatRange@Editor@@IAEJ_NPAUSci_RangeToFormat@@@Z$3 1009560f f   Editor.obj
 0001:0009461a       __ehhandler$?FormatRange@Editor@@IAEJ_NPAUSci_RangeToFormat@@@Z 1009561a f   Editor.obj
 0001:00094642       __unwindfunclet$?ClearAll@Editor@@IAEXXZ$0 10095642 f   Editor.obj
 0001:0009464a       __ehhandler$?ClearAll@Editor@@IAEXXZ 1009564a f   Editor.obj
 0001:00094665       __unwindfunclet$?FindText@Editor@@IAEJKJ@Z$0 10095665 f   Editor.obj
 0001:0009466d       __ehhandler$?FindText@Editor@@IAEJKJ@Z 1009566d f   Editor.obj
 0001:00094688       __unwindfunclet$?SearchInTarget@Editor@@IAEJPBDH@Z$0 10095688 f   Editor.obj
 0001:00094690       __ehhandler$?SearchInTarget@Editor@@IAEJPBDH@Z 10095690 f   Editor.obj
 0001:000946ab       __unwindfunclet$?WrapCount@Editor@@IAEHH@Z$0 100956ab f   Editor.obj
 0001:000946b3       __unwindfunclet$?WrapCount@Editor@@IAEHH@Z$1 100956b3 f   Editor.obj
 0001:000946bb       __ehhandler$?WrapCount@Editor@@IAEHH@Z 100956bb f   Editor.obj
 0001:000946d6       __unwindfunclet$??0Editor@@IAE@XZ$0 100956d6 f   Editor.obj
 0001:000946de       __unwindfunclet$??0Editor@@IAE@XZ$1 100956de f   Editor.obj
 0001:000946e9       __unwindfunclet$??0Editor@@IAE@XZ$2 100956e9 f   Editor.obj
 0001:000946f4       __unwindfunclet$??0Editor@@IAE@XZ$3 100956f4 f   Editor.obj
 0001:00094702       __unwindfunclet$??0Editor@@IAE@XZ$4 10095702 f   Editor.obj
 0001:00094710       __unwindfunclet$??0Editor@@IAE@XZ$5 10095710 f   Editor.obj
 0001:0009471e       __unwindfunclet$??0Editor@@IAE@XZ$6 1009571e f   Editor.obj
 0001:0009472c       __unwindfunclet$??0Editor@@IAE@XZ$7 1009572c f   Editor.obj
 0001:0009473a       __unwindfunclet$??0Editor@@IAE@XZ$8 1009573a f   Editor.obj
 0001:00094748       __unwindfunclet$??0Editor@@IAE@XZ$9 10095748 f   Editor.obj
 0001:00094756       __unwindfunclet$??0Editor@@IAE@XZ$10 10095756 f   Editor.obj
 0001:00094761       __ehhandler$??0Editor@@IAE@XZ 10095761 f   Editor.obj
 0001:0009477c       __unwindfunclet$??1Editor@@MAE@XZ$0 1009577c f   Editor.obj
 0001:00094784       __unwindfunclet$??1Editor@@MAE@XZ$1 10095784 f   Editor.obj
 0001:0009478f       __unwindfunclet$??1Editor@@MAE@XZ$2 1009578f f   Editor.obj
 0001:0009479a       __unwindfunclet$??1Editor@@MAE@XZ$3 1009579a f   Editor.obj
 0001:000947a8       __unwindfunclet$??1Editor@@MAE@XZ$4 100957a8 f   Editor.obj
 0001:000947b6       __unwindfunclet$??1Editor@@MAE@XZ$5 100957b6 f   Editor.obj
 0001:000947c4       __unwindfunclet$??1Editor@@MAE@XZ$6 100957c4 f   Editor.obj
 0001:000947d2       __unwindfunclet$??1Editor@@MAE@XZ$7 100957d2 f   Editor.obj
 0001:000947e0       __unwindfunclet$??1Editor@@MAE@XZ$8 100957e0 f   Editor.obj
 0001:000947ee       __unwindfunclet$??1Editor@@MAE@XZ$9 100957ee f   Editor.obj
 0001:000947fc       __ehhandler$??1Editor@@MAE@XZ 100957fc f   Editor.obj
 0001:00094817       __unwindfunclet$?SPositionFromLocation@Editor@@IAE?AVSelectionPosition@@VPoint@@_N11@Z$0 10095817 f   Editor.obj
 0001:0009481f       __unwindfunclet$?SPositionFromLocation@Editor@@IAE?AVSelectionPosition@@VPoint@@_N11@Z$1 1009581f f   Editor.obj
 0001:00094827       __ehhandler$?SPositionFromLocation@Editor@@IAE?AVSelectionPosition@@VPoint@@_N11@Z 10095827 f   Editor.obj
 0001:00094842       __unwindfunclet$?SPositionFromLineX@Editor@@IAE?AVSelectionPosition@@HH@Z$0 10095842 f   Editor.obj
 0001:0009484a       __unwindfunclet$?SPositionFromLineX@Editor@@IAE?AVSelectionPosition@@HH@Z$1 1009584a f   Editor.obj
 0001:00094852       __ehhandler$?SPositionFromLineX@Editor@@IAE?AVSelectionPosition@@HH@Z 10095852 f   Editor.obj
 0001:0009486d       __unwindfunclet$?DisplayFromPosition@Editor@@IAEHH@Z$0 1009586d f   Editor.obj
 0001:00094875       __unwindfunclet$?DisplayFromPosition@Editor@@IAEHH@Z$1 10095875 f   Editor.obj
 0001:0009487d       __ehhandler$?DisplayFromPosition@Editor@@IAEHH@Z 1009587d f   Editor.obj
 0001:00094898       __unwindfunclet$?WrapOneLine@Editor@@IAE_NPAVSurface@@H@Z$0 10095898 f   Editor.obj
 0001:000948a0       __ehhandler$?WrapOneLine@Editor@@IAE_NPAVSurface@@H@Z 100958a0 f   Editor.obj
 0001:000948bb       __unwindfunclet$?LinesSplit@Editor@@IAEXH@Z$0 100958bb f   Editor.obj
 0001:000948c3       __unwindfunclet$?LinesSplit@Editor@@IAEXH@Z$1 100958c3 f   Editor.obj
 0001:000948cb       __unwindfunclet$?LinesSplit@Editor@@IAEXH@Z$2 100958cb f   Editor.obj
 0001:000948d3       __ehhandler$?LinesSplit@Editor@@IAEXH@Z 100958d3 f   Editor.obj
 0001:000948ee       __unwindfunclet$?ClearSelection@Editor@@IAEXXZ$0 100958ee f   Editor.obj
 0001:000948f6       __ehhandler$?ClearSelection@Editor@@IAEXXZ 100958f6 f   Editor.obj
 0001:00094911       __unwindfunclet$?DelCharBack@Editor@@IAEX_N@Z$0 10095911 f   Editor.obj
 0001:00094919       __unwindfunclet$?DelCharBack@Editor@@IAEX_N@Z$1 10095919 f   Editor.obj
 0001:00094921       __ehhandler$?DelCharBack@Editor@@IAEX_N@Z 10095921 f   Editor.obj
 0001:0009493c       __unwindfunclet$?Duplicate@Editor@@IAEX_N@Z$0 1009593c f   Editor.obj
 0001:00094944       __ehhandler$?Duplicate@Editor@@IAEX_N@Z 10095944 f   Editor.obj
 0001:0009495f       __unwindfunclet$?SearchText@Editor@@IAEJIKJ@Z$0 1009595f f   Editor.obj
 0001:00094967       __ehhandler$?SearchText@Editor@@IAEJIKJ@Z 10095967 f   Editor.obj
 0001:00094982       __unwindfunclet$?CopyRangeToClipboard@Editor@@IAEXHH@Z$0 10095982 f   Editor.obj
 0001:0009498a       __ehhandler$?CopyRangeToClipboard@Editor@@IAEXHH@Z 1009598a f   Editor.obj
 0001:000949a5       __unwindfunclet$?CopyText@Editor@@IAEXHPBD@Z$0 100959a5 f   Editor.obj
 0001:000949ad       __ehhandler$?CopyText@Editor@@IAEXHPBD@Z 100959ad f   Editor.obj
 0001:000949c8       __unwindfunclet$?SetDocPointer@Editor@@IAEXPAVDocument@@@Z$0 100959c8 f   Editor.obj
 0001:000949d3       __ehhandler$?SetDocPointer@Editor@@IAEXPAVDocument@@@Z 100959d3 f   Editor.obj
 0001:000949ee       __unwindfunclet$?RefreshStyleData@Editor@@IAEXXZ$0 100959ee f   Editor.obj
 0001:000949f6       __ehhandler$?RefreshStyleData@Editor@@IAEXXZ 100959f6 f   Editor.obj
 0001:00094a11       __unwindfunclet$?LocationFromPosition@Editor@@IAE?AVPoint@@VSelectionPosition@@@Z$0 10095a11 f   Editor.obj
 0001:00094a19       __unwindfunclet$?LocationFromPosition@Editor@@IAE?AVPoint@@VSelectionPosition@@@Z$1 10095a19 f   Editor.obj
 0001:00094a21       __ehhandler$?LocationFromPosition@Editor@@IAE?AVPoint@@VSelectionPosition@@@Z 10095a21 f   Editor.obj
 0001:00094a3c       __unwindfunclet$?PositionFromLineX@Editor@@IAEHHH@Z$0 10095a3c f   Editor.obj
 0001:00094a44       __unwindfunclet$?PositionFromLineX@Editor@@IAEHHH@Z$1 10095a44 f   Editor.obj
 0001:00094a4c       __ehhandler$?PositionFromLineX@Editor@@IAEHHH@Z 10095a4c f   Editor.obj
 0001:00094a67       __unwindfunclet$?WrapLines@Editor@@IAE_N_NH@Z$0 10095a67 f   Editor.obj
 0001:00094a6f       __ehhandler$?WrapLines@Editor@@IAE_N_NH@Z 10095a6f f   Editor.obj
 0001:00094a8a       __unwindfunclet$?Paint@Editor@@IAEXPAVSurface@@VPRectangle@@@Z$0 10095a8a f   Editor.obj
 0001:00094a92       __unwindfunclet$?Paint@Editor@@IAEXPAVSurface@@VPRectangle@@@Z$1 10095a92 f   Editor.obj
 0001:00094a9a       __ehhandler$?Paint@Editor@@IAEXPAVSurface@@VPRectangle@@@Z 10095a9a f   Editor.obj
 0001:00094ab8       __unwindfunclet$?TextWidth@Editor@@IAEHHPBD@Z$0 10095ab8 f   Editor.obj
 0001:00094ac0       __ehhandler$?TextWidth@Editor@@IAEHHPBD@Z 10095ac0 f   Editor.obj
 0001:00094adb       __unwindfunclet$?StartEndDisplayLine@Editor@@IAEHH_N@Z$0 10095adb f   Editor.obj
 0001:00094ae3       __unwindfunclet$?StartEndDisplayLine@Editor@@IAEHH_N@Z$1 10095ae3 f   Editor.obj
 0001:00094aeb       __ehhandler$?StartEndDisplayLine@Editor@@IAEHH_N@Z 10095aeb f   Editor.obj
 0001:00094b06       __unwindfunclet$?LineTranspose@Editor@@IAEXXZ$0 10095b06 f   Editor.obj
 0001:00094b0e       __ehhandler$?LineTranspose@Editor@@IAEXXZ 10095b0e f   Editor.obj
 0001:00094b29       __unwindfunclet$?InsertSpace@Editor@@IAEHHI@Z$0 10095b29 f   Editor.obj
 0001:00094b31       __ehhandler$?InsertSpace@Editor@@IAEHHI@Z 10095b31 f   Editor.obj
 0001:00094b56       __unwindfunclet$?AddCharUTF@Editor@@MAEXPADI_N@Z$0 10095b56 f   Editor.obj
 0001:00094b5e       __unwindfunclet$?AddCharUTF@Editor@@MAEXPADI_N@Z$2 10095b5e f   Editor.obj
 0001:00094b66       __unwindfunclet$?AddCharUTF@Editor@@MAEXPADI_N@Z$1 10095b66 f   Editor.obj
 0001:00094b6e       __ehhandler$?AddCharUTF@Editor@@MAEXPADI_N@Z 10095b6e f   Editor.obj
 0001:00094b96       __unwindfunclet$?PasteRectangular@Editor@@IAEXVSelectionPosition@@PBDH@Z$0 10095b96 f   Editor.obj
 0001:00094b9e       __ehhandler$?PasteRectangular@Editor@@IAEXVSelectionPosition@@PBDH@Z 10095b9e f   Editor.obj
 0001:00094bb9       __unwindfunclet$?Clear@Editor@@IAEXXZ$0 10095bb9 f   Editor.obj
 0001:00094bc1       __ehhandler$?Clear@Editor@@IAEXXZ 10095bc1 f   Editor.obj
 0001:00094bdc       __unwindfunclet$?ChangeCaseOfSelection@Editor@@IAEXH@Z$0 10095bdc f   Editor.obj
 0001:00094be7       __unwindfunclet$?ChangeCaseOfSelection@Editor@@IAEXH@Z$1 10095be7 f   Editor.obj
 0001:00094bef       __unwindfunclet$?ChangeCaseOfSelection@Editor@@IAEXH@Z$2 10095bef f   Editor.obj
 0001:00094bf7       __ehhandler$?ChangeCaseOfSelection@Editor@@IAEXH@Z 10095bf7 f   Editor.obj
 0001:00094c1f       __unwindfunclet$?KeyCommand@Editor@@MAEHI@Z$0 10095c1f f   Editor.obj
 0001:00094c27       __unwindfunclet$?KeyCommand@Editor@@MAEHI@Z$1 10095c27 f   Editor.obj
 0001:00094c2f       __ehhandler$?KeyCommand@Editor@@MAEHI@Z 10095c2f f   Editor.obj
 0001:00094c4d       __unwindfunclet$?DropAt@Editor@@IAEXVSelectionPosition@@PBD_N2@Z$0 10095c4d f   Editor.obj
 0001:00094c55       __ehhandler$?DropAt@Editor@@IAEXVSelectionPosition@@PBD_N2@Z 10095c55 f   Editor.obj
 0001:00094c70       __unwindfunclet$?CopySelectionRange@Editor@@IAEXPAVSelectionText@@_N@Z$0 10095c70 f   Editor.obj
 0001:00094c78       __ehhandler$?CopySelectionRange@Editor@@IAEXPAVSelectionText@@_N@Z 10095c78 f   Editor.obj
 0001:00094c93       __unwindfunclet$?WndProc@Editor@@UAEJIKJ@Z$0 10095c93 f   Editor.obj
 0001:00094c9b       __unwindfunclet$?WndProc@Editor@@UAEJIKJ@Z$1 10095c9b f   Editor.obj
 0001:00094ca3       __unwindfunclet$?WndProc@Editor@@UAEJIKJ@Z$2 10095ca3 f   Editor.obj
 0001:00094cab       __unwindfunclet$?WndProc@Editor@@UAEJIKJ@Z$3 10095cab f   Editor.obj
 0001:00094cb6       __ehhandler$?WndProc@Editor@@UAEJIKJ@Z 10095cb6 f   Editor.obj
 0001:00094cd4       __unwindfunclet$?CopyAllowLine@Editor@@MAEXXZ$0 10095cd4 f   Editor.obj
 0001:00094cdc       __ehhandler$?CopyAllowLine@Editor@@MAEXXZ 10095cdc f   Editor.obj
 0001:00094d00       __ehhandler$?_Copy@?$basic_string@DU?$char_traits@D@std@@V?$allocator@D@2@@std@@QAEXII@Z 10095d00 f   Editor.obj
 0001:00094d20       __ehhandler$??0?$vector@USelectionRange@@V?$allocator@USelectionRange@@@std@@@std@@QAE@ABV01@@Z 10095d20 f   Editor.obj
 0001:00094d40       __unwindfunclet$??1LexerLibrary@@QAE@XZ$0 10095d40 f   ExternalLexer.obj
 0001:00094d4b       __ehhandler$??1LexerLibrary@@QAE@XZ 10095d4b f   ExternalLexer.obj
 0001:00094d66       __unwindfunclet$?Clear@LexerManager@@QAEXXZ$0 10095d66 f   ExternalLexer.obj
 0001:00094d71       __ehhandler$?Clear@LexerManager@@QAEXXZ 10095d71 f   ExternalLexer.obj
 0001:00094d8c       __unwindfunclet$?WordListsToStrings@@YAPAPADQAPAVWordList@@@Z$0 10095d8c f   ExternalLexer.obj
 0001:00094d94       __ehhandler$?WordListsToStrings@@YAPAPADQAPAVWordList@@@Z 10095d94 f   ExternalLexer.obj
 0001:00094db9       __unwindfunclet$??0LexerLibrary@@QAE@PBD@Z$0 10095db9 f   ExternalLexer.obj
 0001:00094dc7       __unwindfunclet$??0LexerLibrary@@QAE@PBD@Z$1 10095dc7 f   ExternalLexer.obj
 0001:00094dd5       __ehhandler$??0LexerLibrary@@QAE@PBD@Z 10095dd5 f   ExternalLexer.obj
 0001:00094dfd       __unwindfunclet$?LoadLexerLibrary@LexerManager@@AAEXPBD@Z$0 10095dfd f   ExternalLexer.obj
 0001:00094e08       __ehhandler$?LoadLexerLibrary@LexerManager@@AAEXPBD@Z 10095e08 f   ExternalLexer.obj
 0001:00094e30       __unwindfunclet$?ColouriseLabel@@YAXAAVStyleContext@@AAVWordList@@AA_N@Z$0 10095e30 f   LexAda.obj
 0001:00094e38       __ehhandler$?ColouriseLabel@@YAXAAVStyleContext@@AAVWordList@@AA_N@Z 10095e38 f   LexAda.obj
 0001:00094e5d       __unwindfunclet$?ColouriseNumber@@YAXAAVStyleContext@@AA_N@Z$0 10095e5d f   LexAda.obj
 0001:00094e65       __ehhandler$?ColouriseNumber@@YAXAAVStyleContext@@AA_N@Z 10095e65 f   LexAda.obj
 0001:00094e8a       __unwindfunclet$?ColouriseWord@@YAXAAVStyleContext@@AAVWordList@@AA_N@Z$0 10095e8a f   LexAda.obj
 0001:00094e92       __ehhandler$?ColouriseWord@@YAXAAVStyleContext@@AAVWordList@@AA_N@Z 10095e92 f   LexAda.obj
 0001:00094ec0       __unwindfunclet$?ColouriseAsyDoc@@YAXIHHQAPAVWordList@@AAVAccessor@@@Z$0 10095ec0 f   LexASY.obj
 0001:00094ecb       __unwindfunclet$?ColouriseAsyDoc@@YAXIHHQAPAVWordList@@AAVAccessor@@@Z$1 10095ecb f   LexASY.obj
 0001:00094ed6       __ehhandler$?ColouriseAsyDoc@@YAXIHHQAPAVWordList@@AAVAccessor@@@Z 10095ed6 f   LexASY.obj
 0001:00094f00       __unwindfunclet$?ColouriseBashDoc@@YAXIHHQAPAVWordList@@AAVAccessor@@@Z$0 10095f00 f   LexBash.obj
 0001:00094f0b       __unwindfunclet$?ColouriseBashDoc@@YAXIHHQAPAVWordList@@AAVAccessor@@@Z$1 10095f0b f   LexBash.obj
 0001:00094f16       __unwindfunclet$?ColouriseBashDoc@@YAXIHHQAPAVWordList@@AAVAccessor@@@Z$2 10095f16 f   LexBash.obj
 0001:00094f21       __unwindfunclet$?ColouriseBashDoc@@YAXIHHQAPAVWordList@@AAVAccessor@@@Z$3 10095f21 f   LexBash.obj
 0001:00094f2c       __unwindfunclet$?ColouriseBashDoc@@YAXIHHQAPAVWordList@@AAVAccessor@@@Z$4 10095f2c f   LexBash.obj
 0001:00094f37       __unwindfunclet$?ColouriseBashDoc@@YAXIHHQAPAVWordList@@AAVAccessor@@@Z$5 10095f37 f   LexBash.obj
 0001:00094f42       __unwindfunclet$?ColouriseBashDoc@@YAXIHHQAPAVWordList@@AAVAccessor@@@Z$6 10095f42 f   LexBash.obj
 0001:00094f4d       __unwindfunclet$?ColouriseBashDoc@@YAXIHHQAPAVWordList@@AAVAccessor@@@Z$7 10095f4d f   LexBash.obj
 0001:00094f58       __unwindfunclet$?ColouriseBashDoc@@YAXIHHQAPAVWordList@@AAVAccessor@@@Z$8 10095f58 f   LexBash.obj
 0001:00094f63       __ehhandler$?ColouriseBashDoc@@YAXIHHQAPAVWordList@@AAVAccessor@@@Z 10095f63 f   LexBash.obj
 0001:00094f90       __unwindfunclet$?ColouriseClarionDoc@@YAXIHHQAPAVWordList@@AAVAccessor@@_N@Z$0 10095f90 f   LexCLW.obj
 0001:00094f9b       __unwindfunclet$?ColouriseClarionDoc@@YAXIHHQAPAVWordList@@AAVAccessor@@_N@Z$1 10095f9b f   LexCLW.obj
 0001:00094fa6       __unwindfunclet$?ColouriseClarionDoc@@YAXIHHQAPAVWordList@@AAVAccessor@@_N@Z$2 10095fa6 f   LexCLW.obj
 0001:00094fb1       __ehhandler$?ColouriseClarionDoc@@YAXIHHQAPAVWordList@@AAVAccessor@@_N@Z 10095fb1 f   LexCLW.obj
 0001:00094fe0       __unwindfunclet$?ColouriseCppDoc@@YAXIHHQAPAVWordList@@AAVAccessor@@_N@Z$0 10095fe0 f   LexCPP.obj
 0001:00094feb       __unwindfunclet$?ColouriseCppDoc@@YAXIHHQAPAVWordList@@AAVAccessor@@_N@Z$1 10095feb f   LexCPP.obj
 0001:00094ff6       __unwindfunclet$?ColouriseCppDoc@@YAXIHHQAPAVWordList@@AAVAccessor@@_N@Z$2 10095ff6 f   LexCPP.obj
 0001:00095001       __unwindfunclet$?ColouriseCppDoc@@YAXIHHQAPAVWordList@@AAVAccessor@@_N@Z$3 10096001 f   LexCPP.obj
 0001:0009500c       __unwindfunclet$?ColouriseCppDoc@@YAXIHHQAPAVWordList@@AAVAccessor@@_N@Z$4 1009600c f   LexCPP.obj
 0001:00095017       __ehhandler$?ColouriseCppDoc@@YAXIHHQAPAVWordList@@AAVAccessor@@_N@Z 10096017 f   LexCPP.obj
 0001:00095040       __unwindfunclet$?ColouriseFlagShipDoc@@YAXIHHQAPAVWordList@@AAVAccessor@@@Z$0 10096040 f   LexFlagship.obj
 0001:0009504b       __ehhandler$?ColouriseFlagShipDoc@@YAXIHHQAPAVWordList@@AAVAccessor@@@Z 1009604b f   LexFlagship.obj
 0001:00095080       __unwindfunclet$?ColouriseHyperTextDoc@@YAXIHHQAPAVWordList@@AAVAccessor@@_N@Z$0 10096080 f   LexHTML.obj
 0001:0009508b       __unwindfunclet$?ColouriseHyperTextDoc@@YAXIHHQAPAVWordList@@AAVAccessor@@_N@Z$1 1009608b f   LexHTML.obj
 0001:00095096       __unwindfunclet$?ColouriseHyperTextDoc@@YAXIHHQAPAVWordList@@AAVAccessor@@_N@Z$2 10096096 f   LexHTML.obj
 0001:000950a1       __ehhandler$?ColouriseHyperTextDoc@@YAXIHHQAPAVWordList@@AAVAccessor@@_N@Z 100960a1 f   LexHTML.obj
 0001:000950d0       __unwindfunclet$?ColouriseLuaDoc@@YAXIHHQAPAVWordList@@AAVAccessor@@@Z$0 100960d0 f   LexLua.obj
 0001:000950db       __unwindfunclet$?ColouriseLuaDoc@@YAXIHHQAPAVWordList@@AAVAccessor@@@Z$1 100960db f   LexLua.obj
 0001:000950e6       __unwindfunclet$?ColouriseLuaDoc@@YAXIHHQAPAVWordList@@AAVAccessor@@@Z$2 100960e6 f   LexLua.obj
 0001:000950f1       __unwindfunclet$?ColouriseLuaDoc@@YAXIHHQAPAVWordList@@AAVAccessor@@@Z$3 100960f1 f   LexLua.obj
 0001:000950fc       __unwindfunclet$?ColouriseLuaDoc@@YAXIHHQAPAVWordList@@AAVAccessor@@@Z$4 100960fc f   LexLua.obj
 0001:00095107       __ehhandler$?ColouriseLuaDoc@@YAXIHHQAPAVWordList@@AAVAccessor@@@Z 10096107 f   LexLua.obj
 0001:00095130       __unwindfunclet$?ColourizeLotDoc@@YAXIHHQAPAVWordList@@AAVAccessor@@@Z$0 10096130 f   LexMPT.obj
 0001:00095138       __ehhandler$?ColourizeLotDoc@@YAXIHHQAPAVWordList@@AAVAccessor@@@Z 10096138 f   LexMPT.obj
 0001:00095160       __unwindfunclet$?ColourisePascalDoc@@YAXIHHQAPAVWordList@@AAVAccessor@@@Z$0 10096160 f   LexPascal.obj
 0001:00095168       __unwindfunclet$?ColourisePascalDoc@@YAXIHHQAPAVWordList@@AAVAccessor@@@Z$1 10096168 f   LexPascal.obj
 0001:00095170       __unwindfunclet$?ColourisePascalDoc@@YAXIHHQAPAVWordList@@AAVAccessor@@@Z$2 10096170 f   LexPascal.obj
 0001:00095178       __unwindfunclet$?ColourisePascalDoc@@YAXIHHQAPAVWordList@@AAVAccessor@@@Z$3 10096178 f   LexPascal.obj
 0001:00095180       __unwindfunclet$?ColourisePascalDoc@@YAXIHHQAPAVWordList@@AAVAccessor@@@Z$4 10096180 f   LexPascal.obj
 0001:00095188       __ehhandler$?ColourisePascalDoc@@YAXIHHQAPAVWordList@@AAVAccessor@@@Z 10096188 f   LexPascal.obj
 0001:000951a3       __unwindfunclet$?ClassifyPascalPreprocessorFoldPoint@@YAXAAH0IAAVAccessor@@@Z$0 100961a3 f   LexPascal.obj
 0001:000951ab       __ehhandler$?ClassifyPascalPreprocessorFoldPoint@@YAXAAH0IAAVAccessor@@@Z 100961ab f   LexPascal.obj
 0001:000951d0       __unwindfunclet$?SkipWhiteSpace@@YAIIIAAVAccessor@@_N@Z$0 100961d0 f   LexPascal.obj
 0001:000951d8       __ehhandler$?SkipWhiteSpace@@YAIIIAAVAccessor@@_N@Z 100961d8 f   LexPascal.obj
 0001:000951f3       __unwindfunclet$?ClassifyPascalWordFoldPoint@@YAXAAH0HIIIAAVAccessor@@@Z$0 100961f3 f   LexPascal.obj
 0001:000951fe       __unwindfunclet$?ClassifyPascalWordFoldPoint@@YAXAAH0HIIIAAVAccessor@@@Z$1 100961fe f   LexPascal.obj
 0001:00095209       __ehhandler$?ClassifyPascalWordFoldPoint@@YAXAAH0HIIIAAVAccessor@@@Z 10096209 f   LexPascal.obj
 0001:00095231       __unwindfunclet$?FoldPascalDoc@@YAXIHHQAPAVWordList@@AAVAccessor@@@Z$0 10096231 f   LexPascal.obj
 0001:00095239       __ehhandler$?FoldPascalDoc@@YAXIHHQAPAVWordList@@AAVAccessor@@@Z 10096239 f   LexPascal.obj
 0001:00095260       __unwindfunclet$?ColourisePerlDoc@@YAXIHHQAPAVWordList@@AAVAccessor@@@Z$0 10096260 f   LexPerl.obj
 0001:0009526b       __unwindfunclet$?ColourisePerlDoc@@YAXIHHQAPAVWordList@@AAVAccessor@@@Z$1 1009626b f   LexPerl.obj
 0001:00095276       __unwindfunclet$?ColourisePerlDoc@@YAXIHHQAPAVWordList@@AAVAccessor@@@Z$2 10096276 f   LexPerl.obj
 0001:00095281       __unwindfunclet$?ColourisePerlDoc@@YAXIHHQAPAVWordList@@AAVAccessor@@@Z$3 10096281 f   LexPerl.obj
 0001:0009528c       __unwindfunclet$?ColourisePerlDoc@@YAXIHHQAPAVWordList@@AAVAccessor@@@Z$4 1009628c f   LexPerl.obj
 0001:00095297       __unwindfunclet$?ColourisePerlDoc@@YAXIHHQAPAVWordList@@AAVAccessor@@@Z$5 10096297 f   LexPerl.obj
 0001:000952a2       __unwindfunclet$?ColourisePerlDoc@@YAXIHHQAPAVWordList@@AAVAccessor@@@Z$6 100962a2 f   LexPerl.obj
 0001:000952ad       __unwindfunclet$?ColourisePerlDoc@@YAXIHHQAPAVWordList@@AAVAccessor@@@Z$7 100962ad f   LexPerl.obj
 0001:000952b8       __unwindfunclet$?ColourisePerlDoc@@YAXIHHQAPAVWordList@@AAVAccessor@@@Z$8 100962b8 f   LexPerl.obj
 0001:000952c3       __unwindfunclet$?ColourisePerlDoc@@YAXIHHQAPAVWordList@@AAVAccessor@@@Z$9 100962c3 f   LexPerl.obj
 0001:000952ce       __unwindfunclet$?ColourisePerlDoc@@YAXIHHQAPAVWordList@@AAVAccessor@@@Z$10 100962ce f   LexPerl.obj
 0001:000952d9       __unwindfunclet$?ColourisePerlDoc@@YAXIHHQAPAVWordList@@AAVAccessor@@@Z$11 100962d9 f   LexPerl.obj
 0001:000952e4       __unwindfunclet$?ColourisePerlDoc@@YAXIHHQAPAVWordList@@AAVAccessor@@@Z$12 100962e4 f   LexPerl.obj
 0001:000952ef       __unwindfunclet$?ColourisePerlDoc@@YAXIHHQAPAVWordList@@AAVAccessor@@@Z$13 100962ef f   LexPerl.obj
 0001:000952fa       __unwindfunclet$?ColourisePerlDoc@@YAXIHHQAPAVWordList@@AAVAccessor@@@Z$14 100962fa f   LexPerl.obj
 0001:00095305       __unwindfunclet$?ColourisePerlDoc@@YAXIHHQAPAVWordList@@AAVAccessor@@@Z$15 10096305 f   LexPerl.obj
 0001:00095310       __ehhandler$?ColourisePerlDoc@@YAXIHHQAPAVWordList@@AAVAccessor@@@Z 10096310 f   LexPerl.obj
 0001:00095340       __unwindfunclet$?ColourisePowerProDoc@@YAXIHHQAPAVWordList@@AAVAccessor@@_N@Z$0 10096340 f   LexPowerPro.obj
 0001:0009534b       __unwindfunclet$?ColourisePowerProDoc@@YAXIHHQAPAVWordList@@AAVAccessor@@_N@Z$1 1009634b f   LexPowerPro.obj
 0001:00095356       __ehhandler$?ColourisePowerProDoc@@YAXIHHQAPAVWordList@@AAVAccessor@@_N@Z 10096356 f   LexPowerPro.obj
 0001:0009537e       __unwindfunclet$?FoldPowerProDoc@@YAXIHHQAPAVWordList@@AAVAccessor@@@Z$0 1009637e f   LexPowerPro.obj
 0001:00095386       __unwindfunclet$?FoldPowerProDoc@@YAXIHHQAPAVWordList@@AAVAccessor@@@Z$1 10096386 f   LexPowerPro.obj
 0001:0009538e       __ehhandler$?FoldPowerProDoc@@YAXIHHQAPAVWordList@@AAVAccessor@@@Z 1009638e f   LexPowerPro.obj
 0001:000953c0       __unwindfunclet$?ColouriseNumber@@YAXAAVStyleContext@@AA_N@Z$0 100963c0 f   LexSpice.obj
 0001:000953c8       __ehhandler$?ColouriseNumber@@YAXAAVStyleContext@@AA_N@Z 100963c8 f   LexSpice.obj
 0001:000953ed       __unwindfunclet$?ColouriseWord@@YAXAAVStyleContext@@AAVWordList@@11AA_N@Z$0 100963ed f   LexSpice.obj
 0001:000953f5       __ehhandler$?ColouriseWord@@YAXAAVStyleContext@@AAVWordList@@11AA_N@Z 100963f5 f   LexSpice.obj
 0001:00095420       __unwindfunclet$?FoldNoBoxVHDLDoc@@YAXIHHAAVAccessor@@@Z$0 10096420 f   LexVHDL.obj
 0001:0009542b       __ehhandler$?FoldNoBoxVHDLDoc@@YAXIHHAAVAccessor@@@Z 1009642b f   LexVHDL.obj
 0001:00095460       __unwindfunclet$?SetXPM@LineMarker@@QAEXPBD@Z$0 10096460 f   LineMarker.obj
 0001:0009546b       __ehhandler$?SetXPM@LineMarker@@QAEXPBD@Z 1009646b f   LineMarker.obj
 0001:00095486       __unwindfunclet$?SetXPM@LineMarker@@QAEXPBQBD@Z$0 10096486 f   LineMarker.obj
 0001:00095491       __ehhandler$?SetXPM@LineMarker@@QAEXPBQBD@Z 10096491 f   LineMarker.obj
 0001:000954b0       __unwindfunclet$??1LineLevels@@UAE@XZ$0 100964b0 f   PerLine.obj
 0001:000954b8       __ehhandler$??1LineLevels@@UAE@XZ 100964b8 f   PerLine.obj
 0001:000954d3       __unwindfunclet$??1LineState@@UAE@XZ$0 100964d3 f   PerLine.obj
 0001:000954db       __ehhandler$??1LineState@@UAE@XZ 100964db f   PerLine.obj
 0001:000954f6       __unwindfunclet$??1LineMarkers@@UAE@XZ$0 100964f6 f   PerLine.obj
 0001:000954fe       __unwindfunclet$??1LineMarkers@@UAE@XZ$1 100964fe f   PerLine.obj
 0001:00095509       __ehhandler$??1LineMarkers@@UAE@XZ 10096509 f   PerLine.obj
 0001:00095524       __unwindfunclet$??1LineAnnotation@@UAE@XZ$0 10096524 f   PerLine.obj
 0001:0009552c       __unwindfunclet$??1LineAnnotation@@UAE@XZ$1 1009652c f   PerLine.obj
 0001:00095537       __ehhandler$??1LineAnnotation@@UAE@XZ 10096537 f   PerLine.obj
 0001:00095560       __ehhandler$?ControlWndProc@ListBoxX@@CGJPAUHWND__@@IIJ@Z 10096560 f   PlatWin.obj
 0001:00095585       __unwindfunclet$?MeasureWidths@SurfaceImpl@@UAEXAAVFont@@PBDHPAH@Z$0 10096585 f   PlatWin.obj
 0001:00095590       __unwindfunclet$?MeasureWidths@SurfaceImpl@@UAEXAAVFont@@PBDHPAH@Z$2 10096590 f   PlatWin.obj
 0001:0009559b       __ehhandler$?MeasureWidths@SurfaceImpl@@UAEXAAVFont@@PBDHPAH@Z 1009659b f   PlatWin.obj
 0001:000955c3       __unwindfunclet$?Allocate@ListBox@@SAPAV1@XZ$0 100965c3 f   PlatWin.obj
 0001:000955ce       __ehhandler$?Allocate@ListBox@@SAPAV1@XZ 100965ce f   PlatWin.obj
 0001:000955e9       __unwindfunclet$?DrawTextCommon@SurfaceImpl@@QAEXVPRectangle@@AAVFont@@HPBDHI@Z$0 100965e9 f   PlatWin.obj
 0001:000955f4       __ehhandler$?DrawTextCommon@SurfaceImpl@@QAEXVPRectangle@@AAVFont@@HPBDHI@Z 100965f4 f   PlatWin.obj
 0001:00095620       __unwindfunclet$??0TextWide@@QAE@PBDH_NH@Z$0 10096620 f   PlatWin.obj
 0001:00095628       __ehhandler$??0TextWide@@QAE@PBDH_NH@Z 10096628 f   PlatWin.obj
 0001:00095650       __unwindfunclet$??0ListBoxX@@QAE@XZ$0 10096650 f   PlatWin.obj
 0001:00095658       __ehhandler$??0ListBoxX@@QAE@XZ 10096658 f   PlatWin.obj
 0001:00095680       __unwindfunclet$??1ListBoxX@@UAE@XZ$0 10096680 f   PlatWin.obj
 0001:00095688       __unwindfunclet$??1ListBoxX@@UAE@XZ$1 10096688 f   PlatWin.obj
 0001:00095693       __ehhandler$??1ListBoxX@@UAE@XZ 10096693 f   PlatWin.obj
 0001:000956b0       __unwindfunclet$??0PositionCache@@QAE@XZ$0 100966b0 f   PositionCache.obj
 0001:000956bb       __ehhandler$??0PositionCache@@QAE@XZ 100966bb f   PositionCache.obj
 0001:000956d6       __unwindfunclet$?SetSize@PositionCache@@QAEXI@Z$0 100966d6 f   PositionCache.obj
 0001:000956e1       __ehhandler$?SetSize@PositionCache@@QAEXI@Z 100966e1 f   PositionCache.obj
 0001:000956fc       __unwindfunclet$?Retrieve@LineLayoutCache@@QAEPAVLineLayout@@HHHHHH@Z$0 100966fc f   PositionCache.obj
 0001:00095707       __unwindfunclet$?Retrieve@LineLayoutCache@@QAEPAVLineLayout@@HHHHHH@Z$1 10096707 f   PositionCache.obj
 0001:00095712       __ehhandler$?Retrieve@LineLayoutCache@@QAEPAVLineLayout@@HHHHHH@Z 10096712 f   PositionCache.obj
 0001:00095730       __unwindfunclet$?Get@PropSetSimple@@QBEPBDPBD@Z$0 10096730 f   PropSet.obj
 0001:00095738       __ehhandler$?Get@PropSetSimple@@QBEPBDPBD@Z 10096738 f   PropSet.obj
 0001:0009575d       __unwindfunclet$?ExpandAllInPlace@@YAHABVPropSetSimple@@AAV?$basic_string@DU?$char_traits@D@std@@V?$allocator@D@2@@std@@HABUVarChain@@@Z$0 1009675d f   PropSet.obj
 0001:00095765       __unwindfunclet$?ExpandAllInPlace@@YAHABVPropSetSimple@@AAV?$basic_string@DU?$char_traits@D@std@@V?$allocator@D@2@@std@@HABUVarChain@@@Z$1 10096765 f   PropSet.obj
 0001:0009576d       __unwindfunclet$?ExpandAllInPlace@@YAHABVPropSetSimple@@AAV?$basic_string@DU?$char_traits@D@std@@V?$allocator@D@2@@std@@HABUVarChain@@@Z$2 1009676d f   PropSet.obj
 0001:00095775       __ehhandler$?ExpandAllInPlace@@YAHABVPropSetSimple@@AAV?$basic_string@DU?$char_traits@D@std@@V?$allocator@D@2@@std@@HABUVarChain@@@Z 10096775 f   PropSet.obj
 0001:0009579a       __unwindfunclet$?Expanded@PropSetSimple@@QBEPADPBD@Z$0 1009679a f   PropSet.obj
 0001:000957a2       __ehhandler$?Expanded@PropSetSimple@@QBEPADPBD@Z 100967a2 f   PropSet.obj
 0001:000957c7       __unwindfunclet$?ToString@PropSetSimple@@UBEPADXZ$0 100967c7 f   PropSet.obj
 0001:000957cf       __ehhandler$?ToString@PropSetSimple@@UBEPADXZ 100967cf f   PropSet.obj
 0001:000957f4       __unwindfunclet$??0PropSetSimple@@QAE@XZ$0 100967f4 f   PropSet.obj
 0001:000957fc       __unwindfunclet$??0PropSetSimple@@QAE@XZ$1 100967fc f   PropSet.obj
 0001:00095807       __ehhandler$??0PropSetSimple@@QAE@XZ 10096807 f   PropSet.obj
 0001:00095822       __unwindfunclet$?Set@PropSetSimple@@QAEXPBD0HH@Z$0 10096822 f   PropSet.obj
 0001:0009582a       __unwindfunclet$?Set@PropSetSimple@@QAEXPBD0HH@Z$1 1009682a f   PropSet.obj
 0001:00095832       __ehhandler$?Set@PropSetSimple@@QAEXPBD0HH@Z 10096832 f   PropSet.obj
 0001:00095857       __unwindfunclet$??1PropSetSimple@@UAE@XZ$0 10096857 f   PropSet.obj
 0001:0009585f       __unwindfunclet$??1PropSetSimple@@UAE@XZ$2 1009685f f   PropSet.obj
 0001:00095867       __ehhandler$??1PropSetSimple@@UAE@XZ 10096867 f   PropSet.obj
 0001:00095890       __unwindfunclet$??$_Buynode@U?$pair@V?$basic_string@DU?$char_traits@D@std@@V?$allocator@D@2@@std@@V12@@std@@@?$_Tree_val@V?$_Tmap_traits@V?$basic_string@DU?$char_traits@D@std@@V?$allocator@D@2@@std@@V12@U?$less@V?$basic_string@DU?$char_traits@D@std@@V?$allocator@D@2@@std@@@2@V?$allocator@U?$pair@$$CBV?$basic_string@DU?$char_traits@D@std@@V?$allocator@D@2@@std@@V12@@std@@@2@$0A@@std@@@std@@QAEPAU_Node@?$_Tree_nod@V?$_Tmap_traits@V?$basic_string@DU?$char_traits@D@std@@V?$allocator@D@2@@std@@V12@U?$less@V?$basic_string@DU?$char_traits@D@std@@V?$allocator@D@2@@std@@@2@V?$allocator@U?$pair@$$CBV?$basic_string@DU?$char_traits@D@std@@V?$allocator@D@2@@std@@V12@@std@@@2@$0A@@std@@@1@$$QAU?$pair@V?$basic_string@DU?$char_traits@D@std@@V?$allocator@D@2@@std@@V12@@1@@Z$2 10096890 f   PropSet.obj
 0001:000958a1       __unwindfunclet$??$_Buynode@U?$pair@V?$basic_string@DU?$char_traits@D@std@@V?$allocator@D@2@@std@@V12@@std@@@?$_Tree_val@V?$_Tmap_traits@V?$basic_string@DU?$char_traits@D@std@@V?$allocator@D@2@@std@@V12@U?$less@V?$basic_string@DU?$char_traits@D@std@@V?$allocator@D@2@@std@@@2@V?$allocator@U?$pair@$$CBV?$basic_string@DU?$char_traits@D@std@@V?$allocator@D@2@@std@@V12@@std@@@2@$0A@@std@@@std@@QAEPAU_Node@?$_Tree_nod@V?$_Tmap_traits@V?$basic_string@DU?$char_traits@D@std@@V?$allocator@D@2@@std@@V12@U?$less@V?$basic_string@DU?$char_traits@D@std@@V?$allocator@D@2@@std@@@2@V?$allocator@U?$pair@$$CBV?$basic_string@DU?$char_traits@D@std@@V?$allocator@D@2@@std@@V12@@std@@@2@$0A@@std@@@1@$$QAU?$pair@V?$basic_string@DU?$char_traits@D@std@@V?$allocator@D@2@@std@@V12@@1@@Z$4 100968a1 f   PropSet.obj
 0001:000958a9       __ehhandler$??$_Buynode@U?$pair@V?$basic_string@DU?$char_traits@D@std@@V?$allocator@D@2@@std@@V12@@std@@@?$_Tree_val@V?$_Tmap_traits@V?$basic_string@DU?$char_traits@D@std@@V?$allocator@D@2@@std@@V12@U?$less@V?$basic_string@DU?$char_traits@D@std@@V?$allocator@D@2@@std@@@2@V?$allocator@U?$pair@$$CBV?$basic_string@DU?$char_traits@D@std@@V?$allocator@D@2@@std@@V12@@std@@@2@$0A@@std@@@std@@QAEPAU_Node@?$_Tree_nod@V?$_Tmap_traits@V?$basic_string@DU?$char_traits@D@std@@V?$allocator@D@2@@std@@V12@U?$less@V?$basic_string@DU?$char_traits@D@std@@V?$allocator@D@2@@std@@@2@V?$allocator@U?$pair@$$CBV?$basic_string@DU?$char_traits@D@std@@V?$allocator@D@2@@std@@V12@@std@@@2@$0A@@std@@@1@$$QAU?$pair@V?$basic_string@DU?$char_traits@D@std@@V?$allocator@D@2@@std@@V12@@1@@Z 100968a9 f   PropSet.obj
 0001:000958d0       __unwindfunclet$??A?$map@V?$basic_string@DU?$char_traits@D@std@@V?$allocator@D@2@@std@@V12@U?$less@V?$basic_string@DU?$char_traits@D@std@@V?$allocator@D@2@@std@@@2@V?$allocator@U?$pair@$$CBV?$basic_string@DU?$char_traits@D@std@@V?$allocator@D@2@@std@@V12@@std@@@2@@std@@QAEAAV?$basic_string@DU?$char_traits@D@std@@V?$allocator@D@2@@1@$$QAV21@@Z$0 100968d0 f   PropSet.obj
 0001:000958d8       __unwindfunclet$??A?$map@V?$basic_string@DU?$char_traits@D@std@@V?$allocator@D@2@@std@@V12@U?$less@V?$basic_string@DU?$char_traits@D@std@@V?$allocator@D@2@@std@@@2@V?$allocator@U?$pair@$$CBV?$basic_string@DU?$char_traits@D@std@@V?$allocator@D@2@@std@@V12@@std@@@2@@std@@QAEAAV?$basic_string@DU?$char_traits@D@std@@V?$allocator@D@2@@1@$$QAV21@@Z$3 100968d8 f   PropSet.obj
 0001:000958e0       __unwindfunclet$??A?$map@V?$basic_string@DU?$char_traits@D@std@@V?$allocator@D@2@@std@@V12@U?$less@V?$basic_string@DU?$char_traits@D@std@@V?$allocator@D@2@@std@@@2@V?$allocator@U?$pair@$$CBV?$basic_string@DU?$char_traits@D@std@@V?$allocator@D@2@@std@@V12@@std@@@2@@std@@QAEAAV?$basic_string@DU?$char_traits@D@std@@V?$allocator@D@2@@1@$$QAV21@@Z$1 100968e0 f   PropSet.obj
 0001:000958e8       __ehhandler$??A?$map@V?$basic_string@DU?$char_traits@D@std@@V?$allocator@D@2@@std@@V12@U?$less@V?$basic_string@DU?$char_traits@D@std@@V?$allocator@D@2@@std@@@2@V?$allocator@U?$pair@$$CBV?$basic_string@DU?$char_traits@D@std@@V?$allocator@D@2@@std@@V12@@std@@@2@@std@@QAEAAV?$basic_string@DU?$char_traits@D@std@@V?$allocator@D@2@@1@$$QAV21@@Z 100968e8 f   PropSet.obj
 0001:00095910       __unwindfunclet$??_GPropSetSimple@@UAEPAXI@Z$0 10096910 f   PropSet.obj
 0001:00095918       __unwindfunclet$??_GPropSetSimple@@UAEPAXI@Z$2 10096918 f   PropSet.obj
 0001:00095920       __ehhandler$??_GPropSetSimple@@UAEPAXI@Z 10096920 f   PropSet.obj
 0001:00095940       __unwindfunclet$??0RunStyles@@QAE@XZ$0 10096940 f   RunStyles.obj
 0001:0009594b       __ehhandler$??0RunStyles@@QAE@XZ 1009694b f   RunStyles.obj
 0001:00095966       __unwindfunclet$?DeleteAll@RunStyles@@QAEXXZ$0 10096966 f   RunStyles.obj
 0001:00095971       __ehhandler$?DeleteAll@RunStyles@@QAEXXZ 10096971 f   RunStyles.obj
 0001:00095990       __unwindfunclet$??0ScintillaBase@@IAE@XZ$0 10096990 f   ScintillaBase.obj
 0001:00095998       __unwindfunclet$??0ScintillaBase@@IAE@XZ$1 10096998 f   ScintillaBase.obj
 0001:000959a6       __unwindfunclet$??0ScintillaBase@@IAE@XZ$2 100969a6 f   ScintillaBase.obj
 0001:000959b4       __unwindfunclet$??0ScintillaBase@@IAE@XZ$3 100969b4 f   ScintillaBase.obj
 0001:000959c2       __ehhandler$??0ScintillaBase@@IAE@XZ 100969c2 f   ScintillaBase.obj
 0001:000959dd       __unwindfunclet$?AutoCompleteCompleted@ScintillaBase@@IAEXXZ$0 100969dd f   ScintillaBase.obj
 0001:000959e8       __ehhandler$?AutoCompleteCompleted@ScintillaBase@@IAEXXZ 100969e8 f   ScintillaBase.obj
 0001:00095a10       __unwindfunclet$?Colourise@ScintillaBase@@IAEXHH@Z$0 10096a10 f   ScintillaBase.obj
 0001:00095a1b       __ehhandler$?Colourise@ScintillaBase@@IAEXHH@Z 10096a1b f   ScintillaBase.obj
 0001:00095a43       __unwindfunclet$??1ScintillaBase@@MAE@XZ$0 10096a43 f   ScintillaBase.obj
 0001:00095a4b       __unwindfunclet$??1ScintillaBase@@MAE@XZ$1 10096a4b f   ScintillaBase.obj
 0001:00095a59       __unwindfunclet$??1ScintillaBase@@MAE@XZ$2 10096a59 f   ScintillaBase.obj
 0001:00095a67       __unwindfunclet$??1ScintillaBase@@MAE@XZ$3 10096a67 f   ScintillaBase.obj
 0001:00095a75       __ehhandler$??1ScintillaBase@@MAE@XZ 10096a75 f   ScintillaBase.obj
 0001:00095a90       __unwindfunclet$?Paste@ScintillaWin@@EAEXXZ$0 10096a90 f   ScintillaWin.obj
 0001:00095a98       __ehhandler$?Paste@ScintillaWin@@EAEXXZ 10096a98 f   ScintillaWin.obj
 0001:00095ab3       __unwindfunclet$?ImeStartComposition@ScintillaWin@@AAEXXZ$0 10096ab3 f   ScintillaWin.obj
 0001:00095abb       __ehhandler$?ImeStartComposition@ScintillaWin@@AAEXXZ 10096abb f   ScintillaWin.obj
 0001:00095ae0       __unwindfunclet$?RealizeWindowPalette@ScintillaWin@@AAEX_N@Z$0 10096ae0 f   ScintillaWin.obj
 0001:00095ae8       __ehhandler$?RealizeWindowPalette@ScintillaWin@@AAEX_N@Z 10096ae8 f   ScintillaWin.obj
 0001:00095b03       __unwindfunclet$?FullPaintDC@ScintillaWin@@AAEXPAUHDC__@@@Z$0 10096b03 f   ScintillaWin.obj
 0001:00095b0b       __ehhandler$?FullPaintDC@ScintillaWin@@AAEXPAUHDC__@@@Z 10096b0b f   ScintillaWin.obj
 0001:00095b26       __ehhandler$?DragOver@ScintillaWin@@QAGJKU_POINTL@@PAK@Z 10096b26 f   ScintillaWin.obj
 0001:00095b41       __ehhandler$?DragLeave@ScintillaWin@@QAGJXZ 10096b41 f   ScintillaWin.obj
 0001:00095b5c       __ehhandler$?Drop@ScintillaWin@@QAGJPAUIDataObject@@KU_POINTL@@PAK@Z 10096b5c f   ScintillaWin.obj
 0001:00095b77       __ehhandler$?CTWndProc@ScintillaWin@@CGJPAUHWND__@@IIJ@Z 10096b77 f   ScintillaWin.obj
 0001:00095b9c       __ehhandler$?FormatEnumerator_Clone@@YGJPAVFormatEnumerator@@PAPAUIEnumFORMATETC@@@Z 10096b9c f   ScintillaWin.obj
 0001:00095bb7       __ehhandler$?DataObject_EnumFormatEtc@@YGJPAVDataObject@@KPAPAUIEnumFORMATETC@@@Z 10096bb7 f   ScintillaWin.obj
 0001:00095bd2       __ehhandler$?DropTarget_DragEnter@@YGJPAVDropTarget@@PAUIDataObject@@KU_POINTL@@PAK@Z 10096bd2 f   ScintillaWin.obj
 0001:00095bed       __ehhandler$?DropTarget_DragOver@@YGJPAVDropTarget@@KU_POINTL@@PAK@Z 10096bed f   ScintillaWin.obj
 0001:00095c08       __ehhandler$?DropTarget_DragLeave@@YGJPAVDropTarget@@@Z 10096c08 f   ScintillaWin.obj
 0001:00095c23       __ehhandler$?DropTarget_Drop@@YGJPAVDropTarget@@PAUIDataObject@@KU_POINTL@@PAK@Z 10096c23 f   ScintillaWin.obj
 0001:00095c3e       __unwindfunclet$?SWndProc@ScintillaWin@@CGJPAUHWND__@@IIJ@Z$4 10096c3e f   ScintillaWin.obj
 0001:00095c49       __ehhandler$?SWndProc@ScintillaWin@@CGJPAUHWND__@@IIJ@Z 10096c49 f   ScintillaWin.obj
 0001:00095c64       __unwindfunclet$?WndPaint@ScintillaWin@@AAEJK@Z$0 10096c64 f   ScintillaWin.obj
 0001:00095c6c       __ehhandler$?WndPaint@ScintillaWin@@AAEJK@Z 10096c6c f   ScintillaWin.obj
 0001:00095c91       __ehhandler$?WndProc@ScintillaWin@@UAEJIKJ@Z 10096c91 f   ScintillaWin.obj
 0001:00095cb9       __unwindfunclet$?Copy@ScintillaWin@@EAEXXZ$0 10096cb9 f   ScintillaWin.obj
 0001:00095cc1       __ehhandler$?Copy@ScintillaWin@@EAEXXZ 10096cc1 f   ScintillaWin.obj
 0001:00095cdc       __unwindfunclet$?CopyAllowLine@ScintillaWin@@EAEXXZ$0 10096cdc f   ScintillaWin.obj
 0001:00095ce4       __ehhandler$?CopyAllowLine@ScintillaWin@@EAEXXZ 10096ce4 f   ScintillaWin.obj
 0001:00095cff       __unwindfunclet$?CaseFolderForEncoding@ScintillaWin@@EAEPAVCaseFolder@@XZ$0 10096cff f   ScintillaWin.obj
 0001:00095d0a       __unwindfunclet$?CaseFolderForEncoding@ScintillaWin@@EAEPAVCaseFolder@@XZ$1 10096d0a f   ScintillaWin.obj
 0001:00095d15       __ehhandler$?CaseFolderForEncoding@ScintillaWin@@EAEPAVCaseFolder@@XZ 10096d15 f   ScintillaWin.obj
 0001:00095d3a       __unwindfunclet$?CaseMapString@ScintillaWin@@EAE?AV?$basic_string@DU?$char_traits@D@std@@V?$allocator@D@2@@std@@ABV23@H@Z$1 10096d3a f   ScintillaWin.obj
 0001:00095d45       __unwindfunclet$?CaseMapString@ScintillaWin@@EAE?AV?$basic_string@DU?$char_traits@D@std@@V?$allocator@D@2@@std@@ABV23@H@Z$2 10096d45 f   ScintillaWin.obj
 0001:00095d50       __unwindfunclet$?CaseMapString@ScintillaWin@@EAE?AV?$basic_string@DU?$char_traits@D@std@@V?$allocator@D@2@@std@@ABV23@H@Z$3 10096d50 f   ScintillaWin.obj
 0001:00095d5b       __ehhandler$?CaseMapString@ScintillaWin@@EAE?AV?$basic_string@DU?$char_traits@D@std@@V?$allocator@D@2@@std@@ABV23@H@Z 10096d5b f   ScintillaWin.obj
 0001:00095d90       __unwindfunclet$??0CaseFolderUTF8@@QAE@XZ$0 10096d90 f   ScintillaWin.obj
 0001:00095d98       __unwindfunclet$??0CaseFolderUTF8@@QAE@XZ$1 10096d98 f   ScintillaWin.obj
 0001:00095da6       __unwindfunclet$??0CaseFolderUTF8@@QAE@XZ$2 10096da6 f   ScintillaWin.obj
 0001:00095db4       __ehhandler$??0CaseFolderUTF8@@QAE@XZ 10096db4 f   ScintillaWin.obj
 0001:00095dd0       __ehhandler$?reserve@?$vector@USelectionRange@@V?$allocator@USelectionRange@@@std@@@std@@QAEXI@Z 10096dd0 f   Selection.obj
 0001:00095df0       __unwindfunclet$??0Selection@@QAE@XZ$0 10096df0 f   Selection.obj
 0001:00095df8       __unwindfunclet$??0Selection@@QAE@XZ$1 10096df8 f   Selection.obj
 0001:00095e03       __ehhandler$??0Selection@@QAE@XZ 10096e03 f   Selection.obj
 0001:00095e20       __unwindfunclet$??1Style@@QAE@XZ$0 10096e20 f   Style.obj
 0001:00095e2b       __ehhandler$??1Style@@QAE@XZ 10096e2b f   Style.obj
 0001:00095e46       __unwindfunclet$??0Style@@QAE@XZ$0 10096e46 f   Style.obj
 0001:00095e51       __ehhandler$??0Style@@QAE@XZ 10096e51 f   Style.obj
 0001:00095e6c       __unwindfunclet$??0Style@@QAE@ABV0@@Z$0 10096e6c f   Style.obj
 0001:00095e77       __ehhandler$??0Style@@QAE@ABV0@@Z 10096e77 f   Style.obj
 0001:00095ea0       __unwindfunclet$?AllocStyles@ViewStyle@@QAEXI@Z$0 10096ea0 f   ViewStyle.obj
 0001:00095eab       __ehhandler$?AllocStyles@ViewStyle@@QAEXI@Z 10096eab f   ViewStyle.obj
 0001:00095ec6       __unwindfunclet$??1ViewStyle@@QAE@XZ$0 10096ec6 f   ViewStyle.obj
 0001:00095ece       __unwindfunclet$??1ViewStyle@@QAE@XZ$1 10096ece f   ViewStyle.obj
 0001:00095ee4       __ehhandler$??1ViewStyle@@QAE@XZ 10096ee4 f   ViewStyle.obj
 0001:00095eff       __unwindfunclet$??0ViewStyle@@QAE@XZ$0 10096eff f   ViewStyle.obj
 0001:00095f07       __unwindfunclet$??0ViewStyle@@QAE@XZ$1 10096f07 f   ViewStyle.obj
 0001:00095f1d       __ehhandler$??0ViewStyle@@QAE@XZ 10096f1d f   ViewStyle.obj
 0001:00095f38       __unwindfunclet$??0ViewStyle@@QAE@ABV0@@Z$0 10096f38 f   ViewStyle.obj
 0001:00095f40       __unwindfunclet$??0ViewStyle@@QAE@ABV0@@Z$1 10096f40 f   ViewStyle.obj
 0001:00095f56       __ehhandler$??0ViewStyle@@QAE@ABV0@@Z 10096f56 f   ViewStyle.obj
 0001:00095f80       __unwindfunclet$?Add@XPMSet@@QAEXHPBD@Z$0 10096f80 f   XPM.obj
 0001:00095f8b       __ehhandler$?Add@XPMSet@@QAEXHPBD@Z 10096f8b f   XPM.obj
 0001:00095fa6       __ehhandler$?CallUnexpected@@YAXPBU_s_ESTypeList@@@Z 10096fa6 f   LIBCMT:frame.obj
 0001:00095fd0       ??__Eminder@@YAXXZ         10096fd0 f   ExternalLexer.obj
 0001:00095fe0       ??__ElmAbaqus@@YAXXZ       10096fe0 f   LexAbaqus.obj
 0001:00096010       ??__ElmAda@@YAXXZ          10097010 f   LexAda.obj
 0001:00096040       ??__ElmAPDL@@YAXXZ         10097040 f   LexAPDL.obj
 0001:00096070       ??__ElmAsm@@YAXXZ          10097070 f   LexAsm.obj
 0001:000960a0       ??__ElmAns1@@YAXXZ         100970a0 f   LexAsn1.obj
 0001:000960d0       ??__ElmASY@@YAXXZ          100970d0 f   LexASY.obj
 0001:00096100       ??__ElmAU3@@YAXXZ          10097100 f   LexAU3.obj
 0001:00096130       ??__ElmAVE@@YAXXZ          10097130 f   LexAVE.obj
 0001:00096160       ??__ElmBaan@@YAXXZ         10097160 f   LexBaan.obj
 0001:00096190       ??__ElmBash@@YAXXZ         10097190 f   LexBash.obj
 0001:000961c0       ??__ElmBlitzBasic@@YAXXZ   100971c0 f   LexBasic.obj
 0001:000961f0       ??__ElmPureBasic@@YAXXZ    100971f0 f   LexBasic.obj
 0001:00096220       ??__ElmFreeBasic@@YAXXZ    10097220 f   LexBasic.obj
 0001:00096250       ??__ElmBullant@@YAXXZ      10097250 f   LexBullant.obj
 0001:00096280       ??__ElmCaml@@YAXXZ         10097280 f   LexCaml.obj
 0001:000962b0       ??__ElmClw@@YAXXZ          100972b0 f   LexCLW.obj
 0001:000962e0       ??__ElmClwNoCase@@YAXXZ    100972e0 f   LexCLW.obj
 0001:00096310       ??__ElmCmake@@YAXXZ        10097310 f   LexCmake.obj
 0001:00096340       ??__ElmCOBOL@@YAXXZ        10097340 f   LexCOBOL.obj
 0001:00096370       ??__ElmConf@@YAXXZ         10097370 f   LexConf.obj
 0001:000963a0       ??__ElmCPP@@YAXXZ          100973a0 f   LexCPP.obj
 0001:000963d0       ??__ElmCPPNoCase@@YAXXZ    100973d0 f   LexCPP.obj
 0001:00096400       ??__ElmNncrontab@@YAXXZ    10097400 f   LexCrontab.obj
 0001:00096430       ??__ElmCsound@@YAXXZ       10097430 f   LexCsound.obj
 0001:00096460       ??__ElmCss@@YAXXZ          10097460 f   LexCSS.obj
 0001:00096490       ??__ElmD@@YAXXZ            10097490 f   LexD.obj
 0001:000964c0       ??__ElmEiffel@@YAXXZ       100974c0 f   LexEiffel.obj
 0001:000964f0       ??__ElmEiffelkw@@YAXXZ     100974f0 f   LexEiffel.obj
 0001:00096520       ??__ElmErlang@@YAXXZ       10097520 f   LexErlang.obj
 0001:00096550       ??__ElmESCRIPT@@YAXXZ      10097550 f   LexEScript.obj
 0001:00096580       ??__ElmFlagShip@@YAXXZ     10097580 f   LexFlagship.obj
 0001:000965b0       ??__ElmForth@@YAXXZ        100975b0 f   LexForth.obj
 0001:000965e0       ??__ElmFortran@@YAXXZ      100975e0 f   LexFortran.obj
 0001:00096610       ??__ElmF77@@YAXXZ          10097610 f   LexFortran.obj
 0001:00096640       ??__ElmGAP@@YAXXZ          10097640 f   LexGAP.obj
 0001:00096670       ??__ElmGui4Cli@@YAXXZ      10097670 f   LexGui4Cli.obj
 0001:000966a0       ??__ElmHaskell@@YAXXZ      100976a0 f   LexHaskell.obj
 0001:000966d0       ??__ElmHTML@@YAXXZ         100976d0 f   LexHTML.obj
 0001:00096700       ??__ElmXML@@YAXXZ          10097700 f   LexHTML.obj
 0001:00096730       ??__ElmPHPSCRIPT@@YAXXZ    10097730 f   LexHTML.obj
 0001:00096760       ??__ElmInno@@YAXXZ         10097760 f   LexInno.obj
 0001:00096790       ??__ElmKix@@YAXXZ          10097790 f   LexKix.obj
 0001:000967c0       ??__ElmLISP@@YAXXZ         100977c0 f   LexLisp.obj
 0001:000967f0       ??__ElmLout@@YAXXZ         100977f0 f   LexLout.obj
 0001:00096820       ??__ElmLua@@YAXXZ          10097820 f   LexLua.obj
 0001:00096850       ??__ElmMagikSF@@YAXXZ      10097850 f   LexMagik.obj
 0001:00096880       ??__ElmMarkdown@@YAXXZ     10097880 f   LexMarkdown.obj
 0001:000968b0       ??__ElmMatlab@@YAXXZ       100978b0 f   LexMatlab.obj
 0001:000968e0       ??__ElmOctave@@YAXXZ       100978e0 f   LexMatlab.obj
 0001:00096910       ??__ElmMETAPOST@@YAXXZ     10097910 f   LexMetapost.obj
 0001:00096940       ??__ElmMMIXAL@@YAXXZ       10097940 f   LexMMIXAL.obj
 0001:00096970       ??__ElmLot@@YAXXZ          10097970 f   LexMPT.obj
 0001:000969a0       ??__ElmMSSQL@@YAXXZ        100979a0 f   LexMSSQL.obj
 0001:000969d0       ??__ElmMySQL@@YAXXZ        100979d0 f   LexMySQL.obj
 0001:00096a00       ??__ElmNimrod@@YAXXZ       10097a00 f   LexNimrod.obj
 0001:00096a30       ??__ElmNsis@@YAXXZ         10097a30 f   LexNsis.obj
 0001:00096a60       ??__ElmOpal@@YAXXZ         10097a60 f   LexOpal.obj
 0001:00096a90       ??__ElmBatch@@YAXXZ        10097a90 f   LexOthers.obj
 0001:00096ac0       ??__ElmDiff@@YAXXZ         10097ac0 f   LexOthers.obj
 0001:00096af0       ??__ElmPo@@YAXXZ           10097af0 f   LexOthers.obj
 0001:00096b20       ??__ElmProps@@YAXXZ        10097b20 f   LexOthers.obj
 0001:00096b50       ??__ElmMake@@YAXXZ         10097b50 f   LexOthers.obj
 0001:00096b80       ??__ElmErrorList@@YAXXZ    10097b80 f   LexOthers.obj
 0001:00096bb0       ??__ElmLatex@@YAXXZ        10097bb0 f   LexOthers.obj
 0001:00096be0       ??__ElmNull@@YAXXZ         10097be0 f   LexOthers.obj
 0001:00096c10       ??__ElmPascal@@YAXXZ       10097c10 f   LexPascal.obj
 0001:00096c40       ??__ElmPB@@YAXXZ           10097c40 f   LexPB.obj
 0001:00096c70       ??__ElmPerl@@YAXXZ         10097c70 f   LexPerl.obj
 0001:00096ca0       ??__ElmPLM@@YAXXZ          10097ca0 f   LexPLM.obj
 0001:00096cd0       ??__ElmPOV@@YAXXZ          10097cd0 f   LexPOV.obj
 0001:00096d00       ??__ElmPowerPro@@YAXXZ     10097d00 f   LexPowerPro.obj
 0001:00096d30       ??__ElmPowerShell@@YAXXZ   10097d30 f   LexPowerShell.obj
 0001:00096d60       ??__ElmProgress@@YAXXZ     10097d60 f   LexProgress.obj
 0001:00096d90       ??__ElmPS@@YAXXZ           10097d90 f   LexPS.obj
 0001:00096dc0       ??__ElmPython@@YAXXZ       10097dc0 f   LexPython.obj
 0001:00096df0       ??__ElmR@@YAXXZ            10097df0 f   LexR.obj
 0001:00096e20       ??__ElmREBOL@@YAXXZ        10097e20 f   LexRebol.obj
 0001:00096e50       ??__ElmRuby@@YAXXZ         10097e50 f   LexRuby.obj
 0001:00096e80       ??__ElmScriptol@@YAXXZ     10097e80 f   LexScriptol.obj
 0001:00096eb0       ??__ElmSmalltalk@@YAXXZ    10097eb0 f   LexSmalltalk.obj
 0001:00096ee0       ??__ElmSML@@YAXXZ          10097ee0 f   LexSML.obj
 0001:00096f10       ??__ElmSorc@@YAXXZ         10097f10 f   LexSorcus.obj
 0001:00096f40       ??__ElmSpecman@@YAXXZ      10097f40 f   LexSpecman.obj
 0001:00096f70       ??__ElmSpice@@YAXXZ        10097f70 f   LexSpice.obj
 0001:00096fa0       ??__ElmSQL@@YAXXZ          10097fa0 f   LexSQL.obj
 0001:00096fd0       ??__ElmTACL@@YAXXZ         10097fd0 f   LexTACL.obj
 0001:00097000       ??__ElmTADS3@@YAXXZ        10098000 f   LexTADS3.obj
 0001:00097030       ??__ElmTAL@@YAXXZ          10098030 f   LexTAL.obj
 0001:00097060       ??__ElmTCL@@YAXXZ          10098060 f   LexTCL.obj
 0001:00097090       ??__ElmTeX@@YAXXZ          10098090 f   LexTeX.obj
 0001:000970c0       ??__ElmVB@@YAXXZ           100980c0 f   LexVB.obj
 0001:000970f0       ??__ElmVBScript@@YAXXZ     100980f0 f   LexVB.obj
 0001:00097120       ??__ElmVerilog@@YAXXZ      10098120 f   LexVerilog.obj
 0001:00097150       ??__ElmVHDL@@YAXXZ         10098150 f   LexVHDL.obj
 0001:00097180       ??__ElmYAML@@YAXXZ         10098180 f   LexYAML.obj
 0001:000971b0       ??__Fminder@@YAXXZ         100981b0 f   ExternalLexer.obj
 0001:000971e0       ??__FlmAbaqus@@YAXXZ       100981e0 f   LexAbaqus.obj
 0001:000971f0       ??__FlmAda@@YAXXZ          100981f0 f   LexAda.obj
 0001:00097200       ??__FlmAPDL@@YAXXZ         10098200 f   LexAPDL.obj
 0001:00097210       ??__FlmAsm@@YAXXZ          10098210 f   LexAsm.obj
 0001:00097220       ??__FlmAns1@@YAXXZ         10098220 f   LexAsn1.obj
 0001:00097230       ??__FlmASY@@YAXXZ          10098230 f   LexASY.obj
 0001:00097240       ??__FlmAU3@@YAXXZ          10098240 f   LexAU3.obj
 0001:00097250       ??__FlmAVE@@YAXXZ          10098250 f   LexAVE.obj
 0001:00097260       ??__FlmBaan@@YAXXZ         10098260 f   LexBaan.obj
 0001:00097270       ??__FlmBash@@YAXXZ         10098270 f   LexBash.obj
 0001:00097280       ??__FlmBlitzBasic@@YAXXZ   10098280 f   LexBasic.obj
 0001:00097290       ??__FlmPureBasic@@YAXXZ    10098290 f   LexBasic.obj
 0001:000972a0       ??__FlmFreeBasic@@YAXXZ    100982a0 f   LexBasic.obj
 0001:000972b0       ??__FlmBullant@@YAXXZ      100982b0 f   LexBullant.obj
 0001:000972c0       ??__FlmCaml@@YAXXZ         100982c0 f   LexCaml.obj
 0001:000972d0       ??__FlmClw@@YAXXZ          100982d0 f   LexCLW.obj
 0001:000972e0       ??__FlmClwNoCase@@YAXXZ    100982e0 f   LexCLW.obj
 0001:000972f0       ??__FlmCmake@@YAXXZ        100982f0 f   LexCmake.obj
 0001:00097300       ??__FlmCOBOL@@YAXXZ        10098300 f   LexCOBOL.obj
 0001:00097310       ??__FlmConf@@YAXXZ         10098310 f   LexConf.obj
 0001:00097320       ??__FlmCPP@@YAXXZ          10098320 f   LexCPP.obj
 0001:00097330       ??__FlmCPPNoCase@@YAXXZ    10098330 f   LexCPP.obj
 0001:00097340       ??__FlmNncrontab@@YAXXZ    10098340 f   LexCrontab.obj
 0001:00097350       ??__FlmCsound@@YAXXZ       10098350 f   LexCsound.obj
 0001:00097360       ??__FlmCss@@YAXXZ          10098360 f   LexCSS.obj
 0001:00097370       ??__FlmD@@YAXXZ            10098370 f   LexD.obj
 0001:00097380       ??__FlmEiffel@@YAXXZ       10098380 f   LexEiffel.obj
 0001:00097390       ??__FlmEiffelkw@@YAXXZ     10098390 f   LexEiffel.obj
 0001:000973a0       ??__FlmErlang@@YAXXZ       100983a0 f   LexErlang.obj
 0001:000973b0       ??__FlmESCRIPT@@YAXXZ      100983b0 f   LexEScript.obj
 0001:000973c0       ??__FlmFlagShip@@YAXXZ     100983c0 f   LexFlagship.obj
 0001:000973d0       ??__FlmForth@@YAXXZ        100983d0 f   LexForth.obj
 0001:000973e0       ??__FlmFortran@@YAXXZ      100983e0 f   LexFortran.obj
 0001:000973f0       ??__FlmF77@@YAXXZ          100983f0 f   LexFortran.obj
 0001:00097400       ??__FlmGAP@@YAXXZ          10098400 f   LexGAP.obj
 0001:00097410       ??__FlmGui4Cli@@YAXXZ      10098410 f   LexGui4Cli.obj
 0001:00097420       ??__FlmHaskell@@YAXXZ      10098420 f   LexHaskell.obj
 0001:00097430       ??__FlmHTML@@YAXXZ         10098430 f   LexHTML.obj
 0001:00097440       ??__FlmXML@@YAXXZ          10098440 f   LexHTML.obj
 0001:00097450       ??__FlmPHPSCRIPT@@YAXXZ    10098450 f   LexHTML.obj
 0001:00097460       ??__FlmInno@@YAXXZ         10098460 f   LexInno.obj
 0001:00097470       ??__FlmKix@@YAXXZ          10098470 f   LexKix.obj
 0001:00097480       ??__FlmLISP@@YAXXZ         10098480 f   LexLisp.obj
 0001:00097490       ??__FlmLout@@YAXXZ         10098490 f   LexLout.obj
 0001:000974a0       ??__FlmLua@@YAXXZ          100984a0 f   LexLua.obj
 0001:000974b0       ??__FlmMagikSF@@YAXXZ      100984b0 f   LexMagik.obj
 0001:000974c0       ??__FlmMarkdown@@YAXXZ     100984c0 f   LexMarkdown.obj
 0001:000974d0       ??__FlmMatlab@@YAXXZ       100984d0 f   LexMatlab.obj
 0001:000974e0       ??__FlmOctave@@YAXXZ       100984e0 f   LexMatlab.obj
 0001:000974f0       ??__FlmMETAPOST@@YAXXZ     100984f0 f   LexMetapost.obj
 0001:00097500       ??__FlmMMIXAL@@YAXXZ       10098500 f   LexMMIXAL.obj
 0001:00097510       ??__FlmLot@@YAXXZ          10098510 f   LexMPT.obj
 0001:00097520       ??__FlmMSSQL@@YAXXZ        10098520 f   LexMSSQL.obj
 0001:00097530       ??__FlmMySQL@@YAXXZ        10098530 f   LexMySQL.obj
 0001:00097540       ??__FlmNimrod@@YAXXZ       10098540 f   LexNimrod.obj
 0001:00097550       ??__FlmNsis@@YAXXZ         10098550 f   LexNsis.obj
 0001:00097560       ??__FlmOpal@@YAXXZ         10098560 f   LexOpal.obj
 0001:00097570       ??__FlmBatch@@YAXXZ        10098570 f   LexOthers.obj
 0001:00097580       ??__FlmDiff@@YAXXZ         10098580 f   LexOthers.obj
 0001:00097590       ??__FlmPo@@YAXXZ           10098590 f   LexOthers.obj
 0001:000975a0       ??__FlmProps@@YAXXZ        100985a0 f   LexOthers.obj
 0001:000975b0       ??__FlmMake@@YAXXZ         100985b0 f   LexOthers.obj
 0001:000975c0       ??__FlmErrorList@@YAXXZ    100985c0 f   LexOthers.obj
 0001:000975d0       ??__FlmLatex@@YAXXZ        100985d0 f   LexOthers.obj
 0001:000975e0       ??__FlmNull@@YAXXZ         100985e0 f   LexOthers.obj
 0001:000975f0       ??__FlmPascal@@YAXXZ       100985f0 f   LexPascal.obj
 0001:00097600       ??__FlmPB@@YAXXZ           10098600 f   LexPB.obj
 0001:00097610       ??__FlmPerl@@YAXXZ         10098610 f   LexPerl.obj
 0001:00097620       ??__FlmPLM@@YAXXZ          10098620 f   LexPLM.obj
 0001:00097630       ??__FlmPOV@@YAXXZ          10098630 f   LexPOV.obj
 0001:00097640       ??__FlmPowerPro@@YAXXZ     10098640 f   LexPowerPro.obj
 0001:00097650       ??__FlmPowerShell@@YAXXZ   10098650 f   LexPowerShell.obj
 0001:00097660       ??__FlmProgress@@YAXXZ     10098660 f   LexProgress.obj
 0001:00097670       ??__FlmPS@@YAXXZ           10098670 f   LexPS.obj
 0001:00097680       ??__FlmPython@@YAXXZ       10098680 f   LexPython.obj
 0001:00097690       ??__FlmR@@YAXXZ            10098690 f   LexR.obj
 0001:000976a0       ??__FlmREBOL@@YAXXZ        100986a0 f   LexRebol.obj
 0001:000976b0       ??__FlmRuby@@YAXXZ         100986b0 f   LexRuby.obj
 0001:000976c0       ??__FlmScriptol@@YAXXZ     100986c0 f   LexScriptol.obj
 0001:000976d0       ??__FlmSmalltalk@@YAXXZ    100986d0 f   LexSmalltalk.obj
 0001:000976e0       ??__FlmSML@@YAXXZ          100986e0 f   LexSML.obj
 0001:000976f0       ??__FlmSorc@@YAXXZ         100986f0 f   LexSorcus.obj
 0001:00097700       ??__FlmSpecman@@YAXXZ      10098700 f   LexSpecman.obj
 0001:00097710       ??__FlmSpice@@YAXXZ        10098710 f   LexSpice.obj
 0001:00097720       ??__FlmSQL@@YAXXZ          10098720 f   LexSQL.obj
 0001:00097730       ??__FlmTACL@@YAXXZ         10098730 f   LexTACL.obj
 0001:00097740       ??__FlmTADS3@@YAXXZ        10098740 f   LexTADS3.obj
 0001:00097750       ??__FlmTAL@@YAXXZ          10098750 f   LexTAL.obj
 0001:00097760       ??__FlmTCL@@YAXXZ          10098760 f   LexTCL.obj
 0001:00097770       ??__FlmTeX@@YAXXZ          10098770 f   LexTeX.obj
 0001:00097780       ??__FlmVB@@YAXXZ           10098780 f   LexVB.obj
 0001:00097790       ??__FlmVBScript@@YAXXZ     10098790 f   LexVB.obj
 0001:000977a0       ??__FlmVerilog@@YAXXZ      100987a0 f   LexVerilog.obj
 0001:000977b0       ??__FlmVHDL@@YAXXZ         100987b0 f   LexVHDL.obj
 0001:000977c0       ??__FlmYAML@@YAXXZ         100987c0 f   LexYAML.obj
 0001:000977cb       ??__Fnomem@?5???2@YAPAXI@Z@YAXXZ 100987cb f   LIBCMT:new.obj
